Certificate:
    Data:
        Version: 3 (0x2)
        Serial Number: 106 (0x6a)
    Signature Algorithm: sha256WithRSAEncryption
        Issuer: C=FR, ST=bourgogne, L=dijon, O=eole, OU=ci, CN=ACEoleCI
        Validity
            Not Before: Mar 17 14:35:58 2016 GMT
            Not After : Jun  3 14:35:58 2024 GMT
        Subject: CN=pceleve.etb1.lan
        Subject Public Key Info:
            Public Key Algorithm: rsaEncryption
                Public-Key: (1024 bit)
                Modulus:
                    00:bc:6d:2a:95:fd:12:38:6a:1b:12:04:20:a3:a9:
                    87:b1:2b:fb:bf:a0:fd:fb:c5:4a:d1:65:26:b4:13:
                    09:6c:f3:d3:84:b4:03:d8:13:a1:0f:9d:0a:1d:09:
                    94:78:85:34:c1:8c:78:57:9e:d8:1b:df:2a:7c:0e:
                    88:ba:ea:c2:75:fe:4a:3c:34:de:03:e2:25:6d:7f:
                    3d:8e:23:35:da:5f:34:16:73:22:18:2f:5a:e0:4a:
                    75:ed:cd:17:9b:93:8d:26:83:d5:7c:e1:c9:df:61:
                    f0:e2:5a:f6:7a:c4:e1:34:69:3a:1a:d4:e2:75:51:
                    36:70:ff:90:89:24:ed:2d:bd
                Exponent: 65537 (0x10001)
        X509v3 extensions:
            X509v3 Basic Constraints: 
                CA:FALSE
            X509v3 Subject Key Identifier: 
                4B:77:4D:F0:05:49:2E:F7:1E:71:D5:28:34:8D:F3:54:C5:CB:20:C6
            X509v3 Authority Key Identifier: 
                keyid:38:DF:46:29:38:B2:13:8B:A5:7C:80:4B:5E:AA:24:DB:25:DC:EC:EE
                DirName:/C=FR/ST=bourgogne/L=dijon/O=eole/OU=ci/CN=ACEoleCI
                serial:81:5A:FE:E5:BA:70:38:01

            X509v3 Key Usage: critical
                Digital Signature, Key Encipherment
            X509v3 Extended Key Usage: 
                TLS Web Server Authentication
    Signature Algorithm: sha256WithRSAEncryption
         25:a3:9d:5b:88:dc:9f:09:a1:12:a8:57:c9:f7:68:43:03:34:
         3b:24:95:c1:ae:8d:c1:59:98:75:40:4a:6d:81:14:7c:92:45:
         79:73:b2:a1:89:b6:4f:5c:26:0b:e8:e6:e2:fd:26:de:c0:5a:
         e2:8f:a6:f8:a7:a9:b1:db:57:26:bb:22:67:18:be:82:85:62:
         bb:cf:cf:4c:b8:c7:39:2b:71:05:71:bf:92:a4:6f:44:32:6a:
         64:1d:0f:0d:82:42:a2:40:65:47:7d:5f:36:a0:b2:dc:50:e0:
         6b:ae:22:2f:7d:fc:d9:11:05:d9:f4:20:dc:a2:62:68:31:92:
         06:38
-----BEGIN CERTIFICATE-----
MIIC2TCCAkKgAwIBAgIBajANBgkqhkiG9w0BAQsFADBgMQswCQYDVQQGEwJGUjES
MBAGA1UECAwJYm91cmdvZ25lMQ4wDAYDVQQHDAVkaWpvbjENMAsGA1UECgwEZW9s
ZTELMAkGA1UECwwCY2kxETAPBgNVBAMMCEFDRW9sZUNJMB4XDTE2MDMxNzE0MzU1
OFoXDTI0MDYwMzE0MzU1OFowGzEZMBcGA1UEAwwQcGNlbGV2ZS5ldGIxLmxhbjCB
nzANBgkqhkiG9w0BAQEFAAOBjQAwgYkCgYEAvG0qlf0SOGobEgQgo6mHsSv7v6D9
+8VK0WUmtBMJbPPThLQD2BOhD50KHQmUeIU0wYx4V57YG98qfA6IuurCdf5KPDTe
A+IlbX89jiM12l80FnMiGC9a4Ep17c0Xm5ONJoPVfOHJ32Hw4lr2esThNGk6GtTi
dVE2cP+QiSTtLb0CAwEAAaOB5zCB5DAJBgNVHRMEAjAAMB0GA1UdDgQWBBRLd03w
BUku9x5x1Sg0jfNUxcsgxjCBkgYDVR0jBIGKMIGHgBQ430YpOLITi6V8gEteqiTb
Jdzs7qFkpGIwYDELMAkGA1UEBhMCRlIxEjAQBgNVBAgMCWJvdXJnb2duZTEOMAwG
A1UEBwwFZGlqb24xDTALBgNVBAoMBGVvbGUxCzAJBgNVBAsMAmNpMREwDwYDVQQD
DAhBQ0VvbGVDSYIJAIFa/uW6cDgBMA4GA1UdDwEB/wQEAwIFoDATBgNVHSUEDDAK
BggrBgEFBQcDATANBgkqhkiG9w0BAQsFAAOBgQAlo51biNyfCaESqFfJ92hDAzQ7
JJXBro3BWZh1QEptgRR8kkV5c7KhibZPXCYL6Obi/SbewFrij6b4p6mx21cmuyJn
GL6ChWK7z89MuMc5K3EFcb+SpG9EMmpkHQ8NgkKiQGVHfV82oLLcUOBrriIvffzZ
EQXZ9CDcomJoMZIGOA==
-----END CERTIFICATE-----
