Certificate:
    Data:
        Version: 3 (0x2)
        Serial Number: 107 (0x6b)
    Signature Algorithm: sha256WithRSAEncryption
        Issuer: C=FR, ST=bourgogne, L=dijon, O=eole, OU=ci, CN=ACEoleCI
        Validity
            Not Before: Mar 17 14:35:58 2016 GMT
            Not After : Jun  3 14:35:58 2024 GMT
        Subject: CN=pceleve.etb1.lan
        Subject Public Key Info:
            Public Key Algorithm: rsaEncryption
                Public-Key: (1024 bit)
                Modulus:
                    00:bc:6d:2a:95:fd:12:38:6a:1b:12:04:20:a3:a9:
                    87:b1:2b:fb:bf:a0:fd:fb:c5:4a:d1:65:26:b4:13:
                    09:6c:f3:d3:84:b4:03:d8:13:a1:0f:9d:0a:1d:09:
                    94:78:85:34:c1:8c:78:57:9e:d8:1b:df:2a:7c:0e:
                    88:ba:ea:c2:75:fe:4a:3c:34:de:03:e2:25:6d:7f:
                    3d:8e:23:35:da:5f:34:16:73:22:18:2f:5a:e0:4a:
                    75:ed:cd:17:9b:93:8d:26:83:d5:7c:e1:c9:df:61:
                    f0:e2:5a:f6:7a:c4:e1:34:69:3a:1a:d4:e2:75:51:
                    36:70:ff:90:89:24:ed:2d:bd
                Exponent: 65537 (0x10001)
        X509v3 extensions:
            X509v3 Basic Constraints: 
                CA:FALSE
            X509v3 Subject Key Identifier: 
                4B:77:4D:F0:05:49:2E:F7:1E:71:D5:28:34:8D:F3:54:C5:CB:20:C6
            X509v3 Authority Key Identifier: 
                keyid:38:DF:46:29:38:B2:13:8B:A5:7C:80:4B:5E:AA:24:DB:25:DC:EC:EE

            X509v3 Key Usage: critical
                Digital Signature, Non Repudiation, Key Encipherment
            X509v3 Extended Key Usage: 
                TLS Web Client Authentication, E-mail Protection
    Signature Algorithm: sha256WithRSAEncryption
         0f:5c:b5:a0:93:3a:d7:8d:a0:d3:5d:58:a6:5f:c2:13:5e:30:
         1d:18:86:24:99:09:c8:24:4b:ae:78:84:a4:48:05:5b:0f:db:
         8e:d4:45:c6:74:fd:a5:8c:f3:7a:5f:44:dd:8f:fc:ff:86:15:
         27:9d:42:8d:0e:84:8b:d2:2a:04:e4:6b:59:eb:4a:b6:96:32:
         f0:9e:55:4b:67:f8:6e:bf:e4:38:24:84:4b:35:00:21:9b:64:
         e3:d0:ad:47:72:17:7b:06:66:11:37:99:45:db:f8:79:5c:5a:
         71:94:0e:3a:bd:a8:b6:0e:8a:a9:8f:8d:73:05:f6:6f:ad:45:
         5c:e7
-----BEGIN CERTIFICATE-----
MIICbTCCAdagAwIBAgIBazANBgkqhkiG9w0BAQsFADBgMQswCQYDVQQGEwJGUjES
MBAGA1UECAwJYm91cmdvZ25lMQ4wDAYDVQQHDAVkaWpvbjENMAsGA1UECgwEZW9s
ZTELMAkGA1UECwwCY2kxETAPBgNVBAMMCEFDRW9sZUNJMB4XDTE2MDMxNzE0MzU1
OFoXDTI0MDYwMzE0MzU1OFowGzEZMBcGA1UEAwwQcGNlbGV2ZS5ldGIxLmxhbjCB
nzANBgkqhkiG9w0BAQEFAAOBjQAwgYkCgYEAvG0qlf0SOGobEgQgo6mHsSv7v6D9
+8VK0WUmtBMJbPPThLQD2BOhD50KHQmUeIU0wYx4V57YG98qfA6IuurCdf5KPDTe
A+IlbX89jiM12l80FnMiGC9a4Ep17c0Xm5ONJoPVfOHJ32Hw4lr2esThNGk6GtTi
dVE2cP+QiSTtLb0CAwEAAaN8MHowCQYDVR0TBAIwADAdBgNVHQ4EFgQUS3dN8AVJ
LvcecdUoNI3zVMXLIMYwHwYDVR0jBBgwFoAUON9GKTiyE4ulfIBLXqok2yXc7O4w
DgYDVR0PAQH/BAQDAgXgMB0GA1UdJQQWMBQGCCsGAQUFBwMCBggrBgEFBQcDBDAN
BgkqhkiG9w0BAQsFAAOBgQAPXLWgkzrXjaDTXVimX8ITXjAdGIYkmQnIJEuueISk
SAVbD9uO1EXGdP2ljPN6X0Tdj/z/hhUnnUKNDoSL0ioE5GtZ60q2ljLwnlVLZ/hu
v+Q4JIRLNQAhm2Tj0K1Hchd7BmYRN5lF2/h5XFpxlA46vai2Doqpj41zBfZvrUVc
5w==
-----END CERTIFICATE-----
