-----BEGIN RSA PRIVATE KEY-----
MIICXAIBAAKBgQDAmL+tAbjJl4+4wQzl+P6PvD+AQPhcY6fql12Miz0+ztS8kXtf
YG44ho7Av4JU1arsKWqLHWSMp79iRR8nxks4FNUb4+CaVtqJVN6+p4Rrs9SoqW3d
mhJWT42ZDrib25TFzxsojgdny3uq8w+AecAio62wuog+lFtkJR27kUGawwIDAQAB
AoGADFb9GPGeTFRIohbEY8uzS7RNAUOoZgsAjDhMhx+4udh4quhLVk4QYdDFPrZG
fHcAL4dryyQD+DsbOQmiuGKtGPtPk8KsZVTRn2G2tIyiSylXu1BMnMQPC5/FwR1U
/tvJsA6qIsjyZyWV4as7h6qnBvDifbzfKoqYFLtQYXOUl+kCQQDhsqO7RNww9o8T
5+ZymALWy/Yv9PtNd4Q9JZf1GcwWbJcECAsmDojA/2yzWiUugqO8oMn1sIfqfX57
Mfvj34jHAkEA2nRnj3MzEcY2psYOFK56z1KrxClB2rrolGzzEoqetHrNaFuEIVxs
qvLO6pYl0JfvNX0K5nD1iPe6K5czsxx6JQJAN0ifrH5ohSHP2Ctkmks73stlCUgz
yjztSmEMAMCJ6jA9KYKi4HaM7uFiCeiZ1POxEcI81g6grEKDGcAbmCyn/wJALBAc
r2eaHnSvo1YBkxRaeyT+tnNn8BmRPhb3tH63Ykn+0pTbAuukk5qkN9cPS5LJ0i0l
nLOeIwFs0MwPxonw7QJBAM2+G6ZjM+JrLQLjnkG0fWo65kqA15wWUg/UBiWAHb2F
nUBcZeomKvci0yshLOonb5zi9NO8i/tyM3SqSi50+1I=
-----END RSA PRIVATE KEY-----
Certificate:
    Data:
        Version: 3 (0x2)
        Serial Number: 97 (0x61)
    Signature Algorithm: sha256WithRSAEncryption
        Issuer: C=FR, ST=bourgogne, L=dijon, O=eole, OU=ci, CN=ACEoleCI
        Validity
            Not Before: Mar 17 14:35:55 2016 GMT
            Not After : Jun  3 14:35:55 2024 GMT
        Subject: CN=eolecitestspedago.etb1.lan
        Subject Public Key Info:
            Public Key Algorithm: rsaEncryption
                Public-Key: (1024 bit)
                Modulus:
                    00:c0:98:bf:ad:01:b8:c9:97:8f:b8:c1:0c:e5:f8:
                    fe:8f:bc:3f:80:40:f8:5c:63:a7:ea:97:5d:8c:8b:
                    3d:3e:ce:d4:bc:91:7b:5f:60:6e:38:86:8e:c0:bf:
                    82:54:d5:aa:ec:29:6a:8b:1d:64:8c:a7:bf:62:45:
                    1f:27:c6:4b:38:14:d5:1b:e3:e0:9a:56:da:89:54:
                    de:be:a7:84:6b:b3:d4:a8:a9:6d:dd:9a:12:56:4f:
                    8d:99:0e:b8:9b:db:94:c5:cf:1b:28:8e:07:67:cb:
                    7b:aa:f3:0f:80:79:c0:22:a3:ad:b0:ba:88:3e:94:
                    5b:64:25:1d:bb:91:41:9a:c3
                Exponent: 65537 (0x10001)
        X509v3 extensions:
            X509v3 Basic Constraints: 
                CA:FALSE
            X509v3 Subject Key Identifier: 
                8E:B6:2A:6B:2D:03:FB:19:0F:8D:32:F1:9F:6C:AC:85:A9:FE:74:F6
            X509v3 Authority Key Identifier: 
                keyid:38:DF:46:29:38:B2:13:8B:A5:7C:80:4B:5E:AA:24:DB:25:DC:EC:EE
                DirName:/C=FR/ST=bourgogne/L=dijon/O=eole/OU=ci/CN=ACEoleCI
                serial:81:5A:FE:E5:BA:70:38:01

            X509v3 Key Usage: critical
                Digital Signature, Key Encipherment
            X509v3 Extended Key Usage: 
                TLS Web Server Authentication
    Signature Algorithm: sha256WithRSAEncryption
         7f:2e:b1:30:bd:0b:eb:7e:52:ce:89:f1:02:77:7d:b3:16:c1:
         ce:72:ba:b3:ab:9b:92:01:86:45:ad:22:d0:e5:ac:52:ab:f8:
         bb:25:3e:72:94:f3:be:21:ee:14:db:87:55:41:22:af:da:73:
         53:c0:15:16:74:36:7d:63:f5:1b:d7:7a:b6:4d:53:90:5a:8d:
         3d:09:f2:bd:69:65:28:ac:b5:d9:47:fc:e6:99:eb:5f:00:d0:
         58:77:31:0b:52:77:8b:da:7b:dc:11:6b:cc:e2:99:a1:06:31:
         b1:4f:85:c0:da:90:1a:5b:af:ec:e2:3f:4c:40:b3:79:e8:dc:
         2f:fa
-----BEGIN CERTIFICATE-----
MIIC4zCCAkygAwIBAgIBYTANBgkqhkiG9w0BAQsFADBgMQswCQYDVQQGEwJGUjES
MBAGA1UECAwJYm91cmdvZ25lMQ4wDAYDVQQHDAVkaWpvbjENMAsGA1UECgwEZW9s
ZTELMAkGA1UECwwCY2kxETAPBgNVBAMMCEFDRW9sZUNJMB4XDTE2MDMxNzE0MzU1
NVoXDTI0MDYwMzE0MzU1NVowJTEjMCEGA1UEAwwaZW9sZWNpdGVzdHNwZWRhZ28u
ZXRiMS5sYW4wgZ8wDQYJKoZIhvcNAQEBBQADgY0AMIGJAoGBAMCYv60BuMmXj7jB
DOX4/o+8P4BA+Fxjp+qXXYyLPT7O1LyRe19gbjiGjsC/glTVquwpaosdZIynv2JF
HyfGSzgU1Rvj4JpW2olU3r6nhGuz1Kipbd2aElZPjZkOuJvblMXPGyiOB2fLe6rz
D4B5wCKjrbC6iD6UW2QlHbuRQZrDAgMBAAGjgecwgeQwCQYDVR0TBAIwADAdBgNV
HQ4EFgQUjrYqay0D+xkPjTLxn2yshan+dPYwgZIGA1UdIwSBijCBh4AUON9GKTiy
E4ulfIBLXqok2yXc7O6hZKRiMGAxCzAJBgNVBAYTAkZSMRIwEAYDVQQIDAlib3Vy
Z29nbmUxDjAMBgNVBAcMBWRpam9uMQ0wCwYDVQQKDARlb2xlMQswCQYDVQQLDAJj
aTERMA8GA1UEAwwIQUNFb2xlQ0mCCQCBWv7lunA4ATAOBgNVHQ8BAf8EBAMCBaAw
EwYDVR0lBAwwCgYIKwYBBQUHAwEwDQYJKoZIhvcNAQELBQADgYEAfy6xML0L635S
zonxAnd9sxbBznK6s6ubkgGGRa0i0OWsUqv4uyU+cpTzviHuFNuHVUEir9pzU8AV
FnQ2fWP1G9d6tk1TkFqNPQnyvWllKKy12Uf85pnrXwDQWHcxC1J3i9p73BFrzOKZ
oQYxsU+FwNqQGluv7OI/TECzeejcL/o=
-----END CERTIFICATE-----
