Certificate:
    Data:
        Version: 3 (0x2)
        Serial Number: 98 (0x62)
    Signature Algorithm: sha256WithRSAEncryption
        Issuer: C=FR, ST=bourgogne, L=dijon, O=eole, OU=ci, CN=ACEoleCI
        Validity
            Not Before: Mar 17 14:35:55 2016 GMT
            Not After : Jun  3 14:35:55 2024 GMT
        Subject: CN=eolecitestspedago.etb1.lan
        Subject Public Key Info:
            Public Key Algorithm: rsaEncryption
                Public-Key: (1024 bit)
                Modulus:
                    00:c0:98:bf:ad:01:b8:c9:97:8f:b8:c1:0c:e5:f8:
                    fe:8f:bc:3f:80:40:f8:5c:63:a7:ea:97:5d:8c:8b:
                    3d:3e:ce:d4:bc:91:7b:5f:60:6e:38:86:8e:c0:bf:
                    82:54:d5:aa:ec:29:6a:8b:1d:64:8c:a7:bf:62:45:
                    1f:27:c6:4b:38:14:d5:1b:e3:e0:9a:56:da:89:54:
                    de:be:a7:84:6b:b3:d4:a8:a9:6d:dd:9a:12:56:4f:
                    8d:99:0e:b8:9b:db:94:c5:cf:1b:28:8e:07:67:cb:
                    7b:aa:f3:0f:80:79:c0:22:a3:ad:b0:ba:88:3e:94:
                    5b:64:25:1d:bb:91:41:9a:c3
                Exponent: 65537 (0x10001)
        X509v3 extensions:
            X509v3 Basic Constraints: 
                CA:FALSE
            X509v3 Subject Key Identifier: 
                8E:B6:2A:6B:2D:03:FB:19:0F:8D:32:F1:9F:6C:AC:85:A9:FE:74:F6
            X509v3 Authority Key Identifier: 
                keyid:38:DF:46:29:38:B2:13:8B:A5:7C:80:4B:5E:AA:24:DB:25:DC:EC:EE

            X509v3 Key Usage: critical
                Digital Signature, Non Repudiation, Key Encipherment
            X509v3 Extended Key Usage: 
                TLS Web Client Authentication, E-mail Protection
    Signature Algorithm: sha256WithRSAEncryption
         58:7b:f2:d3:31:43:a4:bb:d8:93:8a:fd:9d:66:3c:d3:36:62:
         f3:8f:1a:48:c4:98:e4:5b:95:11:a1:d2:2d:d4:5f:bd:89:f7:
         e0:35:9f:77:a1:7b:70:43:96:4a:47:72:9b:c2:53:df:7b:74:
         e0:60:93:91:9e:3d:5a:75:97:3e:f6:2a:92:a8:09:cb:5b:b1:
         e2:c4:6f:c3:48:30:10:d4:82:4d:64:27:8f:a7:4c:0a:6f:74:
         4e:91:74:ac:6d:2b:48:18:a3:ee:58:66:9d:e5:7e:c7:a7:7c:
         a5:2a:a1:8c:19:4d:2d:af:b4:8b:09:96:6a:76:13:aa:3d:75:
         90:21
-----BEGIN CERTIFICATE-----
MIICdzCCAeCgAwIBAgIBYjANBgkqhkiG9w0BAQsFADBgMQswCQYDVQQGEwJGUjES
MBAGA1UECAwJYm91cmdvZ25lMQ4wDAYDVQQHDAVkaWpvbjENMAsGA1UECgwEZW9s
ZTELMAkGA1UECwwCY2kxETAPBgNVBAMMCEFDRW9sZUNJMB4XDTE2MDMxNzE0MzU1
NVoXDTI0MDYwMzE0MzU1NVowJTEjMCEGA1UEAwwaZW9sZWNpdGVzdHNwZWRhZ28u
ZXRiMS5sYW4wgZ8wDQYJKoZIhvcNAQEBBQADgY0AMIGJAoGBAMCYv60BuMmXj7jB
DOX4/o+8P4BA+Fxjp+qXXYyLPT7O1LyRe19gbjiGjsC/glTVquwpaosdZIynv2JF
HyfGSzgU1Rvj4JpW2olU3r6nhGuz1Kipbd2aElZPjZkOuJvblMXPGyiOB2fLe6rz
D4B5wCKjrbC6iD6UW2QlHbuRQZrDAgMBAAGjfDB6MAkGA1UdEwQCMAAwHQYDVR0O
BBYEFI62KmstA/sZD40y8Z9srIWp/nT2MB8GA1UdIwQYMBaAFDjfRik4shOLpXyA
S16qJNsl3OzuMA4GA1UdDwEB/wQEAwIF4DAdBgNVHSUEFjAUBggrBgEFBQcDAgYI
KwYBBQUHAwQwDQYJKoZIhvcNAQELBQADgYEAWHvy0zFDpLvYk4r9nWY80zZi848a
SMSY5FuVEaHSLdRfvYn34DWfd6F7cEOWSkdym8JT33t04GCTkZ49WnWXPvYqkqgJ
y1ux4sRvw0gwENSCTWQnj6dMCm90TpF0rG0rSBij7lhmneV+x6d8pSqhjBlNLa+0
iwmWanYTqj11kCE=
-----END CERTIFICATE-----
