Certificate:
    Data:
        Version: 3 (0x2)
        Serial Number: 205 (0xcd)
    Signature Algorithm: sha256WithRSAEncryption
        Issuer: C=FR, ST=bourgogne, L=dijon, O=eole, OU=ci, CN=ACEoleCI
        Validity
            Not Before: Mar 17 14:36:22 2016 GMT
            Not After : Jun  3 14:36:22 2024 GMT
        Subject: CN=pceleve.etb6.lan
        Subject Public Key Info:
            Public Key Algorithm: rsaEncryption
                Public-Key: (1024 bit)
                Modulus:
                    00:c6:e7:93:ad:98:49:2f:2b:d1:d8:37:ec:75:3e:
                    0d:02:ec:60:f5:37:dd:5f:46:78:ae:49:58:37:fb:
                    d3:e1:a5:8d:9d:98:52:01:1b:54:6d:23:0c:2c:cc:
                    e3:69:2a:e6:7f:b4:64:c8:14:aa:2f:87:32:e2:bf:
                    30:b1:a1:44:5e:8c:77:03:b9:6d:5a:8c:d8:76:2a:
                    3a:b0:95:21:1f:54:db:70:17:61:e2:78:ee:7b:6b:
                    73:a6:93:25:31:d0:55:8d:6f:c9:47:34:0a:28:ef:
                    51:29:23:ce:60:e6:be:20:26:8b:18:81:7e:76:50:
                    35:fe:5b:1f:be:56:86:fb:b5
                Exponent: 65537 (0x10001)
        X509v3 extensions:
            X509v3 Basic Constraints: 
                CA:FALSE
            X509v3 Subject Key Identifier: 
                71:41:30:BC:B5:9E:2A:8F:62:88:84:19:B9:7B:3E:1B:EB:A0:84:A3
            X509v3 Authority Key Identifier: 
                keyid:38:DF:46:29:38:B2:13:8B:A5:7C:80:4B:5E:AA:24:DB:25:DC:EC:EE
                DirName:/C=FR/ST=bourgogne/L=dijon/O=eole/OU=ci/CN=ACEoleCI
                serial:81:5A:FE:E5:BA:70:38:01

            X509v3 Key Usage: critical
                Digital Signature, Key Encipherment
            X509v3 Extended Key Usage: 
                TLS Web Server Authentication
    Signature Algorithm: sha256WithRSAEncryption
         8b:31:ab:a9:ed:ac:c9:43:ef:74:79:13:c1:40:b0:28:cd:6a:
         2a:ee:ba:04:4b:af:1f:d2:2a:fb:db:7f:78:e9:73:5a:ee:91:
         67:12:d5:2a:c5:3c:0d:d9:c2:8a:6c:06:aa:27:be:94:fe:b9:
         37:07:66:87:e2:15:b2:64:19:be:a5:ba:6b:68:90:d1:ce:2c:
         d9:a0:85:d9:18:a3:6c:a1:38:04:fe:80:27:2f:0d:40:ec:bb:
         1f:0d:38:e2:2b:90:d9:bc:6b:55:69:46:5c:43:2f:35:db:8b:
         94:eb:7a:a1:f0:2b:c0:b3:59:f9:dc:a8:d8:fb:9e:23:10:9d:
         68:5a
-----BEGIN CERTIFICATE-----
MIIC2jCCAkOgAwIBAgICAM0wDQYJKoZIhvcNAQELBQAwYDELMAkGA1UEBhMCRlIx
EjAQBgNVBAgMCWJvdXJnb2duZTEOMAwGA1UEBwwFZGlqb24xDTALBgNVBAoMBGVv
bGUxCzAJBgNVBAsMAmNpMREwDwYDVQQDDAhBQ0VvbGVDSTAeFw0xNjAzMTcxNDM2
MjJaFw0yNDA2MDMxNDM2MjJaMBsxGTAXBgNVBAMMEHBjZWxldmUuZXRiNi5sYW4w
gZ8wDQYJKoZIhvcNAQEBBQADgY0AMIGJAoGBAMbnk62YSS8r0dg37HU+DQLsYPU3
3V9GeK5JWDf70+GljZ2YUgEbVG0jDCzM42kq5n+0ZMgUqi+HMuK/MLGhRF6MdwO5
bVqM2HYqOrCVIR9U23AXYeJ47ntrc6aTJTHQVY1vyUc0CijvUSkjzmDmviAmixiB
fnZQNf5bH75Whvu1AgMBAAGjgecwgeQwCQYDVR0TBAIwADAdBgNVHQ4EFgQUcUEw
vLWeKo9iiIQZuXs+G+ughKMwgZIGA1UdIwSBijCBh4AUON9GKTiyE4ulfIBLXqok
2yXc7O6hZKRiMGAxCzAJBgNVBAYTAkZSMRIwEAYDVQQIDAlib3VyZ29nbmUxDjAM
BgNVBAcMBWRpam9uMQ0wCwYDVQQKDARlb2xlMQswCQYDVQQLDAJjaTERMA8GA1UE
AwwIQUNFb2xlQ0mCCQCBWv7lunA4ATAOBgNVHQ8BAf8EBAMCBaAwEwYDVR0lBAww
CgYIKwYBBQUHAwEwDQYJKoZIhvcNAQELBQADgYEAizGrqe2syUPvdHkTwUCwKM1q
Ku66BEuvH9Iq+9t/eOlzWu6RZxLVKsU8DdnCimwGqie+lP65Nwdmh+IVsmQZvqW6
a2iQ0c4s2aCF2RijbKE4BP6AJy8NQOy7Hw044iuQ2bxrVWlGXEMvNduLlOt6ofAr
wLNZ+dyo2PueIxCdaFo=
-----END CERTIFICATE-----
