Certificate:
    Data:
        Version: 3 (0x2)
        Serial Number: 207 (0xcf)
    Signature Algorithm: sha256WithRSAEncryption
        Issuer: C=FR, ST=bourgogne, L=dijon, O=eole, OU=ci, CN=ACEoleCI
        Validity
            Not Before: Mar 17 14:36:22 2016 GMT
            Not After : Jun  3 14:36:22 2024 GMT
        Subject: CN=pceleve.etb6.lan
        Subject Public Key Info:
            Public Key Algorithm: rsaEncryption
                Public-Key: (1024 bit)
                Modulus:
                    00:c6:e7:93:ad:98:49:2f:2b:d1:d8:37:ec:75:3e:
                    0d:02:ec:60:f5:37:dd:5f:46:78:ae:49:58:37:fb:
                    d3:e1:a5:8d:9d:98:52:01:1b:54:6d:23:0c:2c:cc:
                    e3:69:2a:e6:7f:b4:64:c8:14:aa:2f:87:32:e2:bf:
                    30:b1:a1:44:5e:8c:77:03:b9:6d:5a:8c:d8:76:2a:
                    3a:b0:95:21:1f:54:db:70:17:61:e2:78:ee:7b:6b:
                    73:a6:93:25:31:d0:55:8d:6f:c9:47:34:0a:28:ef:
                    51:29:23:ce:60:e6:be:20:26:8b:18:81:7e:76:50:
                    35:fe:5b:1f:be:56:86:fb:b5
                Exponent: 65537 (0x10001)
        X509v3 extensions:
            X509v3 Basic Constraints: 
                CA:FALSE
            X509v3 Subject Key Identifier: 
                71:41:30:BC:B5:9E:2A:8F:62:88:84:19:B9:7B:3E:1B:EB:A0:84:A3
            X509v3 Authority Key Identifier: 
                keyid:38:DF:46:29:38:B2:13:8B:A5:7C:80:4B:5E:AA:24:DB:25:DC:EC:EE
                DirName:/C=FR/ST=bourgogne/L=dijon/O=eole/OU=ci/CN=ACEoleCI
                serial:81:5A:FE:E5:BA:70:38:01

            X509v3 Key Usage: critical
                Digital Signature, Key Encipherment
    Signature Algorithm: sha256WithRSAEncryption
         77:77:5f:b6:3e:3a:08:d4:b4:5a:a4:3e:bd:e3:61:4f:3d:7f:
         ec:75:a7:13:db:2e:0b:1a:ef:2f:97:52:9e:2d:8f:55:74:a0:
         16:60:ce:49:08:76:e1:ab:b4:35:bb:f0:b3:4b:1c:86:4b:eb:
         47:db:98:b7:6b:e4:bf:c5:67:33:b8:7c:9a:8b:f5:1b:07:ce:
         1d:ef:4c:2f:40:62:b9:68:16:99:2c:e5:5b:de:f1:16:67:88:
         1f:5c:71:28:5e:f7:03:27:d8:87:0d:b5:3c:62:12:0f:18:20:
         52:9d:55:dc:84:fe:6e:b6:2b:ad:3d:e4:13:b4:71:70:9d:63:
         8a:71
-----BEGIN CERTIFICATE-----
MIICxTCCAi6gAwIBAgICAM8wDQYJKoZIhvcNAQELBQAwYDELMAkGA1UEBhMCRlIx
EjAQBgNVBAgMCWJvdXJnb2duZTEOMAwGA1UEBwwFZGlqb24xDTALBgNVBAoMBGVv
bGUxCzAJBgNVBAsMAmNpMREwDwYDVQQDDAhBQ0VvbGVDSTAeFw0xNjAzMTcxNDM2
MjJaFw0yNDA2MDMxNDM2MjJaMBsxGTAXBgNVBAMMEHBjZWxldmUuZXRiNi5sYW4w
gZ8wDQYJKoZIhvcNAQEBBQADgY0AMIGJAoGBAMbnk62YSS8r0dg37HU+DQLsYPU3
3V9GeK5JWDf70+GljZ2YUgEbVG0jDCzM42kq5n+0ZMgUqi+HMuK/MLGhRF6MdwO5
bVqM2HYqOrCVIR9U23AXYeJ47ntrc6aTJTHQVY1vyUc0CijvUSkjzmDmviAmixiB
fnZQNf5bH75Whvu1AgMBAAGjgdIwgc8wCQYDVR0TBAIwADAdBgNVHQ4EFgQUcUEw
vLWeKo9iiIQZuXs+G+ughKMwgZIGA1UdIwSBijCBh4AUON9GKTiyE4ulfIBLXqok
2yXc7O6hZKRiMGAxCzAJBgNVBAYTAkZSMRIwEAYDVQQIDAlib3VyZ29nbmUxDjAM
BgNVBAcMBWRpam9uMQ0wCwYDVQQKDARlb2xlMQswCQYDVQQLDAJjaTERMA8GA1UE
AwwIQUNFb2xlQ0mCCQCBWv7lunA4ATAOBgNVHQ8BAf8EBAMCBaAwDQYJKoZIhvcN
AQELBQADgYEAd3dftj46CNS0WqQ+veNhTz1/7HWnE9suCxrvL5dSni2PVXSgFmDO
SQh24au0Nbvws0schkvrR9uYt2vkv8VnM7h8mov1GwfOHe9ML0BiuWgWmSzlW97x
FmeIH1xxKF73AyfYhw21PGISDxggUp1V3IT+brYrrT3kE7RxcJ1jinE=
-----END CERTIFICATE-----
