Certificate:
    Data:
        Version: 3 (0x2)
        Serial Number: 206 (0xce)
    Signature Algorithm: sha256WithRSAEncryption
        Issuer: C=FR, ST=bourgogne, L=dijon, O=eole, OU=ci, CN=ACEoleCI
        Validity
            Not Before: Mar 17 14:36:22 2016 GMT
            Not After : Jun  3 14:36:22 2024 GMT
        Subject: CN=pceleve.etb6.lan
        Subject Public Key Info:
            Public Key Algorithm: rsaEncryption
                Public-Key: (1024 bit)
                Modulus:
                    00:c6:e7:93:ad:98:49:2f:2b:d1:d8:37:ec:75:3e:
                    0d:02:ec:60:f5:37:dd:5f:46:78:ae:49:58:37:fb:
                    d3:e1:a5:8d:9d:98:52:01:1b:54:6d:23:0c:2c:cc:
                    e3:69:2a:e6:7f:b4:64:c8:14:aa:2f:87:32:e2:bf:
                    30:b1:a1:44:5e:8c:77:03:b9:6d:5a:8c:d8:76:2a:
                    3a:b0:95:21:1f:54:db:70:17:61:e2:78:ee:7b:6b:
                    73:a6:93:25:31:d0:55:8d:6f:c9:47:34:0a:28:ef:
                    51:29:23:ce:60:e6:be:20:26:8b:18:81:7e:76:50:
                    35:fe:5b:1f:be:56:86:fb:b5
                Exponent: 65537 (0x10001)
        X509v3 extensions:
            X509v3 Basic Constraints: 
                CA:FALSE
            X509v3 Subject Key Identifier: 
                71:41:30:BC:B5:9E:2A:8F:62:88:84:19:B9:7B:3E:1B:EB:A0:84:A3
            X509v3 Authority Key Identifier: 
                keyid:38:DF:46:29:38:B2:13:8B:A5:7C:80:4B:5E:AA:24:DB:25:DC:EC:EE

            X509v3 Key Usage: critical
                Digital Signature, Non Repudiation, Key Encipherment
            X509v3 Extended Key Usage: 
                TLS Web Client Authentication, E-mail Protection
    Signature Algorithm: sha256WithRSAEncryption
         31:be:60:bd:f2:f9:77:57:ed:50:ff:29:32:c4:8e:31:e1:0f:
         09:bb:92:bb:6e:68:32:1e:7c:a2:c4:dc:fe:87:a4:c3:d5:40:
         09:9c:53:92:bf:b1:de:ea:d9:aa:ec:20:41:f5:dd:54:ae:ba:
         34:b5:60:62:c4:c7:e8:1f:e1:7a:62:38:0d:96:85:3a:7d:c1:
         5b:4d:28:5b:33:e6:6a:6d:58:c7:78:99:58:4f:e0:83:53:42:
         3e:32:e9:d7:3c:4f:d9:c2:50:6a:e7:f7:98:67:63:ad:65:af:
         5a:bd:64:bc:94:94:52:de:66:ba:e5:a9:ce:0f:62:42:da:6d:
         bc:bb
-----BEGIN CERTIFICATE-----
MIICbjCCAdegAwIBAgICAM4wDQYJKoZIhvcNAQELBQAwYDELMAkGA1UEBhMCRlIx
EjAQBgNVBAgMCWJvdXJnb2duZTEOMAwGA1UEBwwFZGlqb24xDTALBgNVBAoMBGVv
bGUxCzAJBgNVBAsMAmNpMREwDwYDVQQDDAhBQ0VvbGVDSTAeFw0xNjAzMTcxNDM2
MjJaFw0yNDA2MDMxNDM2MjJaMBsxGTAXBgNVBAMMEHBjZWxldmUuZXRiNi5sYW4w
gZ8wDQYJKoZIhvcNAQEBBQADgY0AMIGJAoGBAMbnk62YSS8r0dg37HU+DQLsYPU3
3V9GeK5JWDf70+GljZ2YUgEbVG0jDCzM42kq5n+0ZMgUqi+HMuK/MLGhRF6MdwO5
bVqM2HYqOrCVIR9U23AXYeJ47ntrc6aTJTHQVY1vyUc0CijvUSkjzmDmviAmixiB
fnZQNf5bH75Whvu1AgMBAAGjfDB6MAkGA1UdEwQCMAAwHQYDVR0OBBYEFHFBMLy1
niqPYoiEGbl7PhvroISjMB8GA1UdIwQYMBaAFDjfRik4shOLpXyAS16qJNsl3Ozu
MA4GA1UdDwEB/wQEAwIF4DAdBgNVHSUEFjAUBggrBgEFBQcDAgYIKwYBBQUHAwQw
DQYJKoZIhvcNAQELBQADgYEAMb5gvfL5d1ftUP8pMsSOMeEPCbuSu25oMh58osTc
/oekw9VACZxTkr+x3urZquwgQfXdVK66NLVgYsTH6B/hemI4DZaFOn3BW00oWzPm
am1Yx3iZWE/gg1NCPjLp1zxP2cJQauf3mGdjrWWvWr1kvJSUUt5muuWpzg9iQtpt
vLs=
-----END CERTIFICATE-----
