-----BEGIN RSA PRIVATE KEY-----
MIICXwIBAAKBgQDPxFKnnpeCAkCtdyHfxQfKBWS2RgJ5J2lhgDwrzXqsKNAGF/vS
BgATd2w0eK0rkm9JvCD9UuYL3Lreil/XTgscIJyB0EU5Gs0OGJjrJVv3PST6NMPV
o8mz/RSDYXuOZQfn+ZHjcM8kSw9yhpSAiOlKagMYyaMe9So7VCO4i6dtdwIDAQAB
AoGBAMFLeUqQ9Yvy5JF+AHnbKT/+fJBH2g01aYlYcKKf7L02yzKgJZxkELYLqRO4
IgQjnH4RFPAZrATlOsXIHxqEdTfsTHmrn2bee+f0Wq0lVnIdiojVcjH99aUmGoXc
4CXNLeMSOAweX9GNjPatuR7cBvj20lxn9OV/OwMFqAU7KwDBAkEA8hk5kUMs8obU
dDSasvQ6U2YI7Bbpf2ZIVbIsxX0xDYXsbMMN4AUIi0knO+lJhXIQzwVnHkKvQALB
Ato9g5nZ7wJBANuybuPb9rPkloPiHcLAlWmIgFLS0DqXo382fN61yK/zCvNCOFda
LDgHtUVlagOPDWlMcnYuyRI1/uQo51wozPkCQQClYjoDU+KGozjLUYxEp7aYdmGt
9lD4aQUNFbSkDMvPsyc5fV4jJQ0bKZQVx14kPTHiWoyBDYjur3Lu4euX1SgdAkEA
znjrbooTWQ3Dxz6C6b1ErmHy9+PYfrh0l+IFiOkfKv0nlWbuvGmqlR3pZsbg02dm
G0gVaqydm9fTLWqjxSEzQQJBANeqB0nFFPf9yPq2PEursNTCU7CyPzX5mUMxvLXO
QXFANyLZv1+APK2MIlDJ8vnoQIvJOzjeslD+Cubh9iMHVt8=
-----END RSA PRIVATE KEY-----
Certificate:
    Data:
        Version: 3 (0x2)
        Serial Number: 143 (0x8f)
    Signature Algorithm: sha256WithRSAEncryption
        Issuer: C=FR, ST=bourgogne, L=dijon, O=eole, OU=ci, CN=ACEoleCI
        Validity
            Not Before: Mar 17 14:36:07 2016 GMT
            Not After : Jun  3 14:36:07 2024 GMT
        Subject: CN=eolecitestspedago.etb2.lan
        Subject Public Key Info:
            Public Key Algorithm: rsaEncryption
                Public-Key: (1024 bit)
                Modulus:
                    00:cf:c4:52:a7:9e:97:82:02:40:ad:77:21:df:c5:
                    07:ca:05:64:b6:46:02:79:27:69:61:80:3c:2b:cd:
                    7a:ac:28:d0:06:17:fb:d2:06:00:13:77:6c:34:78:
                    ad:2b:92:6f:49:bc:20:fd:52:e6:0b:dc:ba:de:8a:
                    5f:d7:4e:0b:1c:20:9c:81:d0:45:39:1a:cd:0e:18:
                    98:eb:25:5b:f7:3d:24:fa:34:c3:d5:a3:c9:b3:fd:
                    14:83:61:7b:8e:65:07:e7:f9:91:e3:70:cf:24:4b:
                    0f:72:86:94:80:88:e9:4a:6a:03:18:c9:a3:1e:f5:
                    2a:3b:54:23:b8:8b:a7:6d:77
                Exponent: 65537 (0x10001)
        X509v3 extensions:
            X509v3 Basic Constraints: 
                CA:FALSE
            X509v3 Subject Key Identifier: 
                BA:FE:94:64:54:D4:B9:B7:89:5B:89:71:8D:6B:0B:CA:24:64:DA:CE
            X509v3 Authority Key Identifier: 
                keyid:38:DF:46:29:38:B2:13:8B:A5:7C:80:4B:5E:AA:24:DB:25:DC:EC:EE

            X509v3 Key Usage: critical
                Digital Signature, Non Repudiation, Key Encipherment
            X509v3 Extended Key Usage: 
                TLS Web Client Authentication, E-mail Protection
    Signature Algorithm: sha256WithRSAEncryption
         93:16:ec:c7:d5:c7:1f:c3:60:88:8e:2f:89:0c:92:33:46:44:
         ac:79:48:b8:4f:d1:9b:7a:d8:dc:da:14:b2:dd:ba:7c:79:a7:
         37:45:f9:a3:25:0f:31:2a:a7:48:12:7f:f7:f6:97:26:c3:d2:
         02:85:6f:88:73:52:aa:b0:7c:9f:04:1b:0c:6f:87:bd:4f:4c:
         89:c7:09:c0:ea:f1:4b:ae:1c:75:06:36:5e:23:64:62:6e:c9:
         df:15:f1:cc:21:67:07:46:1b:e5:48:ae:e8:37:a3:2c:f5:d0:
         c4:41:46:15:c0:6e:ca:53:28:51:78:41:24:6a:9f:80:98:b3:
         65:c0
-----BEGIN CERTIFICATE-----
MIICeDCCAeGgAwIBAgICAI8wDQYJKoZIhvcNAQELBQAwYDELMAkGA1UEBhMCRlIx
EjAQBgNVBAgMCWJvdXJnb2duZTEOMAwGA1UEBwwFZGlqb24xDTALBgNVBAoMBGVv
bGUxCzAJBgNVBAsMAmNpMREwDwYDVQQDDAhBQ0VvbGVDSTAeFw0xNjAzMTcxNDM2
MDdaFw0yNDA2MDMxNDM2MDdaMCUxIzAhBgNVBAMMGmVvbGVjaXRlc3RzcGVkYWdv
LmV0YjIubGFuMIGfMA0GCSqGSIb3DQEBAQUAA4GNADCBiQKBgQDPxFKnnpeCAkCt
dyHfxQfKBWS2RgJ5J2lhgDwrzXqsKNAGF/vSBgATd2w0eK0rkm9JvCD9UuYL3Lre
il/XTgscIJyB0EU5Gs0OGJjrJVv3PST6NMPVo8mz/RSDYXuOZQfn+ZHjcM8kSw9y
hpSAiOlKagMYyaMe9So7VCO4i6dtdwIDAQABo3wwejAJBgNVHRMEAjAAMB0GA1Ud
DgQWBBS6/pRkVNS5t4lbiXGNawvKJGTazjAfBgNVHSMEGDAWgBQ430YpOLITi6V8
gEteqiTbJdzs7jAOBgNVHQ8BAf8EBAMCBeAwHQYDVR0lBBYwFAYIKwYBBQUHAwIG
CCsGAQUFBwMEMA0GCSqGSIb3DQEBCwUAA4GBAJMW7MfVxx/DYIiOL4kMkjNGRKx5
SLhP0Zt62NzaFLLdunx5pzdF+aMlDzEqp0gSf/f2lybD0gKFb4hzUqqwfJ8EGwxv
h71PTInHCcDq8UuuHHUGNl4jZGJuyd8V8cwhZwdGG+VIrug3oyz10MRBRhXAbspT
KFF4QSRqn4CYs2XA
-----END CERTIFICATE-----
