Certificate:
    Data:
        Version: 3 (0x2)
        Serial Number: 191 (0xbf)
    Signature Algorithm: sha256WithRSAEncryption
        Issuer: C=FR, ST=bourgogne, L=dijon, O=eole, OU=ci, CN=ACEoleCI
        Validity
            Not Before: Mar 17 14:36:18 2016 GMT
            Not After : Jun  3 14:36:18 2024 GMT
        Subject: CN=amonhorus.etb5.lan
        Subject Public Key Info:
            Public Key Algorithm: rsaEncryption
                Public-Key: (1024 bit)
                Modulus:
                    00:d9:d4:08:60:1d:f4:d0:18:8c:6b:b7:44:06:da:
                    60:5e:ae:6a:b3:3c:90:10:65:b0:27:d3:ee:9b:ba:
                    3f:92:7e:b6:87:d1:87:b0:05:02:c2:41:77:42:12:
                    54:d1:d1:a9:0b:f0:a7:18:cc:c1:ae:e6:fc:48:c0:
                    2a:33:ad:55:ef:72:11:dc:e8:7d:48:f6:46:e5:56:
                    b7:af:88:e4:d8:34:d2:4e:8c:24:65:ea:a5:66:05:
                    d9:d3:e7:3b:38:d7:e0:65:bf:87:25:1f:28:af:dc:
                    b1:21:01:77:e5:f3:bc:24:9d:a5:63:5d:7e:d7:ca:
                    46:e4:37:a4:df:4a:db:8e:1b
                Exponent: 65537 (0x10001)
        X509v3 extensions:
            X509v3 Basic Constraints: 
                CA:FALSE
            X509v3 Subject Key Identifier: 
                38:52:B7:AF:15:EA:3F:E2:3B:D9:E5:8F:2E:CD:00:23:EC:3A:DB:5A
            X509v3 Authority Key Identifier: 
                keyid:38:DF:46:29:38:B2:13:8B:A5:7C:80:4B:5E:AA:24:DB:25:DC:EC:EE

            X509v3 Key Usage: critical
                Digital Signature, Non Repudiation, Key Encipherment
            X509v3 Extended Key Usage: 
                TLS Web Client Authentication, E-mail Protection
    Signature Algorithm: sha256WithRSAEncryption
         71:5f:33:36:8d:26:a1:62:d8:49:20:ef:8a:97:5a:52:9c:91:
         37:fe:fa:bb:76:22:b2:8f:77:b1:32:3a:8c:35:a9:d9:69:05:
         05:15:65:55:ee:26:e4:05:62:32:c3:b0:47:2c:9b:fa:b8:33:
         a2:01:f3:5c:b3:e5:80:08:6b:b6:46:5e:1d:e8:5c:6d:0d:ec:
         7f:f1:7e:5c:3b:b9:63:0d:dc:7c:b0:97:d2:e1:ee:da:a3:60:
         dc:16:f9:34:2a:87:f3:8e:d9:a6:8a:a0:e5:05:77:91:ae:ad:
         92:4e:76:00:c4:b3:0c:92:24:d4:53:35:d3:6d:aa:43:ba:23:
         0b:18
-----BEGIN CERTIFICATE-----
MIICcDCCAdmgAwIBAgICAL8wDQYJKoZIhvcNAQELBQAwYDELMAkGA1UEBhMCRlIx
EjAQBgNVBAgMCWJvdXJnb2duZTEOMAwGA1UEBwwFZGlqb24xDTALBgNVBAoMBGVv
bGUxCzAJBgNVBAsMAmNpMREwDwYDVQQDDAhBQ0VvbGVDSTAeFw0xNjAzMTcxNDM2
MThaFw0yNDA2MDMxNDM2MThaMB0xGzAZBgNVBAMMEmFtb25ob3J1cy5ldGI1Lmxh
bjCBnzANBgkqhkiG9w0BAQEFAAOBjQAwgYkCgYEA2dQIYB300BiMa7dEBtpgXq5q
szyQEGWwJ9Pum7o/kn62h9GHsAUCwkF3QhJU0dGpC/CnGMzBrub8SMAqM61V73IR
3Oh9SPZG5Va3r4jk2DTSTowkZeqlZgXZ0+c7ONfgZb+HJR8or9yxIQF35fO8JJ2l
Y11+18pG5Dek30rbjhsCAwEAAaN8MHowCQYDVR0TBAIwADAdBgNVHQ4EFgQUOFK3
rxXqP+I72eWPLs0AI+w621owHwYDVR0jBBgwFoAUON9GKTiyE4ulfIBLXqok2yXc
7O4wDgYDVR0PAQH/BAQDAgXgMB0GA1UdJQQWMBQGCCsGAQUFBwMCBggrBgEFBQcD
BDANBgkqhkiG9w0BAQsFAAOBgQBxXzM2jSahYthJIO+Kl1pSnJE3/vq7diKyj3ex
MjqMNanZaQUFFWVV7ibkBWIyw7BHLJv6uDOiAfNcs+WACGu2Rl4d6FxtDex/8X5c
O7ljDdx8sJfS4e7ao2DcFvk0KofzjtmmiqDlBXeRrq2STnYAxLMMkiTUUzXTbapD
uiMLGA==
-----END CERTIFICATE-----
