-----BEGIN RSA PRIVATE KEY-----
MIICXQIBAAKBgQDZ1AhgHfTQGIxrt0QG2mBermqzPJAQZbAn0+6buj+SfraH0Yew
BQLCQXdCElTR0akL8KcYzMGu5vxIwCozrVXvchHc6H1I9kblVreviOTYNNJOjCRl
6qVmBdnT5zs41+Blv4clHyiv3LEhAXfl87wknaVjXX7XykbkN6TfStuOGwIDAQAB
AoGAGw4m7ClMWvxxlH9yx5cgGSJ4xkJjcmXu90Nvg5AijUOH0F7KB6bXrOEMuvwj
5Nuxr3X4izADboHqG+8iTsDcx2In1KxYcwkBm7VxBSBoAeFeeiBA+4+jkGz8ccdL
zIb6WwAeUcNdvlTeBWgQU+xKXjhJtZu3RTzVxEr6MRHq2KECQQDzOlG8k4Vci2E8
aqo14OFkUxb/w9R2z6e9VhMtMg3N4v/7d65b6pSe7wCSP1QtJUepk8gbF+Fico01
sIo/hFF/AkEA5URFONXIFV9IgQ4qpD7kR12E1BxD8Of7Z28I8XaeTxae7SevEUDS
EfgmB6JdzS9AgJaEEVApumJ07J3IBU4ZZQJATXVqKFr2oqVEnx/8+tGWFgQcE/HC
jN/OtI5f5wnEuaesC+JuZZlMIV1N2kVOwl3X95o3pOEzBs4iSFHjhRzXcwJBAMT9
1xiRn9y1RUAWYw9DNrQXJ8V1D++T9FEYd6+5wyajgiS1n1gMwTNNa6fNnBlsS1jx
e0LBBUmvxVV18OKWC30CQQDQRHTy+zGtnrIOpl74+0MDqFNqgYQt2kzrKViFCAI+
KcKny8Vt5HXh8cREljm/A5N0yjXIzKipfFu5ynPtSgY6
-----END RSA PRIVATE KEY-----
Certificate:
    Data:
        Version: 3 (0x2)
        Serial Number: 192 (0xc0)
    Signature Algorithm: sha256WithRSAEncryption
        Issuer: C=FR, ST=bourgogne, L=dijon, O=eole, OU=ci, CN=ACEoleCI
        Validity
            Not Before: Mar 17 14:36:18 2016 GMT
            Not After : Jun  3 14:36:18 2024 GMT
        Subject: CN=amonhorus.etb5.lan
        Subject Public Key Info:
            Public Key Algorithm: rsaEncryption
                Public-Key: (1024 bit)
                Modulus:
                    00:d9:d4:08:60:1d:f4:d0:18:8c:6b:b7:44:06:da:
                    60:5e:ae:6a:b3:3c:90:10:65:b0:27:d3:ee:9b:ba:
                    3f:92:7e:b6:87:d1:87:b0:05:02:c2:41:77:42:12:
                    54:d1:d1:a9:0b:f0:a7:18:cc:c1:ae:e6:fc:48:c0:
                    2a:33:ad:55:ef:72:11:dc:e8:7d:48:f6:46:e5:56:
                    b7:af:88:e4:d8:34:d2:4e:8c:24:65:ea:a5:66:05:
                    d9:d3:e7:3b:38:d7:e0:65:bf:87:25:1f:28:af:dc:
                    b1:21:01:77:e5:f3:bc:24:9d:a5:63:5d:7e:d7:ca:
                    46:e4:37:a4:df:4a:db:8e:1b
                Exponent: 65537 (0x10001)
        X509v3 extensions:
            X509v3 Basic Constraints: 
                CA:FALSE
            X509v3 Subject Key Identifier: 
                38:52:B7:AF:15:EA:3F:E2:3B:D9:E5:8F:2E:CD:00:23:EC:3A:DB:5A
            X509v3 Authority Key Identifier: 
                keyid:38:DF:46:29:38:B2:13:8B:A5:7C:80:4B:5E:AA:24:DB:25:DC:EC:EE
                DirName:/C=FR/ST=bourgogne/L=dijon/O=eole/OU=ci/CN=ACEoleCI
                serial:81:5A:FE:E5:BA:70:38:01

            X509v3 Key Usage: critical
                Digital Signature, Key Encipherment
    Signature Algorithm: sha256WithRSAEncryption
         35:cc:b8:eb:86:43:b1:fc:84:b6:1d:3b:87:5c:94:04:ee:82:
         95:74:d7:f4:8c:32:dc:cc:b6:b8:b8:29:7f:12:29:e1:bf:41:
         54:87:5f:23:e6:de:ed:0e:76:ba:79:cb:44:c3:a8:a5:ce:47:
         34:ba:40:e5:5f:a1:bf:8d:4c:09:d4:08:bc:04:89:a5:2f:7a:
         12:6d:92:c6:5b:f6:08:23:23:0e:d3:85:11:4b:a4:ad:0b:15:
         48:e2:7b:f6:bf:d1:f5:7f:ca:25:a6:89:39:e1:39:21:04:d6:
         9d:9e:eb:11:e6:6a:e6:04:5f:eb:74:3c:b1:3e:73:d0:56:de:
         b9:64
-----BEGIN CERTIFICATE-----
MIICxzCCAjCgAwIBAgICAMAwDQYJKoZIhvcNAQELBQAwYDELMAkGA1UEBhMCRlIx
EjAQBgNVBAgMCWJvdXJnb2duZTEOMAwGA1UEBwwFZGlqb24xDTALBgNVBAoMBGVv
bGUxCzAJBgNVBAsMAmNpMREwDwYDVQQDDAhBQ0VvbGVDSTAeFw0xNjAzMTcxNDM2
MThaFw0yNDA2MDMxNDM2MThaMB0xGzAZBgNVBAMMEmFtb25ob3J1cy5ldGI1Lmxh
bjCBnzANBgkqhkiG9w0BAQEFAAOBjQAwgYkCgYEA2dQIYB300BiMa7dEBtpgXq5q
szyQEGWwJ9Pum7o/kn62h9GHsAUCwkF3QhJU0dGpC/CnGMzBrub8SMAqM61V73IR
3Oh9SPZG5Va3r4jk2DTSTowkZeqlZgXZ0+c7ONfgZb+HJR8or9yxIQF35fO8JJ2l
Y11+18pG5Dek30rbjhsCAwEAAaOB0jCBzzAJBgNVHRMEAjAAMB0GA1UdDgQWBBQ4
UrevFeo/4jvZ5Y8uzQAj7DrbWjCBkgYDVR0jBIGKMIGHgBQ430YpOLITi6V8gEte
qiTbJdzs7qFkpGIwYDELMAkGA1UEBhMCRlIxEjAQBgNVBAgMCWJvdXJnb2duZTEO
MAwGA1UEBwwFZGlqb24xDTALBgNVBAoMBGVvbGUxCzAJBgNVBAsMAmNpMREwDwYD
VQQDDAhBQ0VvbGVDSYIJAIFa/uW6cDgBMA4GA1UdDwEB/wQEAwIFoDANBgkqhkiG
9w0BAQsFAAOBgQA1zLjrhkOx/IS2HTuHXJQE7oKVdNf0jDLczLa4uCl/Einhv0FU
h18j5t7tDna6ectEw6ilzkc0ukDlX6G/jUwJ1Ai8BImlL3oSbZLGW/YIIyMO04UR
S6StCxVI4nv2v9H1f8olpok54TkhBNadnusR5mrmBF/rdDyxPnPQVt65ZA==
-----END CERTIFICATE-----
