-----BEGIN RSA PRIVATE KEY-----
MIICWwIBAAKBgQCqIaNLsCE3W4SToN5yiow1U+3cSIrEZiQmUD965iVSgGhoiefr
/QSJxhn3N7rYA3VYkGwvtq61eQACWZXCjRtxIkXejDDI7nXyDjthET1fKifjHefr
6fIKeEMfmY3hhGp8nURArvJAWW786NOWAXhlhhy+IMWzFADk8k/b2PJgIQIDAQAB
AoGAS86lRop6ooIC9w0NUZhulSyKpkcknhKtNO04+/gk1TgmTb51OvAI36MH2uJY
PPx9gzMHIdOS0YXS/TkRxBjACtS+RahpDsLnNrO3g9pSkU9nNdPJWj37Su63rZU9
hWayYthO6NWh4zICXd8TdaWTuU/4hfv9H7VPaA6cV3V2xYECQQDfr3q6S9Bein2N
K4fnGXOnPUjJpibBiDVVQcvL5H270U0OTZdsqvjgf1tI/0mwlXV6jEH8VUd5eIE9
qeO27EDpAkEAwrWT47gg8O4onOuGCreoGNq+AAkM7SxfCLfBjVu69LsdwZ5fTL1E
8tRi02rZGOQ1tOZlsg+18KC2nokgderieQJACYvms/66VN6aPyUldrJ6Yh/WdGy3
6LiUdiAJv5jv2M00+bBMDyI43vPwhGwIzBWE3wcPZeKJ22BOO8B9bHgmyQJAJnce
r0cJ4u75wP5abbWYlMhp7rHbBuPUJnG+4AE2LvDkUQLLiup9O4evulqKZvt2jLVT
c9jctZvaV/l5GzJ66QJANEAQBSMMT1wtR/uAeXDUiZSLLWmjKHneF7M39EncsVXi
OvnnRjth1dvXg+a/q3iFJ8GMgzBhI2GZ+k77fI+F8A==
-----END RSA PRIVATE KEY-----
Certificate:
    Data:
        Version: 3 (0x2)
        Serial Number: 161 (0xa1)
    Signature Algorithm: sha256WithRSAEncryption
        Issuer: C=FR, ST=bourgogne, L=dijon, O=eole, OU=ci, CN=ACEoleCI
        Validity
            Not Before: Mar 17 14:36:11 2016 GMT
            Not After : Jun  3 14:36:11 2024 GMT
        Subject: CN=amonecole.etb3.lan
        Subject Public Key Info:
            Public Key Algorithm: rsaEncryption
                Public-Key: (1024 bit)
                Modulus:
                    00:aa:21:a3:4b:b0:21:37:5b:84:93:a0:de:72:8a:
                    8c:35:53:ed:dc:48:8a:c4:66:24:26:50:3f:7a:e6:
                    25:52:80:68:68:89:e7:eb:fd:04:89:c6:19:f7:37:
                    ba:d8:03:75:58:90:6c:2f:b6:ae:b5:79:00:02:59:
                    95:c2:8d:1b:71:22:45:de:8c:30:c8:ee:75:f2:0e:
                    3b:61:11:3d:5f:2a:27:e3:1d:e7:eb:e9:f2:0a:78:
                    43:1f:99:8d:e1:84:6a:7c:9d:44:40:ae:f2:40:59:
                    6e:fc:e8:d3:96:01:78:65:86:1c:be:20:c5:b3:14:
                    00:e4:f2:4f:db:d8:f2:60:21
                Exponent: 65537 (0x10001)
        X509v3 extensions:
            X509v3 Basic Constraints: 
                CA:FALSE
            X509v3 Subject Key Identifier: 
                85:BA:09:3D:5C:1F:CF:38:AE:09:DA:26:42:BF:B3:F8:15:29:BC:39
            X509v3 Authority Key Identifier: 
                keyid:38:DF:46:29:38:B2:13:8B:A5:7C:80:4B:5E:AA:24:DB:25:DC:EC:EE

            X509v3 Key Usage: critical
                Digital Signature, Non Repudiation, Key Encipherment
            X509v3 Extended Key Usage: 
                TLS Web Client Authentication, E-mail Protection
    Signature Algorithm: sha256WithRSAEncryption
         4a:69:d7:4c:a0:a7:4e:7c:d7:36:9b:24:8e:c9:c4:50:5f:ae:
         92:76:ea:ff:59:7b:96:54:57:04:10:2a:cb:42:f0:5d:52:11:
         b9:5d:d2:d0:c7:5c:1d:3a:45:8f:6b:cd:5a:3a:4d:a9:9e:2a:
         47:f8:2a:2d:d4:46:44:d2:f6:1a:a9:33:d1:6d:f4:dc:3a:69:
         02:7c:82:b3:79:f6:87:47:65:9a:3e:99:46:35:24:2c:94:e5:
         51:07:fd:ad:e7:ea:14:c9:60:2c:33:f1:30:23:4f:07:f1:22:
         86:0c:7d:58:f1:e3:c2:a7:50:4b:54:0d:33:76:8c:ab:f0:e9:
         ac:67
-----BEGIN CERTIFICATE-----
MIICcDCCAdmgAwIBAgICAKEwDQYJKoZIhvcNAQELBQAwYDELMAkGA1UEBhMCRlIx
EjAQBgNVBAgMCWJvdXJnb2duZTEOMAwGA1UEBwwFZGlqb24xDTALBgNVBAoMBGVv
bGUxCzAJBgNVBAsMAmNpMREwDwYDVQQDDAhBQ0VvbGVDSTAeFw0xNjAzMTcxNDM2
MTFaFw0yNDA2MDMxNDM2MTFaMB0xGzAZBgNVBAMMEmFtb25lY29sZS5ldGIzLmxh
bjCBnzANBgkqhkiG9w0BAQEFAAOBjQAwgYkCgYEAqiGjS7AhN1uEk6DecoqMNVPt
3EiKxGYkJlA/euYlUoBoaInn6/0EicYZ9ze62AN1WJBsL7autXkAAlmVwo0bcSJF
3owwyO518g47YRE9Xyon4x3n6+nyCnhDH5mN4YRqfJ1EQK7yQFlu/OjTlgF4ZYYc
viDFsxQA5PJP29jyYCECAwEAAaN8MHowCQYDVR0TBAIwADAdBgNVHQ4EFgQUhboJ
PVwfzziuCdomQr+z+BUpvDkwHwYDVR0jBBgwFoAUON9GKTiyE4ulfIBLXqok2yXc
7O4wDgYDVR0PAQH/BAQDAgXgMB0GA1UdJQQWMBQGCCsGAQUFBwMCBggrBgEFBQcD
BDANBgkqhkiG9w0BAQsFAAOBgQBKaddMoKdOfNc2mySOycRQX66Sdur/WXuWVFcE
ECrLQvBdUhG5XdLQx1wdOkWPa81aOk2pnipH+Cot1EZE0vYaqTPRbfTcOmkCfIKz
efaHR2WaPplGNSQslOVRB/2t5+oUyWAsM/EwI08H8SKGDH1Y8ePCp1BLVA0zdoyr
8OmsZw==
-----END CERTIFICATE-----
