Certificate:
    Data:
        Version: 3 (0x2)
        Serial Number: 160 (0xa0)
    Signature Algorithm: sha256WithRSAEncryption
        Issuer: C=FR, ST=bourgogne, L=dijon, O=eole, OU=ci, CN=ACEoleCI
        Validity
            Not Before: Mar 17 14:36:11 2016 GMT
            Not After : Jun  3 14:36:11 2024 GMT
        Subject: CN=amonecole.etb3.lan
        Subject Public Key Info:
            Public Key Algorithm: rsaEncryption
                Public-Key: (1024 bit)
                Modulus:
                    00:aa:21:a3:4b:b0:21:37:5b:84:93:a0:de:72:8a:
                    8c:35:53:ed:dc:48:8a:c4:66:24:26:50:3f:7a:e6:
                    25:52:80:68:68:89:e7:eb:fd:04:89:c6:19:f7:37:
                    ba:d8:03:75:58:90:6c:2f:b6:ae:b5:79:00:02:59:
                    95:c2:8d:1b:71:22:45:de:8c:30:c8:ee:75:f2:0e:
                    3b:61:11:3d:5f:2a:27:e3:1d:e7:eb:e9:f2:0a:78:
                    43:1f:99:8d:e1:84:6a:7c:9d:44:40:ae:f2:40:59:
                    6e:fc:e8:d3:96:01:78:65:86:1c:be:20:c5:b3:14:
                    00:e4:f2:4f:db:d8:f2:60:21
                Exponent: 65537 (0x10001)
        X509v3 extensions:
            X509v3 Basic Constraints: 
                CA:FALSE
            X509v3 Subject Key Identifier: 
                85:BA:09:3D:5C:1F:CF:38:AE:09:DA:26:42:BF:B3:F8:15:29:BC:39
            X509v3 Authority Key Identifier: 
                keyid:38:DF:46:29:38:B2:13:8B:A5:7C:80:4B:5E:AA:24:DB:25:DC:EC:EE
                DirName:/C=FR/ST=bourgogne/L=dijon/O=eole/OU=ci/CN=ACEoleCI
                serial:81:5A:FE:E5:BA:70:38:01

            X509v3 Key Usage: critical
                Digital Signature, Key Encipherment
            X509v3 Extended Key Usage: 
                TLS Web Server Authentication
    Signature Algorithm: sha256WithRSAEncryption
         85:2d:6a:de:7c:ee:53:b6:a1:99:86:b3:4c:e2:54:dd:d0:19:
         94:db:5a:70:7c:5c:99:16:45:30:a7:25:f5:db:0e:c1:66:8b:
         b1:56:cf:da:01:8c:c6:8f:8a:7f:a0:92:ca:e8:7e:79:fe:0f:
         3f:b9:7f:a3:18:a6:0d:75:a4:f2:3c:a3:54:be:70:f6:2f:0c:
         df:70:32:44:0f:28:99:6a:99:fd:71:d4:f8:1d:38:72:41:b8:
         97:83:9a:5b:5d:dc:c2:dc:61:99:27:84:3c:fc:76:9c:31:ac:
         d9:9b:da:67:a4:26:db:c2:79:99:cc:26:ae:7b:5a:cc:7f:72:
         80:93
-----BEGIN CERTIFICATE-----
MIIC3DCCAkWgAwIBAgICAKAwDQYJKoZIhvcNAQELBQAwYDELMAkGA1UEBhMCRlIx
EjAQBgNVBAgMCWJvdXJnb2duZTEOMAwGA1UEBwwFZGlqb24xDTALBgNVBAoMBGVv
bGUxCzAJBgNVBAsMAmNpMREwDwYDVQQDDAhBQ0VvbGVDSTAeFw0xNjAzMTcxNDM2
MTFaFw0yNDA2MDMxNDM2MTFaMB0xGzAZBgNVBAMMEmFtb25lY29sZS5ldGIzLmxh
bjCBnzANBgkqhkiG9w0BAQEFAAOBjQAwgYkCgYEAqiGjS7AhN1uEk6DecoqMNVPt
3EiKxGYkJlA/euYlUoBoaInn6/0EicYZ9ze62AN1WJBsL7autXkAAlmVwo0bcSJF
3owwyO518g47YRE9Xyon4x3n6+nyCnhDH5mN4YRqfJ1EQK7yQFlu/OjTlgF4ZYYc
viDFsxQA5PJP29jyYCECAwEAAaOB5zCB5DAJBgNVHRMEAjAAMB0GA1UdDgQWBBSF
ugk9XB/POK4J2iZCv7P4FSm8OTCBkgYDVR0jBIGKMIGHgBQ430YpOLITi6V8gEte
qiTbJdzs7qFkpGIwYDELMAkGA1UEBhMCRlIxEjAQBgNVBAgMCWJvdXJnb2duZTEO
MAwGA1UEBwwFZGlqb24xDTALBgNVBAoMBGVvbGUxCzAJBgNVBAsMAmNpMREwDwYD
VQQDDAhBQ0VvbGVDSYIJAIFa/uW6cDgBMA4GA1UdDwEB/wQEAwIFoDATBgNVHSUE
DDAKBggrBgEFBQcDATANBgkqhkiG9w0BAQsFAAOBgQCFLWrefO5TtqGZhrNM4lTd
0BmU21pwfFyZFkUwpyX12w7BZouxVs/aAYzGj4p/oJLK6H55/g8/uX+jGKYNdaTy
PKNUvnD2LwzfcDJEDyiZapn9cdT4HThyQbiXg5pbXdzC3GGZJ4Q8/HacMazZm9pn
pCbbwnmZzCaue1rMf3KAkw==
-----END CERTIFICATE-----
