-----BEGIN RSA PRIVATE KEY-----
MIICWwIBAAKBgQCqIaNLsCE3W4SToN5yiow1U+3cSIrEZiQmUD965iVSgGhoiefr
/QSJxhn3N7rYA3VYkGwvtq61eQACWZXCjRtxIkXejDDI7nXyDjthET1fKifjHefr
6fIKeEMfmY3hhGp8nURArvJAWW786NOWAXhlhhy+IMWzFADk8k/b2PJgIQIDAQAB
AoGAS86lRop6ooIC9w0NUZhulSyKpkcknhKtNO04+/gk1TgmTb51OvAI36MH2uJY
PPx9gzMHIdOS0YXS/TkRxBjACtS+RahpDsLnNrO3g9pSkU9nNdPJWj37Su63rZU9
hWayYthO6NWh4zICXd8TdaWTuU/4hfv9H7VPaA6cV3V2xYECQQDfr3q6S9Bein2N
K4fnGXOnPUjJpibBiDVVQcvL5H270U0OTZdsqvjgf1tI/0mwlXV6jEH8VUd5eIE9
qeO27EDpAkEAwrWT47gg8O4onOuGCreoGNq+AAkM7SxfCLfBjVu69LsdwZ5fTL1E
8tRi02rZGOQ1tOZlsg+18KC2nokgderieQJACYvms/66VN6aPyUldrJ6Yh/WdGy3
6LiUdiAJv5jv2M00+bBMDyI43vPwhGwIzBWE3wcPZeKJ22BOO8B9bHgmyQJAJnce
r0cJ4u75wP5abbWYlMhp7rHbBuPUJnG+4AE2LvDkUQLLiup9O4evulqKZvt2jLVT
c9jctZvaV/l5GzJ66QJANEAQBSMMT1wtR/uAeXDUiZSLLWmjKHneF7M39EncsVXi
OvnnRjth1dvXg+a/q3iFJ8GMgzBhI2GZ+k77fI+F8A==
-----END RSA PRIVATE KEY-----
Certificate:
    Data:
        Version: 3 (0x2)
        Serial Number: 162 (0xa2)
    Signature Algorithm: sha256WithRSAEncryption
        Issuer: C=FR, ST=bourgogne, L=dijon, O=eole, OU=ci, CN=ACEoleCI
        Validity
            Not Before: Mar 17 14:36:11 2016 GMT
            Not After : Jun  3 14:36:11 2024 GMT
        Subject: CN=amonecole.etb3.lan
        Subject Public Key Info:
            Public Key Algorithm: rsaEncryption
                Public-Key: (1024 bit)
                Modulus:
                    00:aa:21:a3:4b:b0:21:37:5b:84:93:a0:de:72:8a:
                    8c:35:53:ed:dc:48:8a:c4:66:24:26:50:3f:7a:e6:
                    25:52:80:68:68:89:e7:eb:fd:04:89:c6:19:f7:37:
                    ba:d8:03:75:58:90:6c:2f:b6:ae:b5:79:00:02:59:
                    95:c2:8d:1b:71:22:45:de:8c:30:c8:ee:75:f2:0e:
                    3b:61:11:3d:5f:2a:27:e3:1d:e7:eb:e9:f2:0a:78:
                    43:1f:99:8d:e1:84:6a:7c:9d:44:40:ae:f2:40:59:
                    6e:fc:e8:d3:96:01:78:65:86:1c:be:20:c5:b3:14:
                    00:e4:f2:4f:db:d8:f2:60:21
                Exponent: 65537 (0x10001)
        X509v3 extensions:
            X509v3 Basic Constraints: 
                CA:FALSE
            X509v3 Subject Key Identifier: 
                85:BA:09:3D:5C:1F:CF:38:AE:09:DA:26:42:BF:B3:F8:15:29:BC:39
            X509v3 Authority Key Identifier: 
                keyid:38:DF:46:29:38:B2:13:8B:A5:7C:80:4B:5E:AA:24:DB:25:DC:EC:EE
                DirName:/C=FR/ST=bourgogne/L=dijon/O=eole/OU=ci/CN=ACEoleCI
                serial:81:5A:FE:E5:BA:70:38:01

            X509v3 Key Usage: critical
                Digital Signature, Key Encipherment
    Signature Algorithm: sha256WithRSAEncryption
         26:7d:48:cb:a8:fd:15:e9:d9:a4:c1:d0:1d:5a:8e:6d:18:0f:
         b2:91:6c:48:2f:fe:ef:da:c8:e2:de:4b:41:3e:08:ef:38:c0:
         da:a9:36:b7:0b:c6:aa:46:f6:d9:f8:20:16:1e:95:3a:57:29:
         f0:6f:71:c4:ab:86:2d:f6:45:02:4f:e2:bb:74:06:09:cf:9b:
         67:cc:18:f3:82:b4:7b:14:6d:aa:a1:d3:06:95:a5:83:c0:40:
         17:a8:44:29:2a:79:f7:c5:ce:e6:b2:52:55:0e:ca:f1:98:83:
         07:cd:90:a1:1d:38:a3:7f:2a:69:91:75:1f:1c:ca:3e:11:1a:
         d7:fe
-----BEGIN CERTIFICATE-----
MIICxzCCAjCgAwIBAgICAKIwDQYJKoZIhvcNAQELBQAwYDELMAkGA1UEBhMCRlIx
EjAQBgNVBAgMCWJvdXJnb2duZTEOMAwGA1UEBwwFZGlqb24xDTALBgNVBAoMBGVv
bGUxCzAJBgNVBAsMAmNpMREwDwYDVQQDDAhBQ0VvbGVDSTAeFw0xNjAzMTcxNDM2
MTFaFw0yNDA2MDMxNDM2MTFaMB0xGzAZBgNVBAMMEmFtb25lY29sZS5ldGIzLmxh
bjCBnzANBgkqhkiG9w0BAQEFAAOBjQAwgYkCgYEAqiGjS7AhN1uEk6DecoqMNVPt
3EiKxGYkJlA/euYlUoBoaInn6/0EicYZ9ze62AN1WJBsL7autXkAAlmVwo0bcSJF
3owwyO518g47YRE9Xyon4x3n6+nyCnhDH5mN4YRqfJ1EQK7yQFlu/OjTlgF4ZYYc
viDFsxQA5PJP29jyYCECAwEAAaOB0jCBzzAJBgNVHRMEAjAAMB0GA1UdDgQWBBSF
ugk9XB/POK4J2iZCv7P4FSm8OTCBkgYDVR0jBIGKMIGHgBQ430YpOLITi6V8gEte
qiTbJdzs7qFkpGIwYDELMAkGA1UEBhMCRlIxEjAQBgNVBAgMCWJvdXJnb2duZTEO
MAwGA1UEBwwFZGlqb24xDTALBgNVBAoMBGVvbGUxCzAJBgNVBAsMAmNpMREwDwYD
VQQDDAhBQ0VvbGVDSYIJAIFa/uW6cDgBMA4GA1UdDwEB/wQEAwIFoDANBgkqhkiG
9w0BAQsFAAOBgQAmfUjLqP0V6dmkwdAdWo5tGA+ykWxIL/7v2sji3ktBPgjvOMDa
qTa3C8aqRvbZ+CAWHpU6Vynwb3HEq4Yt9kUCT+K7dAYJz5tnzBjzgrR7FG2qodMG
laWDwEAXqEQpKnn3xc7mslJVDsrxmIMHzZChHTijfyppkXUfHMo+ERrX/g==
-----END CERTIFICATE-----
