-----BEGIN RSA PRIVATE KEY-----
MIICXAIBAAKBgQDXsGHMkKr+HMsIEA2tfnGySH6JqvSmk+NmRPR+2MO4DGuwVeDn
9MCbfftMvJpwIphO9iDq4cgYnj0EEjqXHAJogGsBEaWs9yLacfHx7kVUNN4MU9EJ
4axa9JJNj1XmwZ5i3XQe1IB0K2zGPKEyJy3hvXjJuVgKlzQpOiZb65+BAwIDAQAB
AoGATGBqEU09L6S0hJNitIfs7Ovc2xUNcxs1UBak2XIaxEapr5SJgrnZpnYTEdZL
fd/SPUvM1j/DYmxOQO3Pj4jclMxNaS94G3MSCKrzm4MCoWGycJy2bXIxAHlovVbX
BmgW+Ij3//X8u8YuUa77z5bGDgtVVRto3ZQgN3BXhako1QkCQQDuL1qIzeiBBnzT
UZ4mkt+Q3WkHbFA/9+MNPqL9llM+5Jg2v/E6KiftGyJ2k/SbUr3WWHRULO8QEUQB
ySIn8fd3AkEA59JJXeJhWwNRHEd0hlX/y4dyOutvkpwBRSImdC5LDofKoTn5zPwI
U1ffs9sbyNcVMauyQh9qJaJaqaeQhyT91QJAaROa7R9powIpr1AiZQIGfvIuk4fF
H3NMR1uKrDTVJLnULNMgqHhQhNmjqow7LQqjlRwQtdHc5Um4ptEEsHqeoQJACg9a
F7TnPKfcMTn4mIvK2e46ysvEv7v9Yh6lRI1tvGewJ2b4rCiTw+ogTxHHFuQei1VE
GxJ57MAq5wnaf8LfMQJBAKICgLzAqjUDiSBP0Q9w61ThAvcCpRRDV7V8XjiSOkDA
VICSyWjCKeQxEBpobvymCxf8XQpYEuarq2vPR4j6q68=
-----END RSA PRIVATE KEY-----
Certificate:
    Data:
        Version: 3 (0x2)
        Serial Number: 36 (0x24)
    Signature Algorithm: sha256WithRSAEncryption
        Issuer: C=FR, ST=bourgogne, L=dijon, O=eole, OU=ci, CN=ACEoleCI
        Validity
            Not Before: Mar 17 14:35:38 2016 GMT
            Not After : Jun  3 14:35:38 2024 GMT
        Subject: CN=hapy-market.ac-test.lan
        Subject Public Key Info:
            Public Key Algorithm: rsaEncryption
                Public-Key: (1024 bit)
                Modulus:
                    00:d7:b0:61:cc:90:aa:fe:1c:cb:08:10:0d:ad:7e:
                    71:b2:48:7e:89:aa:f4:a6:93:e3:66:44:f4:7e:d8:
                    c3:b8:0c:6b:b0:55:e0:e7:f4:c0:9b:7d:fb:4c:bc:
                    9a:70:22:98:4e:f6:20:ea:e1:c8:18:9e:3d:04:12:
                    3a:97:1c:02:68:80:6b:01:11:a5:ac:f7:22:da:71:
                    f1:f1:ee:45:54:34:de:0c:53:d1:09:e1:ac:5a:f4:
                    92:4d:8f:55:e6:c1:9e:62:dd:74:1e:d4:80:74:2b:
                    6c:c6:3c:a1:32:27:2d:e1:bd:78:c9:b9:58:0a:97:
                    34:29:3a:26:5b:eb:9f:81:03
                Exponent: 65537 (0x10001)
        X509v3 extensions:
            X509v3 Basic Constraints: 
                CA:FALSE
            X509v3 Subject Key Identifier: 
                D1:C6:06:2C:03:0E:12:29:76:6A:72:30:D3:F7:12:C7:C4:CA:40:92
            X509v3 Authority Key Identifier: 
                keyid:38:DF:46:29:38:B2:13:8B:A5:7C:80:4B:5E:AA:24:DB:25:DC:EC:EE
                DirName:/C=FR/ST=bourgogne/L=dijon/O=eole/OU=ci/CN=ACEoleCI
                serial:81:5A:FE:E5:BA:70:38:01

            X509v3 Key Usage: critical
                Digital Signature, Key Encipherment
    Signature Algorithm: sha256WithRSAEncryption
         4f:d6:ef:bd:e5:1f:d9:18:31:cf:38:86:71:bf:7e:fd:f3:a2:
         4a:17:3c:4b:9f:ef:b7:4d:54:b6:c7:81:45:3a:bf:d6:20:37:
         d8:fd:f6:b0:1f:5c:9f:0b:4d:b3:4b:c8:47:58:4d:c5:9c:08:
         ed:a1:5e:33:7c:66:08:ab:c0:03:0a:06:db:88:a6:ed:4e:b6:
         91:80:d3:22:23:1a:8f:e1:18:97:6a:34:83:3d:1e:6d:b4:5b:
         18:3e:f7:ac:0f:6d:65:c2:1e:af:13:39:4a:10:ad:21:de:d9:
         a3:28:a4:70:ce:ba:ec:65:2a:c4:7d:33:7b:bf:6c:cf:85:63:
         df:5e
-----BEGIN CERTIFICATE-----
MIICyzCCAjSgAwIBAgIBJDANBgkqhkiG9w0BAQsFADBgMQswCQYDVQQGEwJGUjES
MBAGA1UECAwJYm91cmdvZ25lMQ4wDAYDVQQHDAVkaWpvbjENMAsGA1UECgwEZW9s
ZTELMAkGA1UECwwCY2kxETAPBgNVBAMMCEFDRW9sZUNJMB4XDTE2MDMxNzE0MzUz
OFoXDTI0MDYwMzE0MzUzOFowIjEgMB4GA1UEAwwXaGFweS1tYXJrZXQuYWMtdGVz
dC5sYW4wgZ8wDQYJKoZIhvcNAQEBBQADgY0AMIGJAoGBANewYcyQqv4cywgQDa1+
cbJIfomq9KaT42ZE9H7Yw7gMa7BV4Of0wJt9+0y8mnAimE72IOrhyBiePQQSOpcc
AmiAawERpaz3Itpx8fHuRVQ03gxT0QnhrFr0kk2PVebBnmLddB7UgHQrbMY8oTIn
LeG9eMm5WAqXNCk6Jlvrn4EDAgMBAAGjgdIwgc8wCQYDVR0TBAIwADAdBgNVHQ4E
FgQU0cYGLAMOEil2anIw0/cSx8TKQJIwgZIGA1UdIwSBijCBh4AUON9GKTiyE4ul
fIBLXqok2yXc7O6hZKRiMGAxCzAJBgNVBAYTAkZSMRIwEAYDVQQIDAlib3VyZ29n
bmUxDjAMBgNVBAcMBWRpam9uMQ0wCwYDVQQKDARlb2xlMQswCQYDVQQLDAJjaTER
MA8GA1UEAwwIQUNFb2xlQ0mCCQCBWv7lunA4ATAOBgNVHQ8BAf8EBAMCBaAwDQYJ
KoZIhvcNAQELBQADgYEAT9bvveUf2RgxzziGcb9+/fOiShc8S5/vt01UtseBRTq/
1iA32P32sB9cnwtNs0vIR1hNxZwI7aFeM3xmCKvAAwoG24im7U62kYDTIiMaj+EY
l2o0gz0ebbRbGD73rA9tZcIerxM5ShCtId7ZoyikcM667GUqxH0ze79sz4Vj314=
-----END CERTIFICATE-----
