Certificate:
    Data:
        Version: 3 (0x2)
        Serial Number: 34 (0x22)
    Signature Algorithm: sha256WithRSAEncryption
        Issuer: C=FR, ST=bourgogne, L=dijon, O=eole, OU=ci, CN=ACEoleCI
        Validity
            Not Before: Mar 17 14:35:37 2016 GMT
            Not After : Jun  3 14:35:37 2024 GMT
        Subject: CN=hapy-market.ac-test.lan
        Subject Public Key Info:
            Public Key Algorithm: rsaEncryption
                Public-Key: (1024 bit)
                Modulus:
                    00:d7:b0:61:cc:90:aa:fe:1c:cb:08:10:0d:ad:7e:
                    71:b2:48:7e:89:aa:f4:a6:93:e3:66:44:f4:7e:d8:
                    c3:b8:0c:6b:b0:55:e0:e7:f4:c0:9b:7d:fb:4c:bc:
                    9a:70:22:98:4e:f6:20:ea:e1:c8:18:9e:3d:04:12:
                    3a:97:1c:02:68:80:6b:01:11:a5:ac:f7:22:da:71:
                    f1:f1:ee:45:54:34:de:0c:53:d1:09:e1:ac:5a:f4:
                    92:4d:8f:55:e6:c1:9e:62:dd:74:1e:d4:80:74:2b:
                    6c:c6:3c:a1:32:27:2d:e1:bd:78:c9:b9:58:0a:97:
                    34:29:3a:26:5b:eb:9f:81:03
                Exponent: 65537 (0x10001)
        X509v3 extensions:
            X509v3 Basic Constraints: 
                CA:FALSE
            X509v3 Subject Key Identifier: 
                D1:C6:06:2C:03:0E:12:29:76:6A:72:30:D3:F7:12:C7:C4:CA:40:92
            X509v3 Authority Key Identifier: 
                keyid:38:DF:46:29:38:B2:13:8B:A5:7C:80:4B:5E:AA:24:DB:25:DC:EC:EE
                DirName:/C=FR/ST=bourgogne/L=dijon/O=eole/OU=ci/CN=ACEoleCI
                serial:81:5A:FE:E5:BA:70:38:01

            X509v3 Key Usage: critical
                Digital Signature, Key Encipherment
            X509v3 Extended Key Usage: 
                TLS Web Server Authentication
    Signature Algorithm: sha256WithRSAEncryption
         3f:95:5c:61:0f:61:be:bc:8a:53:af:11:56:21:97:d5:95:dd:
         77:5c:a7:3f:a0:9d:77:85:d9:6b:db:9f:1f:f5:d9:36:f2:ab:
         f1:4c:75:0e:67:e0:bb:f2:74:b1:96:5c:24:f5:39:d2:0d:61:
         2a:c8:13:28:57:c9:b9:06:57:c9:81:47:ed:4e:bd:c5:05:e3:
         9d:ab:7c:86:cd:70:8b:e4:0b:43:1c:63:f9:81:37:5f:89:a8:
         0a:14:14:4a:4e:d5:8c:19:26:32:f3:5a:a0:c5:af:cc:a9:c0:
         09:40:ca:e1:41:0b:16:ee:2c:64:1c:63:89:3f:d1:1e:96:9a:
         d6:64
-----BEGIN CERTIFICATE-----
MIIC4DCCAkmgAwIBAgIBIjANBgkqhkiG9w0BAQsFADBgMQswCQYDVQQGEwJGUjES
MBAGA1UECAwJYm91cmdvZ25lMQ4wDAYDVQQHDAVkaWpvbjENMAsGA1UECgwEZW9s
ZTELMAkGA1UECwwCY2kxETAPBgNVBAMMCEFDRW9sZUNJMB4XDTE2MDMxNzE0MzUz
N1oXDTI0MDYwMzE0MzUzN1owIjEgMB4GA1UEAwwXaGFweS1tYXJrZXQuYWMtdGVz
dC5sYW4wgZ8wDQYJKoZIhvcNAQEBBQADgY0AMIGJAoGBANewYcyQqv4cywgQDa1+
cbJIfomq9KaT42ZE9H7Yw7gMa7BV4Of0wJt9+0y8mnAimE72IOrhyBiePQQSOpcc
AmiAawERpaz3Itpx8fHuRVQ03gxT0QnhrFr0kk2PVebBnmLddB7UgHQrbMY8oTIn
LeG9eMm5WAqXNCk6Jlvrn4EDAgMBAAGjgecwgeQwCQYDVR0TBAIwADAdBgNVHQ4E
FgQU0cYGLAMOEil2anIw0/cSx8TKQJIwgZIGA1UdIwSBijCBh4AUON9GKTiyE4ul
fIBLXqok2yXc7O6hZKRiMGAxCzAJBgNVBAYTAkZSMRIwEAYDVQQIDAlib3VyZ29n
bmUxDjAMBgNVBAcMBWRpam9uMQ0wCwYDVQQKDARlb2xlMQswCQYDVQQLDAJjaTER
MA8GA1UEAwwIQUNFb2xlQ0mCCQCBWv7lunA4ATAOBgNVHQ8BAf8EBAMCBaAwEwYD
VR0lBAwwCgYIKwYBBQUHAwEwDQYJKoZIhvcNAQELBQADgYEAP5VcYQ9hvryKU68R
ViGX1ZXdd1ynP6Cdd4XZa9ufH/XZNvKr8Ux1Dmfgu/J0sZZcJPU50g1hKsgTKFfJ
uQZXyYFH7U69xQXjnat8hs1wi+QLQxxj+YE3X4moChQUSk7VjBkmMvNaoMWvzKnA
CUDK4UELFu4sZBxjiT/RHpaa1mQ=
-----END CERTIFICATE-----
