Certificate:
    Data:
        Version: 3 (0x2)
        Serial Number: 16 (0x10)
    Signature Algorithm: sha256WithRSAEncryption
        Issuer: C=FR, ST=bourgogne, L=dijon, O=eole, OU=ci, CN=ACEoleCI
        Validity
            Not Before: Mar 17 14:35:33 2016 GMT
            Not After : Jun  3 14:35:33 2024 GMT
        Subject: CN=eolebasedhcp.ac-test.lan
        Subject Public Key Info:
            Public Key Algorithm: rsaEncryption
                Public-Key: (1024 bit)
                Modulus:
                    00:c2:d2:ee:1a:4d:ec:ad:9f:e6:ac:9f:f7:c4:98:
                    d9:d7:bc:c2:35:cb:2d:2d:35:38:17:72:c8:96:4f:
                    95:98:a2:18:96:53:3d:99:51:c3:59:84:1d:05:c7:
                    51:c8:f0:57:ff:cb:db:3e:2f:1e:16:ef:58:9a:ae:
                    31:fb:d0:8d:dc:37:47:ae:04:56:1c:cf:ab:2d:c7:
                    77:d2:e7:54:8a:fe:3d:09:fe:50:50:98:44:c1:a9:
                    86:15:61:7a:32:c9:e5:84:09:d0:67:ac:71:46:f7:
                    2d:da:18:53:d6:58:aa:50:d2:9b:75:56:e2:df:be:
                    c9:3f:a1:fb:48:65:66:58:bf
                Exponent: 65537 (0x10001)
        X509v3 extensions:
            X509v3 Basic Constraints: 
                CA:FALSE
            X509v3 Subject Key Identifier: 
                AA:D0:60:FC:06:29:9B:EC:BB:B6:B3:4E:44:25:2C:D8:A2:03:3F:74
            X509v3 Authority Key Identifier: 
                keyid:38:DF:46:29:38:B2:13:8B:A5:7C:80:4B:5E:AA:24:DB:25:DC:EC:EE
                DirName:/C=FR/ST=bourgogne/L=dijon/O=eole/OU=ci/CN=ACEoleCI
                serial:81:5A:FE:E5:BA:70:38:01

            X509v3 Key Usage: critical
                Digital Signature, Key Encipherment
            X509v3 Extended Key Usage: 
                TLS Web Server Authentication
    Signature Algorithm: sha256WithRSAEncryption
         19:bd:61:3e:4b:00:03:2c:60:73:6f:0f:76:36:03:cb:2c:2b:
         2c:a7:6d:36:cd:0e:f7:73:89:2e:f4:4d:b4:20:03:16:64:e9:
         6e:37:61:11:21:fa:17:45:ce:73:b3:b4:82:d6:20:8c:0d:e1:
         7c:91:01:00:da:93:78:e8:a6:69:47:2d:82:cb:56:0c:3e:0d:
         bc:16:d2:c9:b2:b3:a7:ad:c5:c3:5f:07:ad:b5:12:1f:af:22:
         52:3c:26:12:7c:09:7f:83:7f:21:dc:d1:f7:8a:57:49:05:60:
         eb:7a:6d:a2:41:22:9d:16:b6:f3:58:3f:99:af:17:26:1a:84:
         cb:c5
-----BEGIN CERTIFICATE-----
MIIC4TCCAkqgAwIBAgIBEDANBgkqhkiG9w0BAQsFADBgMQswCQYDVQQGEwJGUjES
MBAGA1UECAwJYm91cmdvZ25lMQ4wDAYDVQQHDAVkaWpvbjENMAsGA1UECgwEZW9s
ZTELMAkGA1UECwwCY2kxETAPBgNVBAMMCEFDRW9sZUNJMB4XDTE2MDMxNzE0MzUz
M1oXDTI0MDYwMzE0MzUzM1owIzEhMB8GA1UEAwwYZW9sZWJhc2VkaGNwLmFjLXRl
c3QubGFuMIGfMA0GCSqGSIb3DQEBAQUAA4GNADCBiQKBgQDC0u4aTeytn+asn/fE
mNnXvMI1yy0tNTgXcsiWT5WYohiWUz2ZUcNZhB0Fx1HI8Ff/y9s+Lx4W71iarjH7
0I3cN0euBFYcz6stx3fS51SK/j0J/lBQmETBqYYVYXoyyeWECdBnrHFG9y3aGFPW
WKpQ0pt1VuLfvsk/oftIZWZYvwIDAQABo4HnMIHkMAkGA1UdEwQCMAAwHQYDVR0O
BBYEFKrQYPwGKZvsu7azTkQlLNiiAz90MIGSBgNVHSMEgYowgYeAFDjfRik4shOL
pXyAS16qJNsl3OzuoWSkYjBgMQswCQYDVQQGEwJGUjESMBAGA1UECAwJYm91cmdv
Z25lMQ4wDAYDVQQHDAVkaWpvbjENMAsGA1UECgwEZW9sZTELMAkGA1UECwwCY2kx
ETAPBgNVBAMMCEFDRW9sZUNJggkAgVr+5bpwOAEwDgYDVR0PAQH/BAQDAgWgMBMG
A1UdJQQMMAoGCCsGAQUFBwMBMA0GCSqGSIb3DQEBCwUAA4GBABm9YT5LAAMsYHNv
D3Y2A8ssKyynbTbNDvdziS70TbQgAxZk6W43YREh+hdFznOztILWIIwN4XyRAQDa
k3jopmlHLYLLVgw+DbwW0smys6etxcNfB621Eh+vIlI8JhJ8CX+DfyHc0feKV0kF
YOt6baJBIp0WtvNYP5mvFyYahMvF
-----END CERTIFICATE-----
