Certificate:
    Data:
        Version: 3 (0x2)
        Serial Number: 18 (0x12)
    Signature Algorithm: sha256WithRSAEncryption
        Issuer: C=FR, ST=bourgogne, L=dijon, O=eole, OU=ci, CN=ACEoleCI
        Validity
            Not Before: Mar 17 14:35:33 2016 GMT
            Not After : Jun  3 14:35:33 2024 GMT
        Subject: CN=eolebasedhcp.ac-test.lan
        Subject Public Key Info:
            Public Key Algorithm: rsaEncryption
                Public-Key: (1024 bit)
                Modulus:
                    00:c2:d2:ee:1a:4d:ec:ad:9f:e6:ac:9f:f7:c4:98:
                    d9:d7:bc:c2:35:cb:2d:2d:35:38:17:72:c8:96:4f:
                    95:98:a2:18:96:53:3d:99:51:c3:59:84:1d:05:c7:
                    51:c8:f0:57:ff:cb:db:3e:2f:1e:16:ef:58:9a:ae:
                    31:fb:d0:8d:dc:37:47:ae:04:56:1c:cf:ab:2d:c7:
                    77:d2:e7:54:8a:fe:3d:09:fe:50:50:98:44:c1:a9:
                    86:15:61:7a:32:c9:e5:84:09:d0:67:ac:71:46:f7:
                    2d:da:18:53:d6:58:aa:50:d2:9b:75:56:e2:df:be:
                    c9:3f:a1:fb:48:65:66:58:bf
                Exponent: 65537 (0x10001)
        X509v3 extensions:
            X509v3 Basic Constraints: 
                CA:FALSE
            X509v3 Subject Key Identifier: 
                AA:D0:60:FC:06:29:9B:EC:BB:B6:B3:4E:44:25:2C:D8:A2:03:3F:74
            X509v3 Authority Key Identifier: 
                keyid:38:DF:46:29:38:B2:13:8B:A5:7C:80:4B:5E:AA:24:DB:25:DC:EC:EE
                DirName:/C=FR/ST=bourgogne/L=dijon/O=eole/OU=ci/CN=ACEoleCI
                serial:81:5A:FE:E5:BA:70:38:01

            X509v3 Key Usage: critical
                Digital Signature, Key Encipherment
    Signature Algorithm: sha256WithRSAEncryption
         56:10:b7:cc:6e:87:b9:0d:dd:a1:e4:b4:47:38:98:94:2c:2b:
         7d:88:aa:bc:d0:85:91:20:55:e0:12:79:69:ac:af:00:84:1c:
         86:dd:b1:fe:a1:3b:da:5c:07:c6:9e:7e:42:c7:fc:cf:60:d9:
         00:a5:73:73:1a:ed:ac:8b:f8:f4:b0:fe:3b:d3:83:10:63:1d:
         72:5e:c5:d6:00:96:20:61:e2:61:8b:4e:a0:54:a5:ca:1f:61:
         d1:5e:6a:15:5f:ae:9f:54:00:87:ff:e4:eb:e6:6a:51:8a:eb:
         e8:32:ce:a2:20:20:1f:5f:05:35:aa:3d:b6:bd:8d:f7:72:a7:
         e9:92
-----BEGIN CERTIFICATE-----
MIICzDCCAjWgAwIBAgIBEjANBgkqhkiG9w0BAQsFADBgMQswCQYDVQQGEwJGUjES
MBAGA1UECAwJYm91cmdvZ25lMQ4wDAYDVQQHDAVkaWpvbjENMAsGA1UECgwEZW9s
ZTELMAkGA1UECwwCY2kxETAPBgNVBAMMCEFDRW9sZUNJMB4XDTE2MDMxNzE0MzUz
M1oXDTI0MDYwMzE0MzUzM1owIzEhMB8GA1UEAwwYZW9sZWJhc2VkaGNwLmFjLXRl
c3QubGFuMIGfMA0GCSqGSIb3DQEBAQUAA4GNADCBiQKBgQDC0u4aTeytn+asn/fE
mNnXvMI1yy0tNTgXcsiWT5WYohiWUz2ZUcNZhB0Fx1HI8Ff/y9s+Lx4W71iarjH7
0I3cN0euBFYcz6stx3fS51SK/j0J/lBQmETBqYYVYXoyyeWECdBnrHFG9y3aGFPW
WKpQ0pt1VuLfvsk/oftIZWZYvwIDAQABo4HSMIHPMAkGA1UdEwQCMAAwHQYDVR0O
BBYEFKrQYPwGKZvsu7azTkQlLNiiAz90MIGSBgNVHSMEgYowgYeAFDjfRik4shOL
pXyAS16qJNsl3OzuoWSkYjBgMQswCQYDVQQGEwJGUjESMBAGA1UECAwJYm91cmdv
Z25lMQ4wDAYDVQQHDAVkaWpvbjENMAsGA1UECgwEZW9sZTELMAkGA1UECwwCY2kx
ETAPBgNVBAMMCEFDRW9sZUNJggkAgVr+5bpwOAEwDgYDVR0PAQH/BAQDAgWgMA0G
CSqGSIb3DQEBCwUAA4GBAFYQt8xuh7kN3aHktEc4mJQsK32IqrzQhZEgVeASeWms
rwCEHIbdsf6hO9pcB8aefkLH/M9g2QClc3Ma7ayL+PSw/jvTgxBjHXJexdYAliBh
4mGLTqBUpcofYdFeahVfrp9UAIf/5OvmalGK6+gyzqIgIB9fBTWqPba9jfdyp+mS
-----END CERTIFICATE-----
