Certificate:
    Data:
        Version: 3 (0x2)
        Serial Number: 115 (0x73)
    Signature Algorithm: sha256WithRSAEncryption
        Issuer: C=FR, ST=bourgogne, L=dijon, O=eole, OU=ci, CN=ACEoleCI
        Validity
            Not Before: Mar 17 14:36:00 2016 GMT
            Not After : Jun  3 14:36:00 2024 GMT
        Subject: CN=scribe.etb1.lan
        Subject Public Key Info:
            Public Key Algorithm: rsaEncryption
                Public-Key: (1024 bit)
                Modulus:
                    00:b0:23:fe:d0:49:e1:9b:4c:b1:c6:c5:03:17:ce:
                    0c:00:49:65:9f:04:de:63:2f:79:03:d8:00:7d:2f:
                    a2:0d:33:17:e7:d7:c1:f2:3c:d9:8a:0c:cb:97:43:
                    54:79:33:0e:c1:33:de:db:04:dd:b0:e0:5d:cd:92:
                    48:ce:17:81:46:54:4a:56:54:e8:0f:7a:6c:3e:51:
                    a8:a8:42:45:55:7e:b0:ee:cd:5a:59:11:25:4c:85:
                    5b:7d:ea:73:bd:72:c9:b3:ee:ed:b0:23:45:e1:65:
                    94:de:85:b8:30:c9:ae:60:d7:6c:68:ba:6c:27:66:
                    df:8f:a5:47:99:74:51:01:5d
                Exponent: 65537 (0x10001)
        X509v3 extensions:
            X509v3 Basic Constraints: 
                CA:FALSE
            X509v3 Subject Key Identifier: 
                2F:4A:DB:FD:BB:FB:07:D7:78:A2:90:2C:EC:E2:40:0B:F1:11:69:BC
            X509v3 Authority Key Identifier: 
                keyid:38:DF:46:29:38:B2:13:8B:A5:7C:80:4B:5E:AA:24:DB:25:DC:EC:EE
                DirName:/C=FR/ST=bourgogne/L=dijon/O=eole/OU=ci/CN=ACEoleCI
                serial:81:5A:FE:E5:BA:70:38:01

            X509v3 Key Usage: critical
                Digital Signature, Key Encipherment
            X509v3 Extended Key Usage: 
                TLS Web Server Authentication
    Signature Algorithm: sha256WithRSAEncryption
         3b:8d:51:62:b7:a9:75:93:98:17:84:6a:d0:fa:8e:08:26:dc:
         ca:ae:b6:03:d8:9e:f7:9c:8f:41:88:dd:3c:a7:a5:ed:04:a6:
         bb:51:ad:2e:55:bc:46:bb:44:70:ed:76:08:70:58:80:64:bf:
         35:d8:8e:e1:cc:ae:40:c4:c6:1a:f7:47:5f:58:04:25:bf:72:
         98:cc:dd:97:1c:88:ea:c1:8f:fe:e4:68:3d:a7:4b:af:fc:b1:
         d7:e6:c1:1e:b1:05:0b:76:a3:1e:58:05:75:36:cc:b4:4c:cd:
         43:32:d7:5d:92:0f:74:9a:29:0e:94:34:95:63:00:3d:64:40:
         d8:cb
-----BEGIN CERTIFICATE-----
MIIC2DCCAkGgAwIBAgIBczANBgkqhkiG9w0BAQsFADBgMQswCQYDVQQGEwJGUjES
MBAGA1UECAwJYm91cmdvZ25lMQ4wDAYDVQQHDAVkaWpvbjENMAsGA1UECgwEZW9s
ZTELMAkGA1UECwwCY2kxETAPBgNVBAMMCEFDRW9sZUNJMB4XDTE2MDMxNzE0MzYw
MFoXDTI0MDYwMzE0MzYwMFowGjEYMBYGA1UEAwwPc2NyaWJlLmV0YjEubGFuMIGf
MA0GCSqGSIb3DQEBAQUAA4GNADCBiQKBgQCwI/7QSeGbTLHGxQMXzgwASWWfBN5j
L3kD2AB9L6INMxfn18HyPNmKDMuXQ1R5Mw7BM97bBN2w4F3NkkjOF4FGVEpWVOgP
emw+UaioQkVVfrDuzVpZESVMhVt96nO9csmz7u2wI0XhZZTehbgwya5g12xoumwn
Zt+PpUeZdFEBXQIDAQABo4HnMIHkMAkGA1UdEwQCMAAwHQYDVR0OBBYEFC9K2/27
+wfXeKKQLOziQAvxEWm8MIGSBgNVHSMEgYowgYeAFDjfRik4shOLpXyAS16qJNsl
3OzuoWSkYjBgMQswCQYDVQQGEwJGUjESMBAGA1UECAwJYm91cmdvZ25lMQ4wDAYD
VQQHDAVkaWpvbjENMAsGA1UECgwEZW9sZTELMAkGA1UECwwCY2kxETAPBgNVBAMM
CEFDRW9sZUNJggkAgVr+5bpwOAEwDgYDVR0PAQH/BAQDAgWgMBMGA1UdJQQMMAoG
CCsGAQUFBwMBMA0GCSqGSIb3DQEBCwUAA4GBADuNUWK3qXWTmBeEatD6jggm3Mqu
tgPYnvecj0GI3Tynpe0EprtRrS5VvEa7RHDtdghwWIBkvzXYjuHMrkDExhr3R19Y
BCW/cpjM3ZcciOrBj/7kaD2nS6/8sdfmwR6xBQt2ox5YBXU2zLRMzUMy112SD3Sa
KQ6UNJVjAD1kQNjL
-----END CERTIFICATE-----
