-----BEGIN RSA PRIVATE KEY-----
MIICXgIBAAKBgQCwI/7QSeGbTLHGxQMXzgwASWWfBN5jL3kD2AB9L6INMxfn18Hy
PNmKDMuXQ1R5Mw7BM97bBN2w4F3NkkjOF4FGVEpWVOgPemw+UaioQkVVfrDuzVpZ
ESVMhVt96nO9csmz7u2wI0XhZZTehbgwya5g12xoumwnZt+PpUeZdFEBXQIDAQAB
AoGBAKc+lk0JSZjeupIkMGqi7ww6pK3Xvpzoz3vR1a0H1FO6JsGxQGsUUe3ddlY6
zPODgkf6S2kkdqbics6lTlG5Sbl8yfMUB2VkbCCWGqpK6hWRqLNxSjo6NzuXcdOi
peAwIu6ITbh96mU65KGREI89v4g26Fo3UznN7jNi+1GPE8v1AkEA3sOK8KDXIAE1
WHY0frcxYHy/7jV7ecqm0FntJdDSI8AfWVgEC7mOYVz0h2EBcifNI39pbsgi/MHY
B1lOzEeE/wJBAMprrgv+nGbNmgO8bMWZLDpI4UtomZf9Z6tymLO2qrpDcM3c22qe
LaXqGbu36lp9Gkb3Bs8UiKYyTFLmxe8ZraMCQQCAGaSxYVy0O92oZDkl0UTkvnhE
jJ7X17B7yeq0v1PIWTft0c5py6fT13eKzj7dnYO68Q75NL/h57rJ5xKIKGyTAkEA
lqucO9VjeaoksA87L8IaB7Bj8ouDeHzpA9cjDvIzFr5IYxO4Rx5CgDNGwFHfoUdp
ndUWPmHcbUkXQsYAIz+L3QJABKVnYh62l/dPzlwi6uMxu02N9vQgxkmbwIGfodFw
TV5tGdkmd5ugzsKRmIuZ4iURLL04O8snKZrHCcxcejp/nQ==
-----END RSA PRIVATE KEY-----
Certificate:
    Data:
        Version: 3 (0x2)
        Serial Number: 117 (0x75)
    Signature Algorithm: sha256WithRSAEncryption
        Issuer: C=FR, ST=bourgogne, L=dijon, O=eole, OU=ci, CN=ACEoleCI
        Validity
            Not Before: Mar 17 14:36:00 2016 GMT
            Not After : Jun  3 14:36:00 2024 GMT
        Subject: CN=scribe.etb1.lan
        Subject Public Key Info:
            Public Key Algorithm: rsaEncryption
                Public-Key: (1024 bit)
                Modulus:
                    00:b0:23:fe:d0:49:e1:9b:4c:b1:c6:c5:03:17:ce:
                    0c:00:49:65:9f:04:de:63:2f:79:03:d8:00:7d:2f:
                    a2:0d:33:17:e7:d7:c1:f2:3c:d9:8a:0c:cb:97:43:
                    54:79:33:0e:c1:33:de:db:04:dd:b0:e0:5d:cd:92:
                    48:ce:17:81:46:54:4a:56:54:e8:0f:7a:6c:3e:51:
                    a8:a8:42:45:55:7e:b0:ee:cd:5a:59:11:25:4c:85:
                    5b:7d:ea:73:bd:72:c9:b3:ee:ed:b0:23:45:e1:65:
                    94:de:85:b8:30:c9:ae:60:d7:6c:68:ba:6c:27:66:
                    df:8f:a5:47:99:74:51:01:5d
                Exponent: 65537 (0x10001)
        X509v3 extensions:
            X509v3 Basic Constraints: 
                CA:FALSE
            X509v3 Subject Key Identifier: 
                2F:4A:DB:FD:BB:FB:07:D7:78:A2:90:2C:EC:E2:40:0B:F1:11:69:BC
            X509v3 Authority Key Identifier: 
                keyid:38:DF:46:29:38:B2:13:8B:A5:7C:80:4B:5E:AA:24:DB:25:DC:EC:EE
                DirName:/C=FR/ST=bourgogne/L=dijon/O=eole/OU=ci/CN=ACEoleCI
                serial:81:5A:FE:E5:BA:70:38:01

            X509v3 Key Usage: critical
                Digital Signature, Key Encipherment
    Signature Algorithm: sha256WithRSAEncryption
         90:91:98:af:86:8c:d1:b5:dd:1a:32:f6:e7:8d:d1:6a:e3:75:
         55:40:ca:c5:0b:4b:d3:5b:f5:60:20:dd:ed:51:50:9a:98:33:
         f0:21:b8:1d:90:17:5b:e0:b9:d0:b3:1b:89:6e:eb:f2:36:53:
         35:db:5d:7f:fd:d6:49:9e:ef:a1:01:50:a2:c1:5b:4e:14:14:
         da:c6:0a:a9:4f:d4:0e:08:18:bf:b4:b8:d1:09:33:9a:81:84:
         3b:e3:e3:92:ca:b7:f2:29:d9:bf:ab:e3:fc:b8:4c:23:49:cc:
         57:e3:b5:08:d3:f5:f2:f1:c7:94:9b:6a:30:a7:f9:b5:20:c4:
         7f:2b
-----BEGIN CERTIFICATE-----
MIICwzCCAiygAwIBAgIBdTANBgkqhkiG9w0BAQsFADBgMQswCQYDVQQGEwJGUjES
MBAGA1UECAwJYm91cmdvZ25lMQ4wDAYDVQQHDAVkaWpvbjENMAsGA1UECgwEZW9s
ZTELMAkGA1UECwwCY2kxETAPBgNVBAMMCEFDRW9sZUNJMB4XDTE2MDMxNzE0MzYw
MFoXDTI0MDYwMzE0MzYwMFowGjEYMBYGA1UEAwwPc2NyaWJlLmV0YjEubGFuMIGf
MA0GCSqGSIb3DQEBAQUAA4GNADCBiQKBgQCwI/7QSeGbTLHGxQMXzgwASWWfBN5j
L3kD2AB9L6INMxfn18HyPNmKDMuXQ1R5Mw7BM97bBN2w4F3NkkjOF4FGVEpWVOgP
emw+UaioQkVVfrDuzVpZESVMhVt96nO9csmz7u2wI0XhZZTehbgwya5g12xoumwn
Zt+PpUeZdFEBXQIDAQABo4HSMIHPMAkGA1UdEwQCMAAwHQYDVR0OBBYEFC9K2/27
+wfXeKKQLOziQAvxEWm8MIGSBgNVHSMEgYowgYeAFDjfRik4shOLpXyAS16qJNsl
3OzuoWSkYjBgMQswCQYDVQQGEwJGUjESMBAGA1UECAwJYm91cmdvZ25lMQ4wDAYD
VQQHDAVkaWpvbjENMAsGA1UECgwEZW9sZTELMAkGA1UECwwCY2kxETAPBgNVBAMM
CEFDRW9sZUNJggkAgVr+5bpwOAEwDgYDVR0PAQH/BAQDAgWgMA0GCSqGSIb3DQEB
CwUAA4GBAJCRmK+GjNG13Roy9ueN0WrjdVVAysULS9Nb9WAg3e1RUJqYM/AhuB2Q
F1vgudCzG4lu6/I2UzXbXX/91kme76EBUKLBW04UFNrGCqlP1A4IGL+0uNEJM5qB
hDvj45LKt/Ip2b+r4/y4TCNJzFfjtQjT9fLxx5SbajCn+bUgxH8r
-----END CERTIFICATE-----
