-----BEGIN RSA PRIVATE KEY-----
MIICXgIBAAKBgQCwI/7QSeGbTLHGxQMXzgwASWWfBN5jL3kD2AB9L6INMxfn18Hy
PNmKDMuXQ1R5Mw7BM97bBN2w4F3NkkjOF4FGVEpWVOgPemw+UaioQkVVfrDuzVpZ
ESVMhVt96nO9csmz7u2wI0XhZZTehbgwya5g12xoumwnZt+PpUeZdFEBXQIDAQAB
AoGBAKc+lk0JSZjeupIkMGqi7ww6pK3Xvpzoz3vR1a0H1FO6JsGxQGsUUe3ddlY6
zPODgkf6S2kkdqbics6lTlG5Sbl8yfMUB2VkbCCWGqpK6hWRqLNxSjo6NzuXcdOi
peAwIu6ITbh96mU65KGREI89v4g26Fo3UznN7jNi+1GPE8v1AkEA3sOK8KDXIAE1
WHY0frcxYHy/7jV7ecqm0FntJdDSI8AfWVgEC7mOYVz0h2EBcifNI39pbsgi/MHY
B1lOzEeE/wJBAMprrgv+nGbNmgO8bMWZLDpI4UtomZf9Z6tymLO2qrpDcM3c22qe
LaXqGbu36lp9Gkb3Bs8UiKYyTFLmxe8ZraMCQQCAGaSxYVy0O92oZDkl0UTkvnhE
jJ7X17B7yeq0v1PIWTft0c5py6fT13eKzj7dnYO68Q75NL/h57rJ5xKIKGyTAkEA
lqucO9VjeaoksA87L8IaB7Bj8ouDeHzpA9cjDvIzFr5IYxO4Rx5CgDNGwFHfoUdp
ndUWPmHcbUkXQsYAIz+L3QJABKVnYh62l/dPzlwi6uMxu02N9vQgxkmbwIGfodFw
TV5tGdkmd5ugzsKRmIuZ4iURLL04O8snKZrHCcxcejp/nQ==
-----END RSA PRIVATE KEY-----
Certificate:
    Data:
        Version: 3 (0x2)
        Serial Number: 116 (0x74)
    Signature Algorithm: sha256WithRSAEncryption
        Issuer: C=FR, ST=bourgogne, L=dijon, O=eole, OU=ci, CN=ACEoleCI
        Validity
            Not Before: Mar 17 14:36:00 2016 GMT
            Not After : Jun  3 14:36:00 2024 GMT
        Subject: CN=scribe.etb1.lan
        Subject Public Key Info:
            Public Key Algorithm: rsaEncryption
                Public-Key: (1024 bit)
                Modulus:
                    00:b0:23:fe:d0:49:e1:9b:4c:b1:c6:c5:03:17:ce:
                    0c:00:49:65:9f:04:de:63:2f:79:03:d8:00:7d:2f:
                    a2:0d:33:17:e7:d7:c1:f2:3c:d9:8a:0c:cb:97:43:
                    54:79:33:0e:c1:33:de:db:04:dd:b0:e0:5d:cd:92:
                    48:ce:17:81:46:54:4a:56:54:e8:0f:7a:6c:3e:51:
                    a8:a8:42:45:55:7e:b0:ee:cd:5a:59:11:25:4c:85:
                    5b:7d:ea:73:bd:72:c9:b3:ee:ed:b0:23:45:e1:65:
                    94:de:85:b8:30:c9:ae:60:d7:6c:68:ba:6c:27:66:
                    df:8f:a5:47:99:74:51:01:5d
                Exponent: 65537 (0x10001)
        X509v3 extensions:
            X509v3 Basic Constraints: 
                CA:FALSE
            X509v3 Subject Key Identifier: 
                2F:4A:DB:FD:BB:FB:07:D7:78:A2:90:2C:EC:E2:40:0B:F1:11:69:BC
            X509v3 Authority Key Identifier: 
                keyid:38:DF:46:29:38:B2:13:8B:A5:7C:80:4B:5E:AA:24:DB:25:DC:EC:EE

            X509v3 Key Usage: critical
                Digital Signature, Non Repudiation, Key Encipherment
            X509v3 Extended Key Usage: 
                TLS Web Client Authentication, E-mail Protection
    Signature Algorithm: sha256WithRSAEncryption
         12:25:c1:6d:c8:8e:9f:23:ae:73:98:b7:a2:50:60:1f:6a:72:
         82:5a:ff:af:4e:f7:40:b4:e4:9a:5b:23:88:2b:61:c8:2d:ab:
         d5:1c:07:b4:30:a2:96:eb:e3:af:d2:f2:c2:8d:55:1d:0d:0b:
         0e:36:37:16:e2:6e:8e:a5:1c:9c:e6:0a:c6:96:be:ba:7f:85:
         dc:11:10:a0:a2:7a:51:58:4c:b1:36:41:78:cc:1c:c8:0a:34:
         74:de:2a:57:6d:e0:a7:a5:b9:32:b5:f4:ff:5a:54:2e:ce:aa:
         94:08:1a:fe:75:da:16:5d:6c:b6:60:b5:84:df:ef:68:ab:82:
         2b:2f
-----BEGIN CERTIFICATE-----
MIICbDCCAdWgAwIBAgIBdDANBgkqhkiG9w0BAQsFADBgMQswCQYDVQQGEwJGUjES
MBAGA1UECAwJYm91cmdvZ25lMQ4wDAYDVQQHDAVkaWpvbjENMAsGA1UECgwEZW9s
ZTELMAkGA1UECwwCY2kxETAPBgNVBAMMCEFDRW9sZUNJMB4XDTE2MDMxNzE0MzYw
MFoXDTI0MDYwMzE0MzYwMFowGjEYMBYGA1UEAwwPc2NyaWJlLmV0YjEubGFuMIGf
MA0GCSqGSIb3DQEBAQUAA4GNADCBiQKBgQCwI/7QSeGbTLHGxQMXzgwASWWfBN5j
L3kD2AB9L6INMxfn18HyPNmKDMuXQ1R5Mw7BM97bBN2w4F3NkkjOF4FGVEpWVOgP
emw+UaioQkVVfrDuzVpZESVMhVt96nO9csmz7u2wI0XhZZTehbgwya5g12xoumwn
Zt+PpUeZdFEBXQIDAQABo3wwejAJBgNVHRMEAjAAMB0GA1UdDgQWBBQvStv9u/sH
13iikCzs4kAL8RFpvDAfBgNVHSMEGDAWgBQ430YpOLITi6V8gEteqiTbJdzs7jAO
BgNVHQ8BAf8EBAMCBeAwHQYDVR0lBBYwFAYIKwYBBQUHAwIGCCsGAQUFBwMEMA0G
CSqGSIb3DQEBCwUAA4GBABIlwW3Ijp8jrnOYt6JQYB9qcoJa/69O90C05JpbI4gr
Ycgtq9UcB7Qwopbr46/S8sKNVR0NCw42Nxbibo6lHJzmCsaWvrp/hdwREKCielFY
TLE2QXjMHMgKNHTeKldt4KeluTK19P9aVC7OqpQIGv512hZdbLZgtYTf72irgisv
-----END CERTIFICATE-----
