-----BEGIN RSA PRIVATE KEY-----
MIICXgIBAAKBgQC6cGbTfW1GGUhcY4DXG9YapIfHGuWNvp0kT+0U93+MvVgZwaA9
GU/LVpsZ70sUZsYgpX6TSSl1/uAeqOF9ea2QsuHGAErc+KolV5HyrCEMHN8gTyph
lhhpANweCbhYa+U88sByMBXdsBrzoPqhQkRg5WmVsW2CjIZdhQIMKHIE1wIDAQAB
AoGBALSKtIiJJZCEWzZchR/JrQQP4AxHV5RzyeioHYX4RmQb13zZrDp+kG7wZzIu
MB6Jh8OFf5VRe/zv3EjUccf4VMHrpdsSByWEV7uHkiv0oNm8qmAE9ca/d9sGmd4Q
nehx/IzI2VzQuDYvaW/vptlW905LmJwn3L1ySNv4by8MrjWBAkEA4UQcBsWW60UI
LPkVCwjRiPND6xTfNUjabTY81zFnMEdNGLpffPOHrGEiYo492VP8jczY2UBTUOUk
JfgP5q0UHwJBANPgLZsGOjoye37EapczV6nQ9fvkaUhzzXII7jl7QZYVJfJ1tI8Z
qOLYDqZWqptf9hhmM7GkZtapt92O2Bk/uEkCQQCKQmNxRJT8kcIS2E4yF5eDlst4
3bah3bUykreE3K2Y1CpdowY4isAa7QNNuj/7w7Ce17vAm9qHLByjsT0RN+nBAkAX
+NpQGvFFmmacni6NMvLtNMZQHLTIzMlm6JnDiS2PhI8JksW+FyIjoFxv94hQEhhv
BEk/BSHZkdRKzhmnKa15AkEAvhqGVEmd40dkTTZh1ZXQHAWUJsgyKm9UohtXPPxm
EjIx33OtWgepF6/KeyzKdqC4iyDHWYAyvKldIfn0pHzWoQ==
-----END RSA PRIVATE KEY-----
Certificate:
    Data:
        Version: 3 (0x2)
        Serial Number: 210 (0xd2)
    Signature Algorithm: sha256WithRSAEncryption
        Issuer: C=FR, ST=bourgogne, L=dijon, O=eole, OU=ci, CN=ACEoleCI
        Validity
            Not Before: Mar 17 14:36:23 2016 GMT
            Not After : Jun  3 14:36:23 2024 GMT
        Subject: CN=pcprofs.etb6.lan
        Subject Public Key Info:
            Public Key Algorithm: rsaEncryption
                Public-Key: (1024 bit)
                Modulus:
                    00:ba:70:66:d3:7d:6d:46:19:48:5c:63:80:d7:1b:
                    d6:1a:a4:87:c7:1a:e5:8d:be:9d:24:4f:ed:14:f7:
                    7f:8c:bd:58:19:c1:a0:3d:19:4f:cb:56:9b:19:ef:
                    4b:14:66:c6:20:a5:7e:93:49:29:75:fe:e0:1e:a8:
                    e1:7d:79:ad:90:b2:e1:c6:00:4a:dc:f8:aa:25:57:
                    91:f2:ac:21:0c:1c:df:20:4f:2a:61:96:18:69:00:
                    dc:1e:09:b8:58:6b:e5:3c:f2:c0:72:30:15:dd:b0:
                    1a:f3:a0:fa:a1:42:44:60:e5:69:95:b1:6d:82:8c:
                    86:5d:85:02:0c:28:72:04:d7
                Exponent: 65537 (0x10001)
        X509v3 extensions:
            X509v3 Basic Constraints: 
                CA:FALSE
            X509v3 Subject Key Identifier: 
                E5:35:15:A2:CD:90:73:94:75:6C:E0:D4:F7:DB:F3:C1:8B:92:90:FD
            X509v3 Authority Key Identifier: 
                keyid:38:DF:46:29:38:B2:13:8B:A5:7C:80:4B:5E:AA:24:DB:25:DC:EC:EE
                DirName:/C=FR/ST=bourgogne/L=dijon/O=eole/OU=ci/CN=ACEoleCI
                serial:81:5A:FE:E5:BA:70:38:01

            X509v3 Key Usage: critical
                Digital Signature, Key Encipherment
    Signature Algorithm: sha256WithRSAEncryption
         2c:35:9d:5b:09:bd:b9:d9:bc:8d:cd:e2:dc:0d:cb:bf:3d:ad:
         99:0e:09:7f:27:1d:d0:8b:df:64:4d:5e:82:02:44:8e:f9:12:
         47:91:40:08:72:c1:9a:1d:e4:14:41:62:fb:73:ee:6d:9c:f8:
         fb:e9:86:98:f5:1c:4c:8b:10:59:b2:04:1f:1f:8f:00:9b:19:
         43:4a:c3:4d:da:fd:f2:53:42:e2:ad:18:1b:ef:56:ae:de:9a:
         05:4e:48:70:af:a1:76:f3:da:30:46:b7:d8:71:b3:c7:e7:fd:
         84:fa:2c:5f:e1:a8:01:70:9c:b2:3a:1b:4c:5c:72:16:db:75:
         d7:aa
-----BEGIN CERTIFICATE-----
MIICxTCCAi6gAwIBAgICANIwDQYJKoZIhvcNAQELBQAwYDELMAkGA1UEBhMCRlIx
EjAQBgNVBAgMCWJvdXJnb2duZTEOMAwGA1UEBwwFZGlqb24xDTALBgNVBAoMBGVv
bGUxCzAJBgNVBAsMAmNpMREwDwYDVQQDDAhBQ0VvbGVDSTAeFw0xNjAzMTcxNDM2
MjNaFw0yNDA2MDMxNDM2MjNaMBsxGTAXBgNVBAMMEHBjcHJvZnMuZXRiNi5sYW4w
gZ8wDQYJKoZIhvcNAQEBBQADgY0AMIGJAoGBALpwZtN9bUYZSFxjgNcb1hqkh8ca
5Y2+nSRP7RT3f4y9WBnBoD0ZT8tWmxnvSxRmxiClfpNJKXX+4B6o4X15rZCy4cYA
Stz4qiVXkfKsIQwc3yBPKmGWGGkA3B4JuFhr5TzywHIwFd2wGvOg+qFCRGDlaZWx
bYKMhl2FAgwocgTXAgMBAAGjgdIwgc8wCQYDVR0TBAIwADAdBgNVHQ4EFgQU5TUV
os2Qc5R1bODU99vzwYuSkP0wgZIGA1UdIwSBijCBh4AUON9GKTiyE4ulfIBLXqok
2yXc7O6hZKRiMGAxCzAJBgNVBAYTAkZSMRIwEAYDVQQIDAlib3VyZ29nbmUxDjAM
BgNVBAcMBWRpam9uMQ0wCwYDVQQKDARlb2xlMQswCQYDVQQLDAJjaTERMA8GA1UE
AwwIQUNFb2xlQ0mCCQCBWv7lunA4ATAOBgNVHQ8BAf8EBAMCBaAwDQYJKoZIhvcN
AQELBQADgYEALDWdWwm9udm8jc3i3A3Lvz2tmQ4Jfycd0IvfZE1eggJEjvkSR5FA
CHLBmh3kFEFi+3PubZz4++mGmPUcTIsQWbIEHx+PAJsZQ0rDTdr98lNC4q0YG+9W
rt6aBU5IcK+hdvPaMEa32HGzx+f9hPosX+GoAXCcsjobTFxyFtt116o=
-----END CERTIFICATE-----
