-----BEGIN RSA PRIVATE KEY-----
MIICXgIBAAKBgQC6cGbTfW1GGUhcY4DXG9YapIfHGuWNvp0kT+0U93+MvVgZwaA9
GU/LVpsZ70sUZsYgpX6TSSl1/uAeqOF9ea2QsuHGAErc+KolV5HyrCEMHN8gTyph
lhhpANweCbhYa+U88sByMBXdsBrzoPqhQkRg5WmVsW2CjIZdhQIMKHIE1wIDAQAB
AoGBALSKtIiJJZCEWzZchR/JrQQP4AxHV5RzyeioHYX4RmQb13zZrDp+kG7wZzIu
MB6Jh8OFf5VRe/zv3EjUccf4VMHrpdsSByWEV7uHkiv0oNm8qmAE9ca/d9sGmd4Q
nehx/IzI2VzQuDYvaW/vptlW905LmJwn3L1ySNv4by8MrjWBAkEA4UQcBsWW60UI
LPkVCwjRiPND6xTfNUjabTY81zFnMEdNGLpffPOHrGEiYo492VP8jczY2UBTUOUk
JfgP5q0UHwJBANPgLZsGOjoye37EapczV6nQ9fvkaUhzzXII7jl7QZYVJfJ1tI8Z
qOLYDqZWqptf9hhmM7GkZtapt92O2Bk/uEkCQQCKQmNxRJT8kcIS2E4yF5eDlst4
3bah3bUykreE3K2Y1CpdowY4isAa7QNNuj/7w7Ce17vAm9qHLByjsT0RN+nBAkAX
+NpQGvFFmmacni6NMvLtNMZQHLTIzMlm6JnDiS2PhI8JksW+FyIjoFxv94hQEhhv
BEk/BSHZkdRKzhmnKa15AkEAvhqGVEmd40dkTTZh1ZXQHAWUJsgyKm9UohtXPPxm
EjIx33OtWgepF6/KeyzKdqC4iyDHWYAyvKldIfn0pHzWoQ==
-----END RSA PRIVATE KEY-----
Certificate:
    Data:
        Version: 3 (0x2)
        Serial Number: 209 (0xd1)
    Signature Algorithm: sha256WithRSAEncryption
        Issuer: C=FR, ST=bourgogne, L=dijon, O=eole, OU=ci, CN=ACEoleCI
        Validity
            Not Before: Mar 17 14:36:23 2016 GMT
            Not After : Jun  3 14:36:23 2024 GMT
        Subject: CN=pcprofs.etb6.lan
        Subject Public Key Info:
            Public Key Algorithm: rsaEncryption
                Public-Key: (1024 bit)
                Modulus:
                    00:ba:70:66:d3:7d:6d:46:19:48:5c:63:80:d7:1b:
                    d6:1a:a4:87:c7:1a:e5:8d:be:9d:24:4f:ed:14:f7:
                    7f:8c:bd:58:19:c1:a0:3d:19:4f:cb:56:9b:19:ef:
                    4b:14:66:c6:20:a5:7e:93:49:29:75:fe:e0:1e:a8:
                    e1:7d:79:ad:90:b2:e1:c6:00:4a:dc:f8:aa:25:57:
                    91:f2:ac:21:0c:1c:df:20:4f:2a:61:96:18:69:00:
                    dc:1e:09:b8:58:6b:e5:3c:f2:c0:72:30:15:dd:b0:
                    1a:f3:a0:fa:a1:42:44:60:e5:69:95:b1:6d:82:8c:
                    86:5d:85:02:0c:28:72:04:d7
                Exponent: 65537 (0x10001)
        X509v3 extensions:
            X509v3 Basic Constraints: 
                CA:FALSE
            X509v3 Subject Key Identifier: 
                E5:35:15:A2:CD:90:73:94:75:6C:E0:D4:F7:DB:F3:C1:8B:92:90:FD
            X509v3 Authority Key Identifier: 
                keyid:38:DF:46:29:38:B2:13:8B:A5:7C:80:4B:5E:AA:24:DB:25:DC:EC:EE

            X509v3 Key Usage: critical
                Digital Signature, Non Repudiation, Key Encipherment
            X509v3 Extended Key Usage: 
                TLS Web Client Authentication, E-mail Protection
    Signature Algorithm: sha256WithRSAEncryption
         84:3d:be:5a:39:51:40:2c:1b:a0:48:ac:62:1f:1b:9c:e0:f4:
         d0:61:92:f8:ed:77:3b:e0:0c:bd:ab:ad:1b:7d:c5:6a:e1:4f:
         b8:39:dc:90:f3:14:bd:98:f5:f9:98:54:85:ef:c4:89:44:a7:
         7a:1a:64:bd:53:04:b0:82:43:5e:9d:cc:a3:7a:48:db:b8:a4:
         eb:5b:66:2f:46:cf:44:5a:54:48:69:00:4f:05:f7:ce:11:b4:
         bd:9d:e1:be:61:59:1f:8a:c0:2d:8f:92:9a:ad:64:95:04:b5:
         14:6e:1d:9e:ad:7b:12:ee:00:c2:0c:e9:40:d7:db:f4:56:64:
         8c:77
-----BEGIN CERTIFICATE-----
MIICbjCCAdegAwIBAgICANEwDQYJKoZIhvcNAQELBQAwYDELMAkGA1UEBhMCRlIx
EjAQBgNVBAgMCWJvdXJnb2duZTEOMAwGA1UEBwwFZGlqb24xDTALBgNVBAoMBGVv
bGUxCzAJBgNVBAsMAmNpMREwDwYDVQQDDAhBQ0VvbGVDSTAeFw0xNjAzMTcxNDM2
MjNaFw0yNDA2MDMxNDM2MjNaMBsxGTAXBgNVBAMMEHBjcHJvZnMuZXRiNi5sYW4w
gZ8wDQYJKoZIhvcNAQEBBQADgY0AMIGJAoGBALpwZtN9bUYZSFxjgNcb1hqkh8ca
5Y2+nSRP7RT3f4y9WBnBoD0ZT8tWmxnvSxRmxiClfpNJKXX+4B6o4X15rZCy4cYA
Stz4qiVXkfKsIQwc3yBPKmGWGGkA3B4JuFhr5TzywHIwFd2wGvOg+qFCRGDlaZWx
bYKMhl2FAgwocgTXAgMBAAGjfDB6MAkGA1UdEwQCMAAwHQYDVR0OBBYEFOU1FaLN
kHOUdWzg1Pfb88GLkpD9MB8GA1UdIwQYMBaAFDjfRik4shOLpXyAS16qJNsl3Ozu
MA4GA1UdDwEB/wQEAwIF4DAdBgNVHSUEFjAUBggrBgEFBQcDAgYIKwYBBQUHAwQw
DQYJKoZIhvcNAQELBQADgYEAhD2+WjlRQCwboEisYh8bnOD00GGS+O13O+AMvaut
G33FauFPuDnckPMUvZj1+ZhUhe/EiUSnehpkvVMEsIJDXp3Mo3pI27ik61tmL0bP
RFpUSGkATwX3zhG0vZ3hvmFZH4rALY+Smq1klQS1FG4dnq17Eu4AwgzpQNfb9FZk
jHc=
-----END CERTIFICATE-----
