Certificate:
    Data:
        Version: 3 (0x2)
        Serial Number: 208 (0xd0)
    Signature Algorithm: sha256WithRSAEncryption
        Issuer: C=FR, ST=bourgogne, L=dijon, O=eole, OU=ci, CN=ACEoleCI
        Validity
            Not Before: Mar 17 14:36:23 2016 GMT
            Not After : Jun  3 14:36:23 2024 GMT
        Subject: CN=pcprofs.etb6.lan
        Subject Public Key Info:
            Public Key Algorithm: rsaEncryption
                Public-Key: (1024 bit)
                Modulus:
                    00:ba:70:66:d3:7d:6d:46:19:48:5c:63:80:d7:1b:
                    d6:1a:a4:87:c7:1a:e5:8d:be:9d:24:4f:ed:14:f7:
                    7f:8c:bd:58:19:c1:a0:3d:19:4f:cb:56:9b:19:ef:
                    4b:14:66:c6:20:a5:7e:93:49:29:75:fe:e0:1e:a8:
                    e1:7d:79:ad:90:b2:e1:c6:00:4a:dc:f8:aa:25:57:
                    91:f2:ac:21:0c:1c:df:20:4f:2a:61:96:18:69:00:
                    dc:1e:09:b8:58:6b:e5:3c:f2:c0:72:30:15:dd:b0:
                    1a:f3:a0:fa:a1:42:44:60:e5:69:95:b1:6d:82:8c:
                    86:5d:85:02:0c:28:72:04:d7
                Exponent: 65537 (0x10001)
        X509v3 extensions:
            X509v3 Basic Constraints: 
                CA:FALSE
            X509v3 Subject Key Identifier: 
                E5:35:15:A2:CD:90:73:94:75:6C:E0:D4:F7:DB:F3:C1:8B:92:90:FD
            X509v3 Authority Key Identifier: 
                keyid:38:DF:46:29:38:B2:13:8B:A5:7C:80:4B:5E:AA:24:DB:25:DC:EC:EE
                DirName:/C=FR/ST=bourgogne/L=dijon/O=eole/OU=ci/CN=ACEoleCI
                serial:81:5A:FE:E5:BA:70:38:01

            X509v3 Key Usage: critical
                Digital Signature, Key Encipherment
            X509v3 Extended Key Usage: 
                TLS Web Server Authentication
    Signature Algorithm: sha256WithRSAEncryption
         44:c5:dd:79:47:5c:73:8e:7d:08:e0:9a:1d:8b:b0:01:75:d2:
         b5:ef:a1:50:5f:16:81:be:b9:52:7d:40:14:5a:65:72:20:03:
         a3:cd:1d:6d:f3:b2:d1:fe:bc:ec:e0:58:ed:60:42:25:8f:12:
         58:0a:d3:bc:a3:3b:44:3e:3f:7b:60:f5:37:c4:75:2c:02:ef:
         eb:6e:c7:e1:fc:53:72:81:bc:48:75:cf:75:b7:4b:46:f5:9e:
         4e:d4:cb:25:60:5e:72:98:6f:68:3c:e1:ba:22:6a:75:b3:d5:
         88:d0:60:6b:26:d1:8f:a7:f5:6e:b7:6b:ce:44:c4:e4:7f:7d:
         c6:17
-----BEGIN CERTIFICATE-----
MIIC2jCCAkOgAwIBAgICANAwDQYJKoZIhvcNAQELBQAwYDELMAkGA1UEBhMCRlIx
EjAQBgNVBAgMCWJvdXJnb2duZTEOMAwGA1UEBwwFZGlqb24xDTALBgNVBAoMBGVv
bGUxCzAJBgNVBAsMAmNpMREwDwYDVQQDDAhBQ0VvbGVDSTAeFw0xNjAzMTcxNDM2
MjNaFw0yNDA2MDMxNDM2MjNaMBsxGTAXBgNVBAMMEHBjcHJvZnMuZXRiNi5sYW4w
gZ8wDQYJKoZIhvcNAQEBBQADgY0AMIGJAoGBALpwZtN9bUYZSFxjgNcb1hqkh8ca
5Y2+nSRP7RT3f4y9WBnBoD0ZT8tWmxnvSxRmxiClfpNJKXX+4B6o4X15rZCy4cYA
Stz4qiVXkfKsIQwc3yBPKmGWGGkA3B4JuFhr5TzywHIwFd2wGvOg+qFCRGDlaZWx
bYKMhl2FAgwocgTXAgMBAAGjgecwgeQwCQYDVR0TBAIwADAdBgNVHQ4EFgQU5TUV
os2Qc5R1bODU99vzwYuSkP0wgZIGA1UdIwSBijCBh4AUON9GKTiyE4ulfIBLXqok
2yXc7O6hZKRiMGAxCzAJBgNVBAYTAkZSMRIwEAYDVQQIDAlib3VyZ29nbmUxDjAM
BgNVBAcMBWRpam9uMQ0wCwYDVQQKDARlb2xlMQswCQYDVQQLDAJjaTERMA8GA1UE
AwwIQUNFb2xlQ0mCCQCBWv7lunA4ATAOBgNVHQ8BAf8EBAMCBaAwEwYDVR0lBAww
CgYIKwYBBQUHAwEwDQYJKoZIhvcNAQELBQADgYEARMXdeUdcc459COCaHYuwAXXS
te+hUF8Wgb65Un1AFFplciADo80dbfOy0f687OBY7WBCJY8SWArTvKM7RD4/e2D1
N8R1LALv627H4fxTcoG8SHXPdbdLRvWeTtTLJWBecphvaDzhuiJqdbPViNBgaybR
j6f1brdrzkTE5H99xhc=
-----END CERTIFICATE-----
