-----BEGIN RSA PRIVATE KEY-----
MIICXQIBAAKBgQDJE3LnjsHgLO7iX/QThMKf+K0YsNCJxRHx7sntrmtGzTSAn7ZT
sBkbSsKupV2AOu0SgTDhm8V2A8q+NGazRzaEK6V25yg1OJimIPCAnwg8Rk2bNR8m
QxZgJrkxfBjS3f9jRPQYzTbdNddCmiG8rnSypnWcRq0DqM9LQzlmtTtQgwIDAQAB
AoGAApuf9+TgGto6VvFLpx0nsQ92n0Vbzw2hR/QC5nRGq+ppbemkYb189d+oWr+G
UO1yubS3P5XXn8o4zPK9CkI4MMTCJhCReXH0oyzlos401b+1KEyZFGSv7ZkhitPN
mf1UW95nsvVZaXFyqfxB7pMkaRufAqV+w5zvKAViCG9ebuECQQDyjtzsjr8YZJ4E
KZZb4DlT/+PBwymkfif7w1J+vNPpdOL3V4A5YoGuIu8F+nZW5dQE/+6BCmrPje7w
XDfJvo87AkEA1DgV2QGqGY1xD+IcThtgJdU+c4vgYQ7MBxQAUPUOVgRq/aEBEjZN
asJZ7VOZJKnmc6UvICplIxzuiHUH8nQ/WQJAJaH0tN8Q1wAFZC/vnCGVw2qYM5/L
/jF0kqMjUXaKilYQQL/arQyTgij5XLwXUDQoSP5MSskK+VjUEYa9QRfHsQJBAK/c
blZvZ6tXJ7tWz8f2LZ4McX1FC8LChVbUP1LXUHL9pD/bvUx/TXZL6kOeREk6titd
VokcOMV5Qz43ZUeJB7kCQQDL09pBWL+wRCCXnzRcJ3DIMuLhCqSsfUz5ccDXDAea
+RKDVeOOCuGwcJ3LXU1AJk5PTFmmCRQw0BeLP44VXEgZ
-----END RSA PRIVATE KEY-----
Certificate:
    Data:
        Version: 3 (0x2)
        Serial Number: 89 (0x59)
    Signature Algorithm: sha256WithRSAEncryption
        Issuer: C=FR, ST=bourgogne, L=dijon, O=eole, OU=ci, CN=ACEoleCI
        Validity
            Not Before: Mar 17 14:35:52 2016 GMT
            Not After : Jun  3 14:35:52 2024 GMT
        Subject: CN=eolebase.etb1.lan
        Subject Public Key Info:
            Public Key Algorithm: rsaEncryption
                Public-Key: (1024 bit)
                Modulus:
                    00:c9:13:72:e7:8e:c1:e0:2c:ee:e2:5f:f4:13:84:
                    c2:9f:f8:ad:18:b0:d0:89:c5:11:f1:ee:c9:ed:ae:
                    6b:46:cd:34:80:9f:b6:53:b0:19:1b:4a:c2:ae:a5:
                    5d:80:3a:ed:12:81:30:e1:9b:c5:76:03:ca:be:34:
                    66:b3:47:36:84:2b:a5:76:e7:28:35:38:98:a6:20:
                    f0:80:9f:08:3c:46:4d:9b:35:1f:26:43:16:60:26:
                    b9:31:7c:18:d2:dd:ff:63:44:f4:18:cd:36:dd:35:
                    d7:42:9a:21:bc:ae:74:b2:a6:75:9c:46:ad:03:a8:
                    cf:4b:43:39:66:b5:3b:50:83
                Exponent: 65537 (0x10001)
        X509v3 extensions:
            X509v3 Basic Constraints: 
                CA:FALSE
            X509v3 Subject Key Identifier: 
                D8:3B:38:A7:CF:E1:8E:FB:0F:4B:06:37:36:6B:2A:A6:C3:ED:EB:60
            X509v3 Authority Key Identifier: 
                keyid:38:DF:46:29:38:B2:13:8B:A5:7C:80:4B:5E:AA:24:DB:25:DC:EC:EE

            X509v3 Key Usage: critical
                Digital Signature, Non Repudiation, Key Encipherment
            X509v3 Extended Key Usage: 
                TLS Web Client Authentication, E-mail Protection
    Signature Algorithm: sha256WithRSAEncryption
         71:db:83:d2:ea:e1:ed:3d:0b:8b:dd:22:20:72:fe:4c:51:41:
         b9:5f:58:89:87:9f:b7:84:5f:dd:28:cd:d7:d6:42:b5:91:2f:
         39:f4:7a:91:60:bb:1b:4d:a6:6b:10:34:a6:74:e9:f9:22:89:
         e2:c6:bb:d4:c5:4d:3d:11:34:4b:37:de:08:02:d2:c7:1c:dd:
         83:87:a2:8d:0c:9b:22:4e:b4:4b:40:62:dc:69:42:b6:5c:a5:
         c6:43:df:c7:f2:25:c9:ca:71:41:4f:15:11:8c:fd:3c:10:0c:
         3c:6e:32:53:bd:2a:3d:3d:cd:a3:08:cd:ff:13:b0:f3:f6:3d:
         81:1a
-----BEGIN CERTIFICATE-----
MIICbjCCAdegAwIBAgIBWTANBgkqhkiG9w0BAQsFADBgMQswCQYDVQQGEwJGUjES
MBAGA1UECAwJYm91cmdvZ25lMQ4wDAYDVQQHDAVkaWpvbjENMAsGA1UECgwEZW9s
ZTELMAkGA1UECwwCY2kxETAPBgNVBAMMCEFDRW9sZUNJMB4XDTE2MDMxNzE0MzU1
MloXDTI0MDYwMzE0MzU1MlowHDEaMBgGA1UEAwwRZW9sZWJhc2UuZXRiMS5sYW4w
gZ8wDQYJKoZIhvcNAQEBBQADgY0AMIGJAoGBAMkTcueOweAs7uJf9BOEwp/4rRiw
0InFEfHuye2ua0bNNICftlOwGRtKwq6lXYA67RKBMOGbxXYDyr40ZrNHNoQrpXbn
KDU4mKYg8ICfCDxGTZs1HyZDFmAmuTF8GNLd/2NE9BjNNt0110KaIbyudLKmdZxG
rQOoz0tDOWa1O1CDAgMBAAGjfDB6MAkGA1UdEwQCMAAwHQYDVR0OBBYEFNg7OKfP
4Y77D0sGNzZrKqbD7etgMB8GA1UdIwQYMBaAFDjfRik4shOLpXyAS16qJNsl3Ozu
MA4GA1UdDwEB/wQEAwIF4DAdBgNVHSUEFjAUBggrBgEFBQcDAgYIKwYBBQUHAwQw
DQYJKoZIhvcNAQELBQADgYEAcduD0urh7T0Li90iIHL+TFFBuV9YiYeft4Rf3SjN
19ZCtZEvOfR6kWC7G02maxA0pnTp+SKJ4sa71MVNPRE0SzfeCALSxxzdg4eijQyb
Ik60S0Bi3GlCtlylxkPfx/IlycpxQU8VEYz9PBAMPG4yU70qPT3NowjN/xOw8/Y9
gRo=
-----END CERTIFICATE-----
