-----BEGIN RSA PRIVATE KEY-----
MIICXwIBAAKBgQCsYJ4DssFKaiht9oapZ+LKq1BaTgRYLD+8oToMUhoLfVKTy7pv
PTKyc+t1lhn28XLmSiKUcsg5FfojtrQln4yVwQSANsEKX9oj9dxwv9vqyuKt1BhW
6tEOaxEd4116qpeqZz6TKZzkot/CAByrgH3aYwwh1E5107cN3xii95x3jwIDAQAB
AoGBAItg6AN3gyDna19WiZXqwQ88rBEIqiydQsAD4UrbC+IkaCPHBC0z3405e7at
MrtgiZY5dXJwyQKXiZVdApa1Rlbv4DK9L+Zr3LBGUflFgFVf1g7xa3cdoQHa/P79
TNgbASUChSSf7QObpmcAiPAc6bkoOImSqagu2KbE5zOGnH4hAkEA3nk4mrOLIzrC
s9eFqh3So3+tpVj2FFVAv5cDOaD77Ma33Hj8NC92khGr0SMdJu5xCdzvpm1cs0P6
SFUOtmo8EQJBAMZavpN+cW0U90ygfQl+Nuq5+rE4s58dZLsNiDvU53p9c/nhJSKN
AzNVCuYIHlCL3EJPni9j6be2y2zq/QkLmZ8CQQDG72jBVSlm8EVooaFBlHdlgmdZ
QqqRVgaXC8dzgdOkT7HbcUg8tfB1/10/nwGTbYYhBrI5hPNuzauBgKWuUmKxAkEA
qrctMNpxmvWhhlTWaNY1Q75/cgogJkDxEkCqUPyDoZvZtmW9RUhiScrWz3aLSL2m
+3d06MqwO8rauEpjL2bJdwJBALlvBM7kkDbMBKveDRUyYLxpz6sSoJWtEZ+sIen0
aUQye9ixMbcYS6DpTYbdIBF5VvIjcFQF4vMpVrsrlppZz7k=
-----END RSA PRIVATE KEY-----
Certificate:
    Data:
        Version: 3 (0x2)
        Serial Number: 101 (0x65)
    Signature Algorithm: sha256WithRSAEncryption
        Issuer: C=FR, ST=bourgogne, L=dijon, O=eole, OU=ci, CN=ACEoleCI
        Validity
            Not Before: Mar 17 14:35:56 2016 GMT
            Not After : Jun  3 14:35:56 2024 GMT
        Subject: CN=horus.etb1.lan
        Subject Public Key Info:
            Public Key Algorithm: rsaEncryption
                Public-Key: (1024 bit)
                Modulus:
                    00:ac:60:9e:03:b2:c1:4a:6a:28:6d:f6:86:a9:67:
                    e2:ca:ab:50:5a:4e:04:58:2c:3f:bc:a1:3a:0c:52:
                    1a:0b:7d:52:93:cb:ba:6f:3d:32:b2:73:eb:75:96:
                    19:f6:f1:72:e6:4a:22:94:72:c8:39:15:fa:23:b6:
                    b4:25:9f:8c:95:c1:04:80:36:c1:0a:5f:da:23:f5:
                    dc:70:bf:db:ea:ca:e2:ad:d4:18:56:ea:d1:0e:6b:
                    11:1d:e3:5d:7a:aa:97:aa:67:3e:93:29:9c:e4:a2:
                    df:c2:00:1c:ab:80:7d:da:63:0c:21:d4:4e:75:d3:
                    b7:0d:df:18:a2:f7:9c:77:8f
                Exponent: 65537 (0x10001)
        X509v3 extensions:
            X509v3 Basic Constraints: 
                CA:FALSE
            X509v3 Subject Key Identifier: 
                62:E4:6B:67:70:1D:43:5C:5B:6C:39:37:D1:A0:B8:0A:98:AD:81:09
            X509v3 Authority Key Identifier: 
                keyid:38:DF:46:29:38:B2:13:8B:A5:7C:80:4B:5E:AA:24:DB:25:DC:EC:EE

            X509v3 Key Usage: critical
                Digital Signature, Non Repudiation, Key Encipherment
            X509v3 Extended Key Usage: 
                TLS Web Client Authentication, E-mail Protection
    Signature Algorithm: sha256WithRSAEncryption
         2f:b7:c6:d3:7a:2e:2d:44:c3:f1:d8:f2:e0:6e:61:56:c3:3f:
         fa:be:1a:e2:25:09:e8:64:b4:2d:0a:ee:c3:1d:61:60:f3:3a:
         e1:65:8a:51:7f:72:4b:4e:a9:a3:04:34:5a:b5:d2:67:56:8a:
         d1:a9:39:04:09:3f:45:3b:73:24:ca:d9:b8:97:b6:0a:0e:16:
         3c:86:34:1c:9c:6b:88:27:10:00:99:b4:2e:37:73:f9:8a:1f:
         17:08:47:b2:cf:27:36:19:c6:45:24:dc:b9:c0:4f:ad:f9:26:
         da:8f:b5:be:c3:95:66:1c:41:9a:63:a6:81:e2:59:7a:4b:16:
         f4:b7
-----BEGIN CERTIFICATE-----
MIICazCCAdSgAwIBAgIBZTANBgkqhkiG9w0BAQsFADBgMQswCQYDVQQGEwJGUjES
MBAGA1UECAwJYm91cmdvZ25lMQ4wDAYDVQQHDAVkaWpvbjENMAsGA1UECgwEZW9s
ZTELMAkGA1UECwwCY2kxETAPBgNVBAMMCEFDRW9sZUNJMB4XDTE2MDMxNzE0MzU1
NloXDTI0MDYwMzE0MzU1NlowGTEXMBUGA1UEAwwOaG9ydXMuZXRiMS5sYW4wgZ8w
DQYJKoZIhvcNAQEBBQADgY0AMIGJAoGBAKxgngOywUpqKG32hqln4sqrUFpOBFgs
P7yhOgxSGgt9UpPLum89MrJz63WWGfbxcuZKIpRyyDkV+iO2tCWfjJXBBIA2wQpf
2iP13HC/2+rK4q3UGFbq0Q5rER3jXXqql6pnPpMpnOSi38IAHKuAfdpjDCHUTnXT
tw3fGKL3nHePAgMBAAGjfDB6MAkGA1UdEwQCMAAwHQYDVR0OBBYEFGLka2dwHUNc
W2w5N9GguAqYrYEJMB8GA1UdIwQYMBaAFDjfRik4shOLpXyAS16qJNsl3OzuMA4G
A1UdDwEB/wQEAwIF4DAdBgNVHSUEFjAUBggrBgEFBQcDAgYIKwYBBQUHAwQwDQYJ
KoZIhvcNAQELBQADgYEAL7fG03ouLUTD8djy4G5hVsM/+r4a4iUJ6GS0LQruwx1h
YPM64WWKUX9yS06powQ0WrXSZ1aK0ak5BAk/RTtzJMrZuJe2Cg4WPIY0HJxriCcQ
AJm0Ljdz+YofFwhHss8nNhnGRSTcucBPrfkm2o+1vsOVZhxBmmOmgeJZeksW9Lc=
-----END CERTIFICATE-----
