-----BEGIN RSA PRIVATE KEY-----
MIICXwIBAAKBgQCsYJ4DssFKaiht9oapZ+LKq1BaTgRYLD+8oToMUhoLfVKTy7pv
PTKyc+t1lhn28XLmSiKUcsg5FfojtrQln4yVwQSANsEKX9oj9dxwv9vqyuKt1BhW
6tEOaxEd4116qpeqZz6TKZzkot/CAByrgH3aYwwh1E5107cN3xii95x3jwIDAQAB
AoGBAItg6AN3gyDna19WiZXqwQ88rBEIqiydQsAD4UrbC+IkaCPHBC0z3405e7at
MrtgiZY5dXJwyQKXiZVdApa1Rlbv4DK9L+Zr3LBGUflFgFVf1g7xa3cdoQHa/P79
TNgbASUChSSf7QObpmcAiPAc6bkoOImSqagu2KbE5zOGnH4hAkEA3nk4mrOLIzrC
s9eFqh3So3+tpVj2FFVAv5cDOaD77Ma33Hj8NC92khGr0SMdJu5xCdzvpm1cs0P6
SFUOtmo8EQJBAMZavpN+cW0U90ygfQl+Nuq5+rE4s58dZLsNiDvU53p9c/nhJSKN
AzNVCuYIHlCL3EJPni9j6be2y2zq/QkLmZ8CQQDG72jBVSlm8EVooaFBlHdlgmdZ
QqqRVgaXC8dzgdOkT7HbcUg8tfB1/10/nwGTbYYhBrI5hPNuzauBgKWuUmKxAkEA
qrctMNpxmvWhhlTWaNY1Q75/cgogJkDxEkCqUPyDoZvZtmW9RUhiScrWz3aLSL2m
+3d06MqwO8rauEpjL2bJdwJBALlvBM7kkDbMBKveDRUyYLxpz6sSoJWtEZ+sIen0
aUQye9ixMbcYS6DpTYbdIBF5VvIjcFQF4vMpVrsrlppZz7k=
-----END RSA PRIVATE KEY-----
Certificate:
    Data:
        Version: 3 (0x2)
        Serial Number: 102 (0x66)
    Signature Algorithm: sha256WithRSAEncryption
        Issuer: C=FR, ST=bourgogne, L=dijon, O=eole, OU=ci, CN=ACEoleCI
        Validity
            Not Before: Mar 17 14:35:57 2016 GMT
            Not After : Jun  3 14:35:57 2024 GMT
        Subject: CN=horus.etb1.lan
        Subject Public Key Info:
            Public Key Algorithm: rsaEncryption
                Public-Key: (1024 bit)
                Modulus:
                    00:ac:60:9e:03:b2:c1:4a:6a:28:6d:f6:86:a9:67:
                    e2:ca:ab:50:5a:4e:04:58:2c:3f:bc:a1:3a:0c:52:
                    1a:0b:7d:52:93:cb:ba:6f:3d:32:b2:73:eb:75:96:
                    19:f6:f1:72:e6:4a:22:94:72:c8:39:15:fa:23:b6:
                    b4:25:9f:8c:95:c1:04:80:36:c1:0a:5f:da:23:f5:
                    dc:70:bf:db:ea:ca:e2:ad:d4:18:56:ea:d1:0e:6b:
                    11:1d:e3:5d:7a:aa:97:aa:67:3e:93:29:9c:e4:a2:
                    df:c2:00:1c:ab:80:7d:da:63:0c:21:d4:4e:75:d3:
                    b7:0d:df:18:a2:f7:9c:77:8f
                Exponent: 65537 (0x10001)
        X509v3 extensions:
            X509v3 Basic Constraints: 
                CA:FALSE
            X509v3 Subject Key Identifier: 
                62:E4:6B:67:70:1D:43:5C:5B:6C:39:37:D1:A0:B8:0A:98:AD:81:09
            X509v3 Authority Key Identifier: 
                keyid:38:DF:46:29:38:B2:13:8B:A5:7C:80:4B:5E:AA:24:DB:25:DC:EC:EE
                DirName:/C=FR/ST=bourgogne/L=dijon/O=eole/OU=ci/CN=ACEoleCI
                serial:81:5A:FE:E5:BA:70:38:01

            X509v3 Key Usage: critical
                Digital Signature, Key Encipherment
    Signature Algorithm: sha256WithRSAEncryption
         83:6c:be:3f:2e:a6:5a:cf:de:81:2c:ec:7c:86:0d:39:96:f8:
         1f:f4:09:a1:1a:f4:88:48:da:da:4e:5b:2f:fc:6a:8b:bf:b5:
         85:e0:64:88:94:96:dc:db:e8:93:6e:7e:cd:78:11:1b:cf:10:
         13:31:c2:12:75:fa:26:83:a7:af:56:de:95:89:9e:ec:89:8d:
         9f:c7:bb:a9:d9:d6:d9:04:c4:35:4b:32:f8:0c:e3:15:b4:6b:
         8c:6a:d7:a3:04:36:08:9a:e1:a3:ea:79:88:a8:4e:69:04:6b:
         e5:0b:b0:ea:34:e1:c1:a9:cb:b4:44:67:16:c5:a0:6a:28:15:
         23:54
-----BEGIN CERTIFICATE-----
MIICwjCCAiugAwIBAgIBZjANBgkqhkiG9w0BAQsFADBgMQswCQYDVQQGEwJGUjES
MBAGA1UECAwJYm91cmdvZ25lMQ4wDAYDVQQHDAVkaWpvbjENMAsGA1UECgwEZW9s
ZTELMAkGA1UECwwCY2kxETAPBgNVBAMMCEFDRW9sZUNJMB4XDTE2MDMxNzE0MzU1
N1oXDTI0MDYwMzE0MzU1N1owGTEXMBUGA1UEAwwOaG9ydXMuZXRiMS5sYW4wgZ8w
DQYJKoZIhvcNAQEBBQADgY0AMIGJAoGBAKxgngOywUpqKG32hqln4sqrUFpOBFgs
P7yhOgxSGgt9UpPLum89MrJz63WWGfbxcuZKIpRyyDkV+iO2tCWfjJXBBIA2wQpf
2iP13HC/2+rK4q3UGFbq0Q5rER3jXXqql6pnPpMpnOSi38IAHKuAfdpjDCHUTnXT
tw3fGKL3nHePAgMBAAGjgdIwgc8wCQYDVR0TBAIwADAdBgNVHQ4EFgQUYuRrZ3Ad
Q1xbbDk30aC4CpitgQkwgZIGA1UdIwSBijCBh4AUON9GKTiyE4ulfIBLXqok2yXc
7O6hZKRiMGAxCzAJBgNVBAYTAkZSMRIwEAYDVQQIDAlib3VyZ29nbmUxDjAMBgNV
BAcMBWRpam9uMQ0wCwYDVQQKDARlb2xlMQswCQYDVQQLDAJjaTERMA8GA1UEAwwI
QUNFb2xlQ0mCCQCBWv7lunA4ATAOBgNVHQ8BAf8EBAMCBaAwDQYJKoZIhvcNAQEL
BQADgYEAg2y+Py6mWs/egSzsfIYNOZb4H/QJoRr0iEja2k5bL/xqi7+1heBkiJSW
3Nvok25+zXgRG88QEzHCEnX6JoOnr1belYme7ImNn8e7qdnW2QTENUsy+AzjFbRr
jGrXowQ2CJrho+p5iKhOaQRr5Quw6jThwanLtERnFsWgaigVI1Q=
-----END CERTIFICATE-----
