Certificate:
    Data:
        Version: 3 (0x2)
        Serial Number: 100 (0x64)
    Signature Algorithm: sha256WithRSAEncryption
        Issuer: C=FR, ST=bourgogne, L=dijon, O=eole, OU=ci, CN=ACEoleCI
        Validity
            Not Before: Mar 17 14:35:56 2016 GMT
            Not After : Jun  3 14:35:56 2024 GMT
        Subject: CN=horus.etb1.lan
        Subject Public Key Info:
            Public Key Algorithm: rsaEncryption
                Public-Key: (1024 bit)
                Modulus:
                    00:ac:60:9e:03:b2:c1:4a:6a:28:6d:f6:86:a9:67:
                    e2:ca:ab:50:5a:4e:04:58:2c:3f:bc:a1:3a:0c:52:
                    1a:0b:7d:52:93:cb:ba:6f:3d:32:b2:73:eb:75:96:
                    19:f6:f1:72:e6:4a:22:94:72:c8:39:15:fa:23:b6:
                    b4:25:9f:8c:95:c1:04:80:36:c1:0a:5f:da:23:f5:
                    dc:70:bf:db:ea:ca:e2:ad:d4:18:56:ea:d1:0e:6b:
                    11:1d:e3:5d:7a:aa:97:aa:67:3e:93:29:9c:e4:a2:
                    df:c2:00:1c:ab:80:7d:da:63:0c:21:d4:4e:75:d3:
                    b7:0d:df:18:a2:f7:9c:77:8f
                Exponent: 65537 (0x10001)
        X509v3 extensions:
            X509v3 Basic Constraints: 
                CA:FALSE
            X509v3 Subject Key Identifier: 
                62:E4:6B:67:70:1D:43:5C:5B:6C:39:37:D1:A0:B8:0A:98:AD:81:09
            X509v3 Authority Key Identifier: 
                keyid:38:DF:46:29:38:B2:13:8B:A5:7C:80:4B:5E:AA:24:DB:25:DC:EC:EE
                DirName:/C=FR/ST=bourgogne/L=dijon/O=eole/OU=ci/CN=ACEoleCI
                serial:81:5A:FE:E5:BA:70:38:01

            X509v3 Key Usage: critical
                Digital Signature, Key Encipherment
            X509v3 Extended Key Usage: 
                TLS Web Server Authentication
    Signature Algorithm: sha256WithRSAEncryption
         7b:0a:57:2a:87:ae:89:5d:e7:93:b3:8e:f1:8f:ff:31:03:aa:
         04:57:14:eb:11:10:e8:60:8b:94:ff:0b:56:10:5e:33:99:c7:
         47:27:0a:16:06:c3:a8:b9:6c:09:1c:f5:2d:29:52:a6:de:db:
         77:cd:3c:d7:56:86:fd:9f:69:a3:8c:4f:7b:06:78:2b:83:a2:
         23:34:b8:a0:46:20:67:0e:4c:9f:0a:85:74:ef:a0:cd:98:a8:
         58:42:15:3f:2f:36:f7:fd:58:5f:5c:a4:b3:b5:1b:26:94:47:
         95:14:ab:7d:f9:ad:c2:76:ac:1d:2f:fc:50:13:d3:17:f7:e7:
         ce:b6
-----BEGIN CERTIFICATE-----
MIIC1zCCAkCgAwIBAgIBZDANBgkqhkiG9w0BAQsFADBgMQswCQYDVQQGEwJGUjES
MBAGA1UECAwJYm91cmdvZ25lMQ4wDAYDVQQHDAVkaWpvbjENMAsGA1UECgwEZW9s
ZTELMAkGA1UECwwCY2kxETAPBgNVBAMMCEFDRW9sZUNJMB4XDTE2MDMxNzE0MzU1
NloXDTI0MDYwMzE0MzU1NlowGTEXMBUGA1UEAwwOaG9ydXMuZXRiMS5sYW4wgZ8w
DQYJKoZIhvcNAQEBBQADgY0AMIGJAoGBAKxgngOywUpqKG32hqln4sqrUFpOBFgs
P7yhOgxSGgt9UpPLum89MrJz63WWGfbxcuZKIpRyyDkV+iO2tCWfjJXBBIA2wQpf
2iP13HC/2+rK4q3UGFbq0Q5rER3jXXqql6pnPpMpnOSi38IAHKuAfdpjDCHUTnXT
tw3fGKL3nHePAgMBAAGjgecwgeQwCQYDVR0TBAIwADAdBgNVHQ4EFgQUYuRrZ3Ad
Q1xbbDk30aC4CpitgQkwgZIGA1UdIwSBijCBh4AUON9GKTiyE4ulfIBLXqok2yXc
7O6hZKRiMGAxCzAJBgNVBAYTAkZSMRIwEAYDVQQIDAlib3VyZ29nbmUxDjAMBgNV
BAcMBWRpam9uMQ0wCwYDVQQKDARlb2xlMQswCQYDVQQLDAJjaTERMA8GA1UEAwwI
QUNFb2xlQ0mCCQCBWv7lunA4ATAOBgNVHQ8BAf8EBAMCBaAwEwYDVR0lBAwwCgYI
KwYBBQUHAwEwDQYJKoZIhvcNAQELBQADgYEAewpXKoeuiV3nk7OO8Y//MQOqBFcU
6xEQ6GCLlP8LVhBeM5nHRycKFgbDqLlsCRz1LSlSpt7bd80811aG/Z9po4xPewZ4
K4OiIzS4oEYgZw5MnwqFdO+gzZioWEIVPy829/1YX1yks7UbJpRHlRSrffmtwnas
HS/8UBPTF/fnzrY=
-----END CERTIFICATE-----
