-----BEGIN RSA PRIVATE KEY-----
MIICXAIBAAKBgQDYuNQCmqIPzBZ7xfOj36UAhIG+hnv3BpF7pZqICSiH3EzWs31i
p1t3CQy6R4gRBxEBh7Y+0gP15kTx0giEJVJVu1MS+tD4w84db+iovg0NIc5/cjLq
zOG/RH5nwotB9z72w+5BT1KIopf2Tum8MUOuNqqYLsoZTi8OQ9mRQOOwEwIDAQAB
AoGACOEBpp2pOBZ3cVi506PtAalsG18tIwC84yD0xNADPhWzfDRcVbdfku/m+pbF
p1TvyG1D9Szrhp6JgpLFUIyq4871/IAz525svQ5zGqp4LrKESH1W8LgTjYYd1D7e
KVHCa5ZPHD67xam1WRgcLtyyg/VZKITk3wtCJcONbLUlkTECQQD4cHXjLRwQCwK/
qQ6Pt/hvpfHpUcF2tIRE42kGhgR6FjWWnGu41zrGuFYOZgvOvuCwZctlMnZVqrd4
fFTv4SIZAkEA31FDvIwn/jXCAAlXGV77E7KcccPiluPCCa2l5vtm4D85DQbXOTur
6whC9h6H+F1EhwU3wk8V2TnHCyG3QaIhCwJBAJHyXw7KHUY/canuQqOjS8srDWYn
pSN7AIkHn1c5u7+M9IY59f5sUhcTi1qCEEWwVIbMBiS49FN3KrkZMTyKYWECQCLU
3AnWmo5N+DplOo6cf/DslPYxpW//ik5UJWJHqB4l/lIH1R36LrB0E22sCW01rvCY
YcAO8ct19ZPI6Hp2PU0CQBoC2RRq7vBAMXAncoaqZRaQqiiFbcFa9vLSx+HmGn6O
EHGYFi6nN3Ruhhi/SsyD+ksjl4FECHVPGAZlVMJ0u/k=
-----END RSA PRIVATE KEY-----
Certificate:
    Data:
        Version: 3 (0x2)
        Serial Number: 128 (0x80)
    Signature Algorithm: sha256WithRSAEncryption
        Issuer: C=FR, ST=bourgogne, L=dijon, O=eole, OU=ci, CN=ACEoleCI
        Validity
            Not Before: Mar 17 14:36:04 2016 GMT
            Not After : Jun  3 14:36:04 2024 GMT
        Subject: CN=envole.etb2.lan
        Subject Public Key Info:
            Public Key Algorithm: rsaEncryption
                Public-Key: (1024 bit)
                Modulus:
                    00:d8:b8:d4:02:9a:a2:0f:cc:16:7b:c5:f3:a3:df:
                    a5:00:84:81:be:86:7b:f7:06:91:7b:a5:9a:88:09:
                    28:87:dc:4c:d6:b3:7d:62:a7:5b:77:09:0c:ba:47:
                    88:11:07:11:01:87:b6:3e:d2:03:f5:e6:44:f1:d2:
                    08:84:25:52:55:bb:53:12:fa:d0:f8:c3:ce:1d:6f:
                    e8:a8:be:0d:0d:21:ce:7f:72:32:ea:cc:e1:bf:44:
                    7e:67:c2:8b:41:f7:3e:f6:c3:ee:41:4f:52:88:a2:
                    97:f6:4e:e9:bc:31:43:ae:36:aa:98:2e:ca:19:4e:
                    2f:0e:43:d9:91:40:e3:b0:13
                Exponent: 65537 (0x10001)
        X509v3 extensions:
            X509v3 Basic Constraints: 
                CA:FALSE
            X509v3 Subject Key Identifier: 
                4B:87:F5:51:65:51:61:BA:64:4C:7D:75:56:34:E6:39:42:24:D6:82
            X509v3 Authority Key Identifier: 
                keyid:38:DF:46:29:38:B2:13:8B:A5:7C:80:4B:5E:AA:24:DB:25:DC:EC:EE

            X509v3 Key Usage: critical
                Digital Signature, Non Repudiation, Key Encipherment
            X509v3 Extended Key Usage: 
                TLS Web Client Authentication, E-mail Protection
    Signature Algorithm: sha256WithRSAEncryption
         94:ed:f1:a6:d7:52:ba:40:94:1e:5b:15:6e:8b:f6:a3:2a:93:
         be:66:48:6b:66:bc:85:e4:1b:9f:87:fa:33:08:06:59:a3:21:
         cd:99:3e:53:86:b9:05:78:95:8d:80:eb:29:88:19:92:4e:eb:
         b4:4e:8f:df:f5:7a:00:bf:06:1a:a4:38:4c:cb:a5:8a:fd:0b:
         1b:ee:14:7c:d2:e0:23:e7:3a:40:40:a9:e7:c8:1f:b2:d3:fa:
         0a:15:8d:8f:73:1f:20:cd:ad:b3:c9:41:e1:27:0e:d5:96:04:
         26:f1:fd:7c:fc:7c:37:cf:95:8e:be:5b:5c:46:27:6d:ae:12:
         a9:e5
-----BEGIN CERTIFICATE-----
MIICbTCCAdagAwIBAgICAIAwDQYJKoZIhvcNAQELBQAwYDELMAkGA1UEBhMCRlIx
EjAQBgNVBAgMCWJvdXJnb2duZTEOMAwGA1UEBwwFZGlqb24xDTALBgNVBAoMBGVv
bGUxCzAJBgNVBAsMAmNpMREwDwYDVQQDDAhBQ0VvbGVDSTAeFw0xNjAzMTcxNDM2
MDRaFw0yNDA2MDMxNDM2MDRaMBoxGDAWBgNVBAMMD2Vudm9sZS5ldGIyLmxhbjCB
nzANBgkqhkiG9w0BAQEFAAOBjQAwgYkCgYEA2LjUApqiD8wWe8Xzo9+lAISBvoZ7
9waRe6WaiAkoh9xM1rN9YqdbdwkMukeIEQcRAYe2PtID9eZE8dIIhCVSVbtTEvrQ
+MPOHW/oqL4NDSHOf3Iy6szhv0R+Z8KLQfc+9sPuQU9SiKKX9k7pvDFDrjaqmC7K
GU4vDkPZkUDjsBMCAwEAAaN8MHowCQYDVR0TBAIwADAdBgNVHQ4EFgQUS4f1UWVR
YbpkTH11VjTmOUIk1oIwHwYDVR0jBBgwFoAUON9GKTiyE4ulfIBLXqok2yXc7O4w
DgYDVR0PAQH/BAQDAgXgMB0GA1UdJQQWMBQGCCsGAQUFBwMCBggrBgEFBQcDBDAN
BgkqhkiG9w0BAQsFAAOBgQCU7fGm11K6QJQeWxVui/ajKpO+ZkhrZryF5Bufh/oz
CAZZoyHNmT5ThrkFeJWNgOspiBmSTuu0To/f9XoAvwYapDhMy6WK/Qsb7hR80uAj
5zpAQKnnyB+y0/oKFY2Pcx8gza2zyUHhJw7VlgQm8f18/Hw3z5WOvltcRidtrhKp
5Q==
-----END CERTIFICATE-----
