-----BEGIN RSA PRIVATE KEY-----
MIICXAIBAAKBgQDYuNQCmqIPzBZ7xfOj36UAhIG+hnv3BpF7pZqICSiH3EzWs31i
p1t3CQy6R4gRBxEBh7Y+0gP15kTx0giEJVJVu1MS+tD4w84db+iovg0NIc5/cjLq
zOG/RH5nwotB9z72w+5BT1KIopf2Tum8MUOuNqqYLsoZTi8OQ9mRQOOwEwIDAQAB
AoGACOEBpp2pOBZ3cVi506PtAalsG18tIwC84yD0xNADPhWzfDRcVbdfku/m+pbF
p1TvyG1D9Szrhp6JgpLFUIyq4871/IAz525svQ5zGqp4LrKESH1W8LgTjYYd1D7e
KVHCa5ZPHD67xam1WRgcLtyyg/VZKITk3wtCJcONbLUlkTECQQD4cHXjLRwQCwK/
qQ6Pt/hvpfHpUcF2tIRE42kGhgR6FjWWnGu41zrGuFYOZgvOvuCwZctlMnZVqrd4
fFTv4SIZAkEA31FDvIwn/jXCAAlXGV77E7KcccPiluPCCa2l5vtm4D85DQbXOTur
6whC9h6H+F1EhwU3wk8V2TnHCyG3QaIhCwJBAJHyXw7KHUY/canuQqOjS8srDWYn
pSN7AIkHn1c5u7+M9IY59f5sUhcTi1qCEEWwVIbMBiS49FN3KrkZMTyKYWECQCLU
3AnWmo5N+DplOo6cf/DslPYxpW//ik5UJWJHqB4l/lIH1R36LrB0E22sCW01rvCY
YcAO8ct19ZPI6Hp2PU0CQBoC2RRq7vBAMXAncoaqZRaQqiiFbcFa9vLSx+HmGn6O
EHGYFi6nN3Ruhhi/SsyD+ksjl4FECHVPGAZlVMJ0u/k=
-----END RSA PRIVATE KEY-----
Certificate:
    Data:
        Version: 3 (0x2)
        Serial Number: 129 (0x81)
    Signature Algorithm: sha256WithRSAEncryption
        Issuer: C=FR, ST=bourgogne, L=dijon, O=eole, OU=ci, CN=ACEoleCI
        Validity
            Not Before: Mar 17 14:36:04 2016 GMT
            Not After : Jun  3 14:36:04 2024 GMT
        Subject: CN=envole.etb2.lan
        Subject Public Key Info:
            Public Key Algorithm: rsaEncryption
                Public-Key: (1024 bit)
                Modulus:
                    00:d8:b8:d4:02:9a:a2:0f:cc:16:7b:c5:f3:a3:df:
                    a5:00:84:81:be:86:7b:f7:06:91:7b:a5:9a:88:09:
                    28:87:dc:4c:d6:b3:7d:62:a7:5b:77:09:0c:ba:47:
                    88:11:07:11:01:87:b6:3e:d2:03:f5:e6:44:f1:d2:
                    08:84:25:52:55:bb:53:12:fa:d0:f8:c3:ce:1d:6f:
                    e8:a8:be:0d:0d:21:ce:7f:72:32:ea:cc:e1:bf:44:
                    7e:67:c2:8b:41:f7:3e:f6:c3:ee:41:4f:52:88:a2:
                    97:f6:4e:e9:bc:31:43:ae:36:aa:98:2e:ca:19:4e:
                    2f:0e:43:d9:91:40:e3:b0:13
                Exponent: 65537 (0x10001)
        X509v3 extensions:
            X509v3 Basic Constraints: 
                CA:FALSE
            X509v3 Subject Key Identifier: 
                4B:87:F5:51:65:51:61:BA:64:4C:7D:75:56:34:E6:39:42:24:D6:82
            X509v3 Authority Key Identifier: 
                keyid:38:DF:46:29:38:B2:13:8B:A5:7C:80:4B:5E:AA:24:DB:25:DC:EC:EE
                DirName:/C=FR/ST=bourgogne/L=dijon/O=eole/OU=ci/CN=ACEoleCI
                serial:81:5A:FE:E5:BA:70:38:01

            X509v3 Key Usage: critical
                Digital Signature, Key Encipherment
    Signature Algorithm: sha256WithRSAEncryption
         0a:88:a1:0e:55:ed:0d:71:08:69:5c:a9:b8:52:7e:c2:13:54:
         43:22:13:67:70:60:e2:30:ca:b2:1b:53:2e:f6:c5:ce:9a:58:
         8f:5e:30:29:f0:86:a5:8d:ed:e0:27:56:64:ad:41:7f:3b:00:
         bd:e6:2d:b4:39:b9:98:af:c8:55:6c:a7:05:25:0f:da:ba:50:
         b6:d2:cf:cc:6b:4f:24:7a:9c:4b:55:d3:cb:80:05:93:90:78:
         35:ae:bf:61:78:83:74:98:56:93:dc:66:ab:37:9b:90:79:ad:
         cc:3a:c7:f1:55:7b:27:50:10:0c:a9:ec:e5:73:9e:b3:88:85:
         3c:b3
-----BEGIN CERTIFICATE-----
MIICxDCCAi2gAwIBAgICAIEwDQYJKoZIhvcNAQELBQAwYDELMAkGA1UEBhMCRlIx
EjAQBgNVBAgMCWJvdXJnb2duZTEOMAwGA1UEBwwFZGlqb24xDTALBgNVBAoMBGVv
bGUxCzAJBgNVBAsMAmNpMREwDwYDVQQDDAhBQ0VvbGVDSTAeFw0xNjAzMTcxNDM2
MDRaFw0yNDA2MDMxNDM2MDRaMBoxGDAWBgNVBAMMD2Vudm9sZS5ldGIyLmxhbjCB
nzANBgkqhkiG9w0BAQEFAAOBjQAwgYkCgYEA2LjUApqiD8wWe8Xzo9+lAISBvoZ7
9waRe6WaiAkoh9xM1rN9YqdbdwkMukeIEQcRAYe2PtID9eZE8dIIhCVSVbtTEvrQ
+MPOHW/oqL4NDSHOf3Iy6szhv0R+Z8KLQfc+9sPuQU9SiKKX9k7pvDFDrjaqmC7K
GU4vDkPZkUDjsBMCAwEAAaOB0jCBzzAJBgNVHRMEAjAAMB0GA1UdDgQWBBRLh/VR
ZVFhumRMfXVWNOY5QiTWgjCBkgYDVR0jBIGKMIGHgBQ430YpOLITi6V8gEteqiTb
Jdzs7qFkpGIwYDELMAkGA1UEBhMCRlIxEjAQBgNVBAgMCWJvdXJnb2duZTEOMAwG
A1UEBwwFZGlqb24xDTALBgNVBAoMBGVvbGUxCzAJBgNVBAsMAmNpMREwDwYDVQQD
DAhBQ0VvbGVDSYIJAIFa/uW6cDgBMA4GA1UdDwEB/wQEAwIFoDANBgkqhkiG9w0B
AQsFAAOBgQAKiKEOVe0NcQhpXKm4Un7CE1RDIhNncGDiMMqyG1Mu9sXOmliPXjAp
8Ialje3gJ1ZkrUF/OwC95i20ObmYr8hVbKcFJQ/aulC20s/Ma08kepxLVdPLgAWT
kHg1rr9heIN0mFaT3GarN5uQea3MOsfxVXsnUBAMqezlc56ziIU8sw==
-----END CERTIFICATE-----
