Certificate:
    Data:
        Version: 3 (0x2)
        Serial Number: 218 (0xda)
    Signature Algorithm: sha256WithRSAEncryption
        Issuer: C=FR, ST=bourgogne, L=dijon, O=eole, OU=ci, CN=ACEoleCI
        Validity
            Not Before: Mar 17 14:36:25 2016 GMT
            Not After : Jun  3 14:36:25 2024 GMT
        Subject: CN=jenkins-one.eole.lan
        Subject Public Key Info:
            Public Key Algorithm: rsaEncryption
                Public-Key: (1024 bit)
                Modulus:
                    00:c2:dd:94:22:d3:52:a2:f4:a0:68:cd:1c:38:e4:
                    1b:24:eb:8e:a6:c6:8f:10:df:91:76:c7:4c:53:06:
                    e8:b5:08:0c:94:d8:ae:cf:4f:ee:da:50:2e:2d:01:
                    89:be:09:a6:ba:98:c6:e3:ec:5f:7e:40:47:61:aa:
                    49:64:49:8e:34:37:81:52:0e:29:6d:37:e6:2f:20:
                    fb:ea:c7:7d:ef:59:14:9e:81:ea:e2:29:63:50:43:
                    58:34:82:0f:80:22:6d:de:85:77:f5:95:93:48:87:
                    ca:d9:d4:a1:d3:a4:8c:f9:79:0b:2e:8e:ab:31:97:
                    3c:06:55:89:2d:26:d6:49:0b
                Exponent: 65537 (0x10001)
        X509v3 extensions:
            X509v3 Basic Constraints: 
                CA:FALSE
            X509v3 Subject Key Identifier: 
                71:41:48:10:C3:8B:71:BA:34:9F:1B:0D:69:15:6C:7F:2A:12:28:7B
            X509v3 Authority Key Identifier: 
                keyid:38:DF:46:29:38:B2:13:8B:A5:7C:80:4B:5E:AA:24:DB:25:DC:EC:EE

            X509v3 Key Usage: critical
                Digital Signature, Non Repudiation, Key Encipherment
            X509v3 Extended Key Usage: 
                TLS Web Client Authentication, E-mail Protection
    Signature Algorithm: sha256WithRSAEncryption
         0b:b2:25:6c:f7:00:5f:a6:0b:a2:7a:b5:10:b9:fa:8f:31:4e:
         6b:6e:d1:69:33:77:53:bb:ab:4f:97:e0:10:8f:d4:15:43:b6:
         3b:b2:06:1a:f1:23:b2:7b:fc:02:5c:ab:6c:e8:00:7b:a5:23:
         a3:13:8c:6d:c3:fe:4f:6c:42:94:cd:ed:2b:d2:0d:84:b8:52:
         f6:0c:fa:e7:aa:da:45:26:e2:30:c0:0c:d4:b7:a8:4f:f8:b0:
         23:39:b8:88:7c:34:57:7e:03:c6:1f:be:a8:dd:04:3c:14:2a:
         50:c3:e3:6c:a8:7e:63:22:5e:63:b4:86:d4:61:2c:92:4a:8e:
         cc:7d
-----BEGIN CERTIFICATE-----
MIICcjCCAdugAwIBAgICANowDQYJKoZIhvcNAQELBQAwYDELMAkGA1UEBhMCRlIx
EjAQBgNVBAgMCWJvdXJnb2duZTEOMAwGA1UEBwwFZGlqb24xDTALBgNVBAoMBGVv
bGUxCzAJBgNVBAsMAmNpMREwDwYDVQQDDAhBQ0VvbGVDSTAeFw0xNjAzMTcxNDM2
MjVaFw0yNDA2MDMxNDM2MjVaMB8xHTAbBgNVBAMMFGplbmtpbnMtb25lLmVvbGUu
bGFuMIGfMA0GCSqGSIb3DQEBAQUAA4GNADCBiQKBgQDC3ZQi01Ki9KBozRw45Bsk
646mxo8Q35F2x0xTBui1CAyU2K7PT+7aUC4tAYm+Caa6mMbj7F9+QEdhqklkSY40
N4FSDiltN+YvIPvqx33vWRSegeriKWNQQ1g0gg+AIm3ehXf1lZNIh8rZ1KHTpIz5
eQsujqsxlzwGVYktJtZJCwIDAQABo3wwejAJBgNVHRMEAjAAMB0GA1UdDgQWBBRx
QUgQw4txujSfGw1pFWx/KhIoezAfBgNVHSMEGDAWgBQ430YpOLITi6V8gEteqiTb
Jdzs7jAOBgNVHQ8BAf8EBAMCBeAwHQYDVR0lBBYwFAYIKwYBBQUHAwIGCCsGAQUF
BwMEMA0GCSqGSIb3DQEBCwUAA4GBAAuyJWz3AF+mC6J6tRC5+o8xTmtu0Wkzd1O7
q0+X4BCP1BVDtjuyBhrxI7J7/AJcq2zoAHulI6MTjG3D/k9sQpTN7SvSDYS4UvYM
+ueq2kUm4jDADNS3qE/4sCM5uIh8NFd+A8YfvqjdBDwUKlDD42yofmMiXmO0htRh
LJJKjsx9
-----END CERTIFICATE-----
