Certificate:
    Data:
        Version: 3 (0x2)
        Serial Number: 186 (0xba)
    Signature Algorithm: sha256WithRSAEncryption
        Issuer: C=FR, ST=bourgogne, L=dijon, O=eole, OU=ci, CN=ACEoleCI
        Validity
            Not Before: Mar 17 14:36:17 2016 GMT
            Not After : Jun  3 14:36:17 2024 GMT
        Subject: CN=pceleve.etb4.lan
        Subject Public Key Info:
            Public Key Algorithm: rsaEncryption
                Public-Key: (1024 bit)
                Modulus:
                    00:e1:95:03:68:61:b5:26:b2:44:e9:74:d7:83:f7:
                    33:c9:e5:fe:49:09:46:c5:23:55:7e:70:bf:e7:79:
                    1c:68:bf:95:50:f1:14:6d:2d:4f:33:ee:9a:99:c5:
                    19:f6:c0:4a:11:8a:ce:5b:44:73:98:44:a4:cc:1d:
                    f5:8a:c6:e5:33:f1:9c:9e:f1:cd:1d:16:3c:30:30:
                    25:0a:c1:b6:57:e3:49:f0:9f:49:a6:a7:96:42:1e:
                    cd:39:9c:e5:5f:1d:b6:ee:49:cd:fc:8c:8d:ca:e3:
                    41:d2:fb:aa:0d:45:a2:82:31:e6:26:69:f6:e1:33:
                    61:0c:ba:14:9d:b3:db:0d:7b
                Exponent: 65537 (0x10001)
        X509v3 extensions:
            X509v3 Basic Constraints: 
                CA:FALSE
            X509v3 Subject Key Identifier: 
                DE:8A:90:B4:1C:C2:AD:9D:46:79:F0:62:D0:A8:34:44:02:ED:31:87
            X509v3 Authority Key Identifier: 
                keyid:38:DF:46:29:38:B2:13:8B:A5:7C:80:4B:5E:AA:24:DB:25:DC:EC:EE
                DirName:/C=FR/ST=bourgogne/L=dijon/O=eole/OU=ci/CN=ACEoleCI
                serial:81:5A:FE:E5:BA:70:38:01

            X509v3 Key Usage: critical
                Digital Signature, Key Encipherment
    Signature Algorithm: sha256WithRSAEncryption
         1f:81:f3:5f:9b:9f:b2:26:80:2b:5a:80:db:af:bc:d0:07:25:
         01:a6:f1:f2:c8:9e:47:d7:a1:f0:a3:d6:13:cf:13:a3:e4:48:
         36:ab:f9:c3:a8:12:38:be:5c:c5:2e:48:ad:59:a3:5c:22:2f:
         f0:5b:3b:14:ae:5d:b3:c0:37:17:c9:2e:01:43:b5:7c:8b:77:
         84:af:c8:2c:38:4d:0c:30:59:cf:71:11:bc:b9:cc:86:55:fc:
         db:8b:18:5a:1f:26:5c:18:6f:bc:14:2d:fe:46:97:9e:05:34:
         1f:81:86:81:42:61:b7:f4:62:f4:49:18:33:cb:c8:62:8b:6d:
         9b:1a
-----BEGIN CERTIFICATE-----
MIICxTCCAi6gAwIBAgICALowDQYJKoZIhvcNAQELBQAwYDELMAkGA1UEBhMCRlIx
EjAQBgNVBAgMCWJvdXJnb2duZTEOMAwGA1UEBwwFZGlqb24xDTALBgNVBAoMBGVv
bGUxCzAJBgNVBAsMAmNpMREwDwYDVQQDDAhBQ0VvbGVDSTAeFw0xNjAzMTcxNDM2
MTdaFw0yNDA2MDMxNDM2MTdaMBsxGTAXBgNVBAMMEHBjZWxldmUuZXRiNC5sYW4w
gZ8wDQYJKoZIhvcNAQEBBQADgY0AMIGJAoGBAOGVA2hhtSayROl014P3M8nl/kkJ
RsUjVX5wv+d5HGi/lVDxFG0tTzPumpnFGfbAShGKzltEc5hEpMwd9YrG5TPxnJ7x
zR0WPDAwJQrBtlfjSfCfSaanlkIezTmc5V8dtu5JzfyMjcrjQdL7qg1FooIx5iZp
9uEzYQy6FJ2z2w17AgMBAAGjgdIwgc8wCQYDVR0TBAIwADAdBgNVHQ4EFgQU3oqQ
tBzCrZ1GefBi0Kg0RALtMYcwgZIGA1UdIwSBijCBh4AUON9GKTiyE4ulfIBLXqok
2yXc7O6hZKRiMGAxCzAJBgNVBAYTAkZSMRIwEAYDVQQIDAlib3VyZ29nbmUxDjAM
BgNVBAcMBWRpam9uMQ0wCwYDVQQKDARlb2xlMQswCQYDVQQLDAJjaTERMA8GA1UE
AwwIQUNFb2xlQ0mCCQCBWv7lunA4ATAOBgNVHQ8BAf8EBAMCBaAwDQYJKoZIhvcN
AQELBQADgYEAH4HzX5ufsiaAK1qA26+80AclAabx8sieR9eh8KPWE88To+RINqv5
w6gSOL5cxS5IrVmjXCIv8Fs7FK5ds8A3F8kuAUO1fIt3hK/ILDhNDDBZz3ERvLnM
hlX824sYWh8mXBhvvBQt/kaXngU0H4GGgUJht/Ri9EkYM8vIYottmxo=
-----END CERTIFICATE-----
