-----BEGIN RSA PRIVATE KEY-----
MIICXgIBAAKBgQDhlQNoYbUmskTpdNeD9zPJ5f5JCUbFI1V+cL/neRxov5VQ8RRt
LU8z7pqZxRn2wEoRis5bRHOYRKTMHfWKxuUz8Zye8c0dFjwwMCUKwbZX40nwn0mm
p5ZCHs05nOVfHbbuSc38jI3K40HS+6oNRaKCMeYmafbhM2EMuhSds9sNewIDAQAB
AoGALiXM16q9Y1guzs+PUzjcCF6boZdbOfMbh01LhO/6xtcClddrxVXykP4r9G8k
+5ykymfqBTPArhLE39j1JVnBA3gENN8YO19ipf1dn+rrC9ic0eiBJQJU4DpkkpDB
q6rdvuJsRFYjSkDzIfFwYE9sLL8g4yHxk5py6awbb1PCNRECQQDxN2an0xmwAG5Y
174PSDcX0Aj4xzVtQeiDx7P20w/sAtzhoDmV1ibvwaHLgYUWRfHy9ssBqq2yxTl3
2FlwPy+5AkEA72hQuWQczWaPVfaRI/KcOmvv1fVX3Htx430wKAYyAevKX0cfqOoU
pHEvl6T5w1DMStGaU7gmq55mkot7QKh40wJBAO1ew1prVl/oTK6Iv7NyMSTxx6Jp
Bp5ZuWHU57gAwy5RMuOlNIXKk85kEb+d2UWt1wZs7iDZwMynYIIbGQhoZaECQQC/
HVobtQSdH7ta11tkA/+dT58FATcjZlQzUzOHL/Lpv64swx1N/Zd+8nAYsXVE6xI6
w/pbzMzqAahGYhyBMDxLAkEAtrOnsxn2EiTYB2qoWmFrbFuiA2MjLx69F7x98/40
sPxiWasUEWdoqVG1prAoE7/CcVJltG8v6Cf6ugzRH3FdXA==
-----END RSA PRIVATE KEY-----
Certificate:
    Data:
        Version: 3 (0x2)
        Serial Number: 184 (0xb8)
    Signature Algorithm: sha256WithRSAEncryption
        Issuer: C=FR, ST=bourgogne, L=dijon, O=eole, OU=ci, CN=ACEoleCI
        Validity
            Not Before: Mar 17 14:36:17 2016 GMT
            Not After : Jun  3 14:36:17 2024 GMT
        Subject: CN=pceleve.etb4.lan
        Subject Public Key Info:
            Public Key Algorithm: rsaEncryption
                Public-Key: (1024 bit)
                Modulus:
                    00:e1:95:03:68:61:b5:26:b2:44:e9:74:d7:83:f7:
                    33:c9:e5:fe:49:09:46:c5:23:55:7e:70:bf:e7:79:
                    1c:68:bf:95:50:f1:14:6d:2d:4f:33:ee:9a:99:c5:
                    19:f6:c0:4a:11:8a:ce:5b:44:73:98:44:a4:cc:1d:
                    f5:8a:c6:e5:33:f1:9c:9e:f1:cd:1d:16:3c:30:30:
                    25:0a:c1:b6:57:e3:49:f0:9f:49:a6:a7:96:42:1e:
                    cd:39:9c:e5:5f:1d:b6:ee:49:cd:fc:8c:8d:ca:e3:
                    41:d2:fb:aa:0d:45:a2:82:31:e6:26:69:f6:e1:33:
                    61:0c:ba:14:9d:b3:db:0d:7b
                Exponent: 65537 (0x10001)
        X509v3 extensions:
            X509v3 Basic Constraints: 
                CA:FALSE
            X509v3 Subject Key Identifier: 
                DE:8A:90:B4:1C:C2:AD:9D:46:79:F0:62:D0:A8:34:44:02:ED:31:87
            X509v3 Authority Key Identifier: 
                keyid:38:DF:46:29:38:B2:13:8B:A5:7C:80:4B:5E:AA:24:DB:25:DC:EC:EE
                DirName:/C=FR/ST=bourgogne/L=dijon/O=eole/OU=ci/CN=ACEoleCI
                serial:81:5A:FE:E5:BA:70:38:01

            X509v3 Key Usage: critical
                Digital Signature, Key Encipherment
            X509v3 Extended Key Usage: 
                TLS Web Server Authentication
    Signature Algorithm: sha256WithRSAEncryption
         91:a3:3b:a3:93:c0:96:11:72:9e:db:ee:3e:e8:8d:6e:e0:bb:
         e8:8f:81:95:27:3f:8e:da:0d:a6:59:2a:ff:39:eb:d8:17:79:
         a0:f0:72:0b:2b:09:3d:4b:ed:ed:e1:f9:77:aa:be:79:e2:3a:
         17:c2:02:cc:f3:3c:db:1b:e0:6e:09:51:0e:e8:59:3a:8a:3a:
         54:c1:51:59:17:39:57:79:e3:8b:2c:d3:e3:9a:01:a4:6e:57:
         9d:8c:83:a1:76:63:0c:78:10:69:95:ec:63:49:e3:23:99:23:
         18:a6:28:77:03:30:53:6c:e3:bd:42:59:1f:a9:7d:f4:0c:ab:
         f6:a2
-----BEGIN CERTIFICATE-----
MIIC2jCCAkOgAwIBAgICALgwDQYJKoZIhvcNAQELBQAwYDELMAkGA1UEBhMCRlIx
EjAQBgNVBAgMCWJvdXJnb2duZTEOMAwGA1UEBwwFZGlqb24xDTALBgNVBAoMBGVv
bGUxCzAJBgNVBAsMAmNpMREwDwYDVQQDDAhBQ0VvbGVDSTAeFw0xNjAzMTcxNDM2
MTdaFw0yNDA2MDMxNDM2MTdaMBsxGTAXBgNVBAMMEHBjZWxldmUuZXRiNC5sYW4w
gZ8wDQYJKoZIhvcNAQEBBQADgY0AMIGJAoGBAOGVA2hhtSayROl014P3M8nl/kkJ
RsUjVX5wv+d5HGi/lVDxFG0tTzPumpnFGfbAShGKzltEc5hEpMwd9YrG5TPxnJ7x
zR0WPDAwJQrBtlfjSfCfSaanlkIezTmc5V8dtu5JzfyMjcrjQdL7qg1FooIx5iZp
9uEzYQy6FJ2z2w17AgMBAAGjgecwgeQwCQYDVR0TBAIwADAdBgNVHQ4EFgQU3oqQ
tBzCrZ1GefBi0Kg0RALtMYcwgZIGA1UdIwSBijCBh4AUON9GKTiyE4ulfIBLXqok
2yXc7O6hZKRiMGAxCzAJBgNVBAYTAkZSMRIwEAYDVQQIDAlib3VyZ29nbmUxDjAM
BgNVBAcMBWRpam9uMQ0wCwYDVQQKDARlb2xlMQswCQYDVQQLDAJjaTERMA8GA1UE
AwwIQUNFb2xlQ0mCCQCBWv7lunA4ATAOBgNVHQ8BAf8EBAMCBaAwEwYDVR0lBAww
CgYIKwYBBQUHAwEwDQYJKoZIhvcNAQELBQADgYEAkaM7o5PAlhFyntvuPuiNbuC7
6I+BlSc/jtoNplkq/znr2Bd5oPByCysJPUvt7eH5d6q+eeI6F8ICzPM82xvgbglR
DuhZOoo6VMFRWRc5V3njiyzT45oBpG5XnYyDoXZjDHgQaZXsY0njI5kjGKYodwMw
U2zjvUJZH6l99Ayr9qI=
-----END CERTIFICATE-----
