Certificate:
    Data:
        Version: 3 (0x2)
        Serial Number: 23 (0x17)
    Signature Algorithm: sha256WithRSAEncryption
        Issuer: C=FR, ST=bourgogne, L=dijon, O=eole, OU=ci, CN=ACEoleCI
        Validity
            Not Before: Mar 17 14:35:34 2016 GMT
            Not After : Jun  3 14:35:34 2024 GMT
        Subject: CN=esbl.ac-test.lan
        Subject Public Key Info:
            Public Key Algorithm: rsaEncryption
                Public-Key: (1024 bit)
                Modulus:
                    00:de:78:9d:bd:94:36:b1:38:7e:6e:79:a3:fc:45:
                    f3:f3:c7:2a:0d:5c:c1:62:e9:ab:8e:ad:f3:81:33:
                    06:64:1c:3e:2b:f7:85:82:aa:d6:10:c6:fe:97:da:
                    62:6a:6b:b8:91:1f:9b:a6:cf:8a:fb:e9:08:50:a6:
                    c4:aa:f2:ae:9d:63:ba:f7:90:d9:05:25:81:2f:1e:
                    cb:dc:04:e0:c4:3b:19:00:6b:6f:9e:a6:90:b2:46:
                    19:c9:84:ca:3a:27:a9:d6:f9:23:79:c6:35:bf:c3:
                    c8:8f:7f:f7:5f:ed:25:33:5c:b8:ba:86:2a:b7:69:
                    7b:f0:da:30:1b:98:fa:d2:75
                Exponent: 65537 (0x10001)
        X509v3 extensions:
            X509v3 Basic Constraints: 
                CA:FALSE
            X509v3 Subject Key Identifier: 
                45:43:15:B3:A0:72:99:4F:D0:F4:E4:2A:BE:24:87:1D:28:0B:6A:49
            X509v3 Authority Key Identifier: 
                keyid:38:DF:46:29:38:B2:13:8B:A5:7C:80:4B:5E:AA:24:DB:25:DC:EC:EE

            X509v3 Key Usage: critical
                Digital Signature, Non Repudiation, Key Encipherment
            X509v3 Extended Key Usage: 
                TLS Web Client Authentication, E-mail Protection
    Signature Algorithm: sha256WithRSAEncryption
         89:de:c8:de:5d:ec:91:3f:8b:c8:2d:1c:88:1d:44:f1:5d:f2:
         f9:66:19:41:27:3d:78:6f:7a:69:a6:80:b3:94:fa:f2:be:05:
         72:89:e0:9e:54:4c:bb:8b:0f:28:e1:11:23:98:2f:9a:8c:d9:
         ac:31:c1:0d:2d:69:8c:c3:10:d9:95:a4:b6:a8:1f:00:29:40:
         dc:07:d0:8b:18:dd:cc:7d:20:7b:61:10:9c:83:6c:00:17:3e:
         7d:49:d5:6e:fc:c8:f7:17:58:ec:f1:64:1b:4d:a6:cf:7f:0b:
         48:c5:84:09:40:db:42:10:aa:e2:89:9b:01:ee:12:51:b4:2e:
         c7:39
-----BEGIN CERTIFICATE-----
MIICbTCCAdagAwIBAgIBFzANBgkqhkiG9w0BAQsFADBgMQswCQYDVQQGEwJGUjES
MBAGA1UECAwJYm91cmdvZ25lMQ4wDAYDVQQHDAVkaWpvbjENMAsGA1UECgwEZW9s
ZTELMAkGA1UECwwCY2kxETAPBgNVBAMMCEFDRW9sZUNJMB4XDTE2MDMxNzE0MzUz
NFoXDTI0MDYwMzE0MzUzNFowGzEZMBcGA1UEAwwQZXNibC5hYy10ZXN0LmxhbjCB
nzANBgkqhkiG9w0BAQEFAAOBjQAwgYkCgYEA3nidvZQ2sTh+bnmj/EXz88cqDVzB
Yumrjq3zgTMGZBw+K/eFgqrWEMb+l9piamu4kR+bps+K++kIUKbEqvKunWO695DZ
BSWBLx7L3ATgxDsZAGtvnqaQskYZyYTKOiep1vkjecY1v8PIj3/3X+0lM1y4uoYq
t2l78NowG5j60nUCAwEAAaN8MHowCQYDVR0TBAIwADAdBgNVHQ4EFgQURUMVs6By
mU/Q9OQqviSHHSgLakkwHwYDVR0jBBgwFoAUON9GKTiyE4ulfIBLXqok2yXc7O4w
DgYDVR0PAQH/BAQDAgXgMB0GA1UdJQQWMBQGCCsGAQUFBwMCBggrBgEFBQcDBDAN
BgkqhkiG9w0BAQsFAAOBgQCJ3sjeXeyRP4vILRyIHUTxXfL5ZhlBJz14b3pppoCz
lPryvgVyieCeVEy7iw8o4REjmC+ajNmsMcENLWmMwxDZlaS2qB8AKUDcB9CLGN3M
fSB7YRCcg2wAFz59SdVu/Mj3F1js8WQbTabPfwtIxYQJQNtCEKriiZsB7hJRtC7H
OQ==
-----END CERTIFICATE-----
