-----BEGIN RSA PRIVATE KEY-----
MIICXQIBAAKBgQCdzxnWR/nTXZHAET9Np6JgkowOvyhDw5bwobSdxX56fVT+BuaU
rEFnKA8x4VLrOA0y5WXC8cWbHlct1RlAcaQOwwbWKGwZe4Lb1wSDY/lDBND0J+tt
QGAIqaQGcWFkmR63I2ArIhtuWa11bBWj82qEp/bXper6vWMsMRk9aJMuXQIDAQAB
AoGAVoUEOlpN2xdy4GXUWiPtP5s5FKCzV6u1ZoqRtupfdJKgdYGdC6gBV6g75HIP
/wxFGEFy8FWTrH8O9v7dkFp9wgmyo/bzQIG8NSzUubWa+w/YUdJA4Io79NBmxPC+
a5vj30NfKVmHg3QPmmFt+vbrBzaO6bDdaIL7HtPIlFFAKwECQQDNUyrrHcMdfk6N
/eOSIdYiMnGpfuT7gHPmJkttyr5VEtU/uhPfTc5XJWPzq5THPBkS2tHDnf4owSbo
q1prP0OdAkEAxMHJFLb0RgfdlMNKmRZ7XS8PNDNFoy4sj7YXlRv5BIwMeOU34V2q
pKBuiny800OogmCncmCG9lDp5WC5/Nx5wQJAAYnM+YP4kUD//6pWSSL9wrXUCiwM
NSIqPCAvUnxBXsvMUzTmrzabBCYgkJPJgpCds3l2Ntv5Kn7/9qBKBiGsNQJBALjq
i2oNfEwo7kX2uLBh4bU1GivsGAGBzt2NvGIl9QYh/ULN4pPK7SploR5El05SYxeN
cTHcqFrstrYeDw4nw8ECQQCwl9nMdrv9eELe3njfFh18PLTuzelSgR3kG+BL8LSQ
8tU3KLs/Rrw4ZdNE7nXo2Nv0Zn4InGqycE6stYRvcZtK
-----END RSA PRIVATE KEY-----
Certificate:
    Data:
        Version: 3 (0x2)
        Serial Number: 61 (0x3d)
    Signature Algorithm: sha256WithRSAEncryption
        Issuer: C=FR, ST=bourgogne, L=dijon, O=eole, OU=ci, CN=ACEoleCI
        Validity
            Not Before: Mar 17 14:35:44 2016 GMT
            Not After : Jun  3 14:35:44 2024 GMT
        Subject: CN=seshat.ac-test.lan
        Subject Public Key Info:
            Public Key Algorithm: rsaEncryption
                Public-Key: (1024 bit)
                Modulus:
                    00:9d:cf:19:d6:47:f9:d3:5d:91:c0:11:3f:4d:a7:
                    a2:60:92:8c:0e:bf:28:43:c3:96:f0:a1:b4:9d:c5:
                    7e:7a:7d:54:fe:06:e6:94:ac:41:67:28:0f:31:e1:
                    52:eb:38:0d:32:e5:65:c2:f1:c5:9b:1e:57:2d:d5:
                    19:40:71:a4:0e:c3:06:d6:28:6c:19:7b:82:db:d7:
                    04:83:63:f9:43:04:d0:f4:27:eb:6d:40:60:08:a9:
                    a4:06:71:61:64:99:1e:b7:23:60:2b:22:1b:6e:59:
                    ad:75:6c:15:a3:f3:6a:84:a7:f6:d7:a5:ea:fa:bd:
                    63:2c:31:19:3d:68:93:2e:5d
                Exponent: 65537 (0x10001)
        X509v3 extensions:
            X509v3 Basic Constraints: 
                CA:FALSE
            X509v3 Subject Key Identifier: 
                39:95:B4:14:78:F1:1D:4D:9B:60:C2:81:88:62:86:14:C1:CB:30:58
            X509v3 Authority Key Identifier: 
                keyid:38:DF:46:29:38:B2:13:8B:A5:7C:80:4B:5E:AA:24:DB:25:DC:EC:EE
                DirName:/C=FR/ST=bourgogne/L=dijon/O=eole/OU=ci/CN=ACEoleCI
                serial:81:5A:FE:E5:BA:70:38:01

            X509v3 Key Usage: critical
                Digital Signature, Key Encipherment
            X509v3 Extended Key Usage: 
                TLS Web Server Authentication
    Signature Algorithm: sha256WithRSAEncryption
         0e:b2:6e:cc:ae:bc:04:e5:dd:10:91:c2:ca:28:f9:1f:d9:ef:
         0c:4d:62:24:92:a5:d8:50:8d:f1:65:e7:44:b6:c8:30:bc:f5:
         47:b4:b1:e6:42:60:9e:d8:47:d9:c2:da:5f:b8:d6:56:41:fb:
         15:eb:55:d6:ba:b3:60:fe:05:e4:89:cf:67:56:02:30:8f:ef:
         a5:4f:11:dd:58:09:cf:30:95:e9:b5:5f:33:f1:21:ab:de:73:
         ae:77:c1:4c:a9:86:2b:3d:40:bf:06:cc:52:0f:63:98:83:3b:
         d0:8f:60:b1:35:c1:a2:ce:00:59:14:2d:83:b7:7b:6f:3b:26:
         17:d5
-----BEGIN CERTIFICATE-----
MIIC2zCCAkSgAwIBAgIBPTANBgkqhkiG9w0BAQsFADBgMQswCQYDVQQGEwJGUjES
MBAGA1UECAwJYm91cmdvZ25lMQ4wDAYDVQQHDAVkaWpvbjENMAsGA1UECgwEZW9s
ZTELMAkGA1UECwwCY2kxETAPBgNVBAMMCEFDRW9sZUNJMB4XDTE2MDMxNzE0MzU0
NFoXDTI0MDYwMzE0MzU0NFowHTEbMBkGA1UEAwwSc2VzaGF0LmFjLXRlc3QubGFu
MIGfMA0GCSqGSIb3DQEBAQUAA4GNADCBiQKBgQCdzxnWR/nTXZHAET9Np6JgkowO
vyhDw5bwobSdxX56fVT+BuaUrEFnKA8x4VLrOA0y5WXC8cWbHlct1RlAcaQOwwbW
KGwZe4Lb1wSDY/lDBND0J+ttQGAIqaQGcWFkmR63I2ArIhtuWa11bBWj82qEp/bX
per6vWMsMRk9aJMuXQIDAQABo4HnMIHkMAkGA1UdEwQCMAAwHQYDVR0OBBYEFDmV
tBR48R1Nm2DCgYhihhTByzBYMIGSBgNVHSMEgYowgYeAFDjfRik4shOLpXyAS16q
JNsl3OzuoWSkYjBgMQswCQYDVQQGEwJGUjESMBAGA1UECAwJYm91cmdvZ25lMQ4w
DAYDVQQHDAVkaWpvbjENMAsGA1UECgwEZW9sZTELMAkGA1UECwwCY2kxETAPBgNV
BAMMCEFDRW9sZUNJggkAgVr+5bpwOAEwDgYDVR0PAQH/BAQDAgWgMBMGA1UdJQQM
MAoGCCsGAQUFBwMBMA0GCSqGSIb3DQEBCwUAA4GBAA6ybsyuvATl3RCRwsoo+R/Z
7wxNYiSSpdhQjfFl50S2yDC89Ue0seZCYJ7YR9nC2l+41lZB+xXrVda6s2D+BeSJ
z2dWAjCP76VPEd1YCc8wlem1XzPxIavec653wUyphis9QL8GzFIPY5iDO9CPYLE1
waLOAFkULYO3e287JhfV
-----END CERTIFICATE-----
