-----BEGIN RSA PRIVATE KEY-----
MIICXQIBAAKBgQCdzxnWR/nTXZHAET9Np6JgkowOvyhDw5bwobSdxX56fVT+BuaU
rEFnKA8x4VLrOA0y5WXC8cWbHlct1RlAcaQOwwbWKGwZe4Lb1wSDY/lDBND0J+tt
QGAIqaQGcWFkmR63I2ArIhtuWa11bBWj82qEp/bXper6vWMsMRk9aJMuXQIDAQAB
AoGAVoUEOlpN2xdy4GXUWiPtP5s5FKCzV6u1ZoqRtupfdJKgdYGdC6gBV6g75HIP
/wxFGEFy8FWTrH8O9v7dkFp9wgmyo/bzQIG8NSzUubWa+w/YUdJA4Io79NBmxPC+
a5vj30NfKVmHg3QPmmFt+vbrBzaO6bDdaIL7HtPIlFFAKwECQQDNUyrrHcMdfk6N
/eOSIdYiMnGpfuT7gHPmJkttyr5VEtU/uhPfTc5XJWPzq5THPBkS2tHDnf4owSbo
q1prP0OdAkEAxMHJFLb0RgfdlMNKmRZ7XS8PNDNFoy4sj7YXlRv5BIwMeOU34V2q
pKBuiny800OogmCncmCG9lDp5WC5/Nx5wQJAAYnM+YP4kUD//6pWSSL9wrXUCiwM
NSIqPCAvUnxBXsvMUzTmrzabBCYgkJPJgpCds3l2Ntv5Kn7/9qBKBiGsNQJBALjq
i2oNfEwo7kX2uLBh4bU1GivsGAGBzt2NvGIl9QYh/ULN4pPK7SploR5El05SYxeN
cTHcqFrstrYeDw4nw8ECQQCwl9nMdrv9eELe3njfFh18PLTuzelSgR3kG+BL8LSQ
8tU3KLs/Rrw4ZdNE7nXo2Nv0Zn4InGqycE6stYRvcZtK
-----END RSA PRIVATE KEY-----
Certificate:
    Data:
        Version: 3 (0x2)
        Serial Number: 62 (0x3e)
    Signature Algorithm: sha256WithRSAEncryption
        Issuer: C=FR, ST=bourgogne, L=dijon, O=eole, OU=ci, CN=ACEoleCI
        Validity
            Not Before: Mar 17 14:35:45 2016 GMT
            Not After : Jun  3 14:35:45 2024 GMT
        Subject: CN=seshat.ac-test.lan
        Subject Public Key Info:
            Public Key Algorithm: rsaEncryption
                Public-Key: (1024 bit)
                Modulus:
                    00:9d:cf:19:d6:47:f9:d3:5d:91:c0:11:3f:4d:a7:
                    a2:60:92:8c:0e:bf:28:43:c3:96:f0:a1:b4:9d:c5:
                    7e:7a:7d:54:fe:06:e6:94:ac:41:67:28:0f:31:e1:
                    52:eb:38:0d:32:e5:65:c2:f1:c5:9b:1e:57:2d:d5:
                    19:40:71:a4:0e:c3:06:d6:28:6c:19:7b:82:db:d7:
                    04:83:63:f9:43:04:d0:f4:27:eb:6d:40:60:08:a9:
                    a4:06:71:61:64:99:1e:b7:23:60:2b:22:1b:6e:59:
                    ad:75:6c:15:a3:f3:6a:84:a7:f6:d7:a5:ea:fa:bd:
                    63:2c:31:19:3d:68:93:2e:5d
                Exponent: 65537 (0x10001)
        X509v3 extensions:
            X509v3 Basic Constraints: 
                CA:FALSE
            X509v3 Subject Key Identifier: 
                39:95:B4:14:78:F1:1D:4D:9B:60:C2:81:88:62:86:14:C1:CB:30:58
            X509v3 Authority Key Identifier: 
                keyid:38:DF:46:29:38:B2:13:8B:A5:7C:80:4B:5E:AA:24:DB:25:DC:EC:EE

            X509v3 Key Usage: critical
                Digital Signature, Non Repudiation, Key Encipherment
            X509v3 Extended Key Usage: 
                TLS Web Client Authentication, E-mail Protection
    Signature Algorithm: sha256WithRSAEncryption
         21:f1:68:de:fd:43:a1:06:4a:ad:39:2d:e6:cc:aa:d2:a8:56:
         3a:e6:2f:e5:c4:fe:c1:58:3f:d5:97:6b:71:4f:a7:58:ac:45:
         b8:0e:ca:e3:50:c5:b4:86:0f:e8:17:36:c4:43:b6:45:25:56:
         30:c3:13:fb:fd:53:0e:2e:a8:47:e9:68:de:6b:c9:40:f9:89:
         34:e3:91:53:b6:7d:69:01:ed:3d:a7:49:a3:87:2e:2f:77:20:
         01:cc:1a:1b:e0:60:f2:f1:b7:47:bc:e5:2f:20:78:e8:e2:99:
         d1:f8:e4:03:df:61:3d:c7:b0:5c:4f:5d:93:1a:cb:12:f0:27:
         c3:d3
-----BEGIN CERTIFICATE-----
MIICbzCCAdigAwIBAgIBPjANBgkqhkiG9w0BAQsFADBgMQswCQYDVQQGEwJGUjES
MBAGA1UECAwJYm91cmdvZ25lMQ4wDAYDVQQHDAVkaWpvbjENMAsGA1UECgwEZW9s
ZTELMAkGA1UECwwCY2kxETAPBgNVBAMMCEFDRW9sZUNJMB4XDTE2MDMxNzE0MzU0
NVoXDTI0MDYwMzE0MzU0NVowHTEbMBkGA1UEAwwSc2VzaGF0LmFjLXRlc3QubGFu
MIGfMA0GCSqGSIb3DQEBAQUAA4GNADCBiQKBgQCdzxnWR/nTXZHAET9Np6JgkowO
vyhDw5bwobSdxX56fVT+BuaUrEFnKA8x4VLrOA0y5WXC8cWbHlct1RlAcaQOwwbW
KGwZe4Lb1wSDY/lDBND0J+ttQGAIqaQGcWFkmR63I2ArIhtuWa11bBWj82qEp/bX
per6vWMsMRk9aJMuXQIDAQABo3wwejAJBgNVHRMEAjAAMB0GA1UdDgQWBBQ5lbQU
ePEdTZtgwoGIYoYUwcswWDAfBgNVHSMEGDAWgBQ430YpOLITi6V8gEteqiTbJdzs
7jAOBgNVHQ8BAf8EBAMCBeAwHQYDVR0lBBYwFAYIKwYBBQUHAwIGCCsGAQUFBwME
MA0GCSqGSIb3DQEBCwUAA4GBACHxaN79Q6EGSq05LebMqtKoVjrmL+XE/sFYP9WX
a3FPp1isRbgOyuNQxbSGD+gXNsRDtkUlVjDDE/v9Uw4uqEfpaN5ryUD5iTTjkVO2
fWkB7T2nSaOHLi93IAHMGhvgYPLxt0e85S8geOjimdH45APfYT3HsFxPXZMayxLw
J8PT
-----END CERTIFICATE-----
