-----BEGIN RSA PRIVATE KEY-----
MIICXQIBAAKBgQCdzxnWR/nTXZHAET9Np6JgkowOvyhDw5bwobSdxX56fVT+BuaU
rEFnKA8x4VLrOA0y5WXC8cWbHlct1RlAcaQOwwbWKGwZe4Lb1wSDY/lDBND0J+tt
QGAIqaQGcWFkmR63I2ArIhtuWa11bBWj82qEp/bXper6vWMsMRk9aJMuXQIDAQAB
AoGAVoUEOlpN2xdy4GXUWiPtP5s5FKCzV6u1ZoqRtupfdJKgdYGdC6gBV6g75HIP
/wxFGEFy8FWTrH8O9v7dkFp9wgmyo/bzQIG8NSzUubWa+w/YUdJA4Io79NBmxPC+
a5vj30NfKVmHg3QPmmFt+vbrBzaO6bDdaIL7HtPIlFFAKwECQQDNUyrrHcMdfk6N
/eOSIdYiMnGpfuT7gHPmJkttyr5VEtU/uhPfTc5XJWPzq5THPBkS2tHDnf4owSbo
q1prP0OdAkEAxMHJFLb0RgfdlMNKmRZ7XS8PNDNFoy4sj7YXlRv5BIwMeOU34V2q
pKBuiny800OogmCncmCG9lDp5WC5/Nx5wQJAAYnM+YP4kUD//6pWSSL9wrXUCiwM
NSIqPCAvUnxBXsvMUzTmrzabBCYgkJPJgpCds3l2Ntv5Kn7/9qBKBiGsNQJBALjq
i2oNfEwo7kX2uLBh4bU1GivsGAGBzt2NvGIl9QYh/ULN4pPK7SploR5El05SYxeN
cTHcqFrstrYeDw4nw8ECQQCwl9nMdrv9eELe3njfFh18PLTuzelSgR3kG+BL8LSQ
8tU3KLs/Rrw4ZdNE7nXo2Nv0Zn4InGqycE6stYRvcZtK
-----END RSA PRIVATE KEY-----
Certificate:
    Data:
        Version: 3 (0x2)
        Serial Number: 63 (0x3f)
    Signature Algorithm: sha256WithRSAEncryption
        Issuer: C=FR, ST=bourgogne, L=dijon, O=eole, OU=ci, CN=ACEoleCI
        Validity
            Not Before: Mar 17 14:35:45 2016 GMT
            Not After : Jun  3 14:35:45 2024 GMT
        Subject: CN=seshat.ac-test.lan
        Subject Public Key Info:
            Public Key Algorithm: rsaEncryption
                Public-Key: (1024 bit)
                Modulus:
                    00:9d:cf:19:d6:47:f9:d3:5d:91:c0:11:3f:4d:a7:
                    a2:60:92:8c:0e:bf:28:43:c3:96:f0:a1:b4:9d:c5:
                    7e:7a:7d:54:fe:06:e6:94:ac:41:67:28:0f:31:e1:
                    52:eb:38:0d:32:e5:65:c2:f1:c5:9b:1e:57:2d:d5:
                    19:40:71:a4:0e:c3:06:d6:28:6c:19:7b:82:db:d7:
                    04:83:63:f9:43:04:d0:f4:27:eb:6d:40:60:08:a9:
                    a4:06:71:61:64:99:1e:b7:23:60:2b:22:1b:6e:59:
                    ad:75:6c:15:a3:f3:6a:84:a7:f6:d7:a5:ea:fa:bd:
                    63:2c:31:19:3d:68:93:2e:5d
                Exponent: 65537 (0x10001)
        X509v3 extensions:
            X509v3 Basic Constraints: 
                CA:FALSE
            X509v3 Subject Key Identifier: 
                39:95:B4:14:78:F1:1D:4D:9B:60:C2:81:88:62:86:14:C1:CB:30:58
            X509v3 Authority Key Identifier: 
                keyid:38:DF:46:29:38:B2:13:8B:A5:7C:80:4B:5E:AA:24:DB:25:DC:EC:EE
                DirName:/C=FR/ST=bourgogne/L=dijon/O=eole/OU=ci/CN=ACEoleCI
                serial:81:5A:FE:E5:BA:70:38:01

            X509v3 Key Usage: critical
                Digital Signature, Key Encipherment
    Signature Algorithm: sha256WithRSAEncryption
         86:57:15:38:0f:60:c2:78:2b:7e:d9:16:c7:ae:46:49:6c:bf:
         7b:cc:81:71:4b:05:8d:3c:f4:96:46:ad:d3:52:5e:90:ac:b6:
         a7:65:0c:2a:6d:35:5a:02:d2:e7:a8:b2:25:a3:17:e5:e5:9c:
         bf:31:44:d1:3c:eb:17:c6:e3:94:f6:d5:3f:00:65:47:28:2a:
         13:f9:0d:55:cf:ad:f0:71:8b:49:ad:38:8a:3f:65:cc:94:02:
         91:a3:3c:46:88:2f:9f:3e:f4:b8:64:c9:73:dd:e5:24:5e:5c:
         bb:4e:48:0e:8b:b8:a0:9d:03:79:a2:0c:b1:81:dd:72:6c:e5:
         08:d1
-----BEGIN CERTIFICATE-----
MIICxjCCAi+gAwIBAgIBPzANBgkqhkiG9w0BAQsFADBgMQswCQYDVQQGEwJGUjES
MBAGA1UECAwJYm91cmdvZ25lMQ4wDAYDVQQHDAVkaWpvbjENMAsGA1UECgwEZW9s
ZTELMAkGA1UECwwCY2kxETAPBgNVBAMMCEFDRW9sZUNJMB4XDTE2MDMxNzE0MzU0
NVoXDTI0MDYwMzE0MzU0NVowHTEbMBkGA1UEAwwSc2VzaGF0LmFjLXRlc3QubGFu
MIGfMA0GCSqGSIb3DQEBAQUAA4GNADCBiQKBgQCdzxnWR/nTXZHAET9Np6JgkowO
vyhDw5bwobSdxX56fVT+BuaUrEFnKA8x4VLrOA0y5WXC8cWbHlct1RlAcaQOwwbW
KGwZe4Lb1wSDY/lDBND0J+ttQGAIqaQGcWFkmR63I2ArIhtuWa11bBWj82qEp/bX
per6vWMsMRk9aJMuXQIDAQABo4HSMIHPMAkGA1UdEwQCMAAwHQYDVR0OBBYEFDmV
tBR48R1Nm2DCgYhihhTByzBYMIGSBgNVHSMEgYowgYeAFDjfRik4shOLpXyAS16q
JNsl3OzuoWSkYjBgMQswCQYDVQQGEwJGUjESMBAGA1UECAwJYm91cmdvZ25lMQ4w
DAYDVQQHDAVkaWpvbjENMAsGA1UECgwEZW9sZTELMAkGA1UECwwCY2kxETAPBgNV
BAMMCEFDRW9sZUNJggkAgVr+5bpwOAEwDgYDVR0PAQH/BAQDAgWgMA0GCSqGSIb3
DQEBCwUAA4GBAIZXFTgPYMJ4K37ZFseuRklsv3vMgXFLBY089JZGrdNSXpCstqdl
DCptNVoC0ueosiWjF+XlnL8xRNE86xfG45T21T8AZUcoKhP5DVXPrfBxi0mtOIo/
ZcyUApGjPEaIL58+9LhkyXPd5SReXLtOSA6LuKCdA3miDLGB3XJs5QjR
-----END CERTIFICATE-----
