-----BEGIN RSA PRIVATE KEY-----
MIICXAIBAAKBgQDj+TMqWetGD4OQe2uOWdNQN8W6JS3coeR5uKlTZ7O76Y+JM4Q9
lrcr3JQd5WqCUC6ZQi0XDE/h6gHsTqNDUxRFwUhsCuRvlE6+pOvVEdpQfBxJS38e
kfsC2OfFU7IKGeNzztmTnGI+drfzy6F7+DXzssv8xtBAM9scrPe7S/TIOwIDAQAB
AoGAejqoZjKj5IJ45cRmnIIovD/K8czxU/QxDdomXyOgyEWnwcYvRt5CA3BWsdjJ
TGk1MtK6XjspsVTIByz6eCRZHzHzdBz4angkQiMznSBNe15Am3c+F7IV5niatK+3
hoCfo8n2ONETVgG99hfNWPrsVZTcqz1P2cp7iFked3m88xECQQD9XncCLmI9302A
t6NGYAwPsJcK+9tfRoYwauVfIsRLciXM25NBCLWwLozg2FNLjWDZumkjYNgrCeAZ
cgsRsUftAkEA5lc5u9g5t5rVLRRarpfdFkp9owRIbYRav1saqMYStFSCWaMshuqR
O8a0ND4sgTKlWDMpk0wIxBrYB+GZQxN7xwJBAKxYLHWUXYkesxZiU7LUNIAbq7Jx
/RfC3hZjMCDVglabj7DYj0LGjOgJ0hRDse0Lfxy7WzcQchpcfk5wr6zaPUUCQHLm
yBIARqpkPjsCkEnPz6Wy+wE6vbaD85DJLX9Lb0EtduioESosEM60zGfTK/g2/2wD
+ZVUtHq+uU0VKJLhQTkCQGUIAozlSU2B4IdTeZiZGAsBHnJTailPxgrRZIIZfXd6
OdjaCO2mIymiBnCqbT7eKUVaeHprvxAB/uIfrXKP95Q=
-----END RSA PRIVATE KEY-----
Certificate:
    Data:
        Version: 3 (0x2)
        Serial Number: 81 (0x51)
    Signature Algorithm: sha256WithRSAEncryption
        Issuer: C=FR, ST=bourgogne, L=dijon, O=eole, OU=ci, CN=ACEoleCI
        Validity
            Not Before: Mar 17 14:35:49 2016 GMT
            Not After : Jun  3 14:35:49 2024 GMT
        Subject: CN=zephir.ac-test.lan
        Subject Public Key Info:
            Public Key Algorithm: rsaEncryption
                Public-Key: (1024 bit)
                Modulus:
                    00:e3:f9:33:2a:59:eb:46:0f:83:90:7b:6b:8e:59:
                    d3:50:37:c5:ba:25:2d:dc:a1:e4:79:b8:a9:53:67:
                    b3:bb:e9:8f:89:33:84:3d:96:b7:2b:dc:94:1d:e5:
                    6a:82:50:2e:99:42:2d:17:0c:4f:e1:ea:01:ec:4e:
                    a3:43:53:14:45:c1:48:6c:0a:e4:6f:94:4e:be:a4:
                    eb:d5:11:da:50:7c:1c:49:4b:7f:1e:91:fb:02:d8:
                    e7:c5:53:b2:0a:19:e3:73:ce:d9:93:9c:62:3e:76:
                    b7:f3:cb:a1:7b:f8:35:f3:b2:cb:fc:c6:d0:40:33:
                    db:1c:ac:f7:bb:4b:f4:c8:3b
                Exponent: 65537 (0x10001)
        X509v3 extensions:
            X509v3 Basic Constraints: 
                CA:FALSE
            X509v3 Subject Key Identifier: 
                2F:A1:11:81:01:DB:E4:36:F6:E0:B5:B9:5D:4F:4F:5F:13:86:B9:CA
            X509v3 Authority Key Identifier: 
                keyid:38:DF:46:29:38:B2:13:8B:A5:7C:80:4B:5E:AA:24:DB:25:DC:EC:EE
                DirName:/C=FR/ST=bourgogne/L=dijon/O=eole/OU=ci/CN=ACEoleCI
                serial:81:5A:FE:E5:BA:70:38:01

            X509v3 Key Usage: critical
                Digital Signature, Key Encipherment
    Signature Algorithm: sha256WithRSAEncryption
         3c:0d:32:ef:f3:47:b6:f5:1b:89:f3:46:4e:49:1b:b3:e4:55:
         19:41:29:a0:39:07:25:23:e5:dc:cf:58:bb:fc:83:40:67:f8:
         aa:4e:31:b6:f6:44:f7:1d:c3:d9:d0:32:85:b9:f8:0b:8d:17:
         9a:cc:52:de:89:d7:70:71:46:64:05:d8:0d:59:10:05:46:7e:
         2e:61:35:3c:61:1e:e9:d8:8d:96:d0:80:c6:b0:1d:fe:1e:2d:
         fd:49:9d:aa:45:db:ca:6e:16:77:57:85:a5:b8:e4:08:6f:a2:
         cb:03:57:2a:25:85:27:9d:44:83:31:72:a3:49:bb:4d:c5:d4:
         a8:ed
-----BEGIN CERTIFICATE-----
MIICxjCCAi+gAwIBAgIBUTANBgkqhkiG9w0BAQsFADBgMQswCQYDVQQGEwJGUjES
MBAGA1UECAwJYm91cmdvZ25lMQ4wDAYDVQQHDAVkaWpvbjENMAsGA1UECgwEZW9s
ZTELMAkGA1UECwwCY2kxETAPBgNVBAMMCEFDRW9sZUNJMB4XDTE2MDMxNzE0MzU0
OVoXDTI0MDYwMzE0MzU0OVowHTEbMBkGA1UEAwwSemVwaGlyLmFjLXRlc3QubGFu
MIGfMA0GCSqGSIb3DQEBAQUAA4GNADCBiQKBgQDj+TMqWetGD4OQe2uOWdNQN8W6
JS3coeR5uKlTZ7O76Y+JM4Q9lrcr3JQd5WqCUC6ZQi0XDE/h6gHsTqNDUxRFwUhs
CuRvlE6+pOvVEdpQfBxJS38ekfsC2OfFU7IKGeNzztmTnGI+drfzy6F7+DXzssv8
xtBAM9scrPe7S/TIOwIDAQABo4HSMIHPMAkGA1UdEwQCMAAwHQYDVR0OBBYEFC+h
EYEB2+Q29uC1uV1PT18ThrnKMIGSBgNVHSMEgYowgYeAFDjfRik4shOLpXyAS16q
JNsl3OzuoWSkYjBgMQswCQYDVQQGEwJGUjESMBAGA1UECAwJYm91cmdvZ25lMQ4w
DAYDVQQHDAVkaWpvbjENMAsGA1UECgwEZW9sZTELMAkGA1UECwwCY2kxETAPBgNV
BAMMCEFDRW9sZUNJggkAgVr+5bpwOAEwDgYDVR0PAQH/BAQDAgWgMA0GCSqGSIb3
DQEBCwUAA4GBADwNMu/zR7b1G4nzRk5JG7PkVRlBKaA5ByUj5dzPWLv8g0Bn+KpO
Mbb2RPcdw9nQMoW5+AuNF5rMUt6J13BxRmQF2A1ZEAVGfi5hNTxhHunYjZbQgMaw
Hf4eLf1JnapF28puFndXhaW45AhvossDVyolhSedRIMxcqNJu03F1Kjt
-----END CERTIFICATE-----
