Certificate:
    Data:
        Version: 3 (0x2)
        Serial Number: 79 (0x4f)
    Signature Algorithm: sha256WithRSAEncryption
        Issuer: C=FR, ST=bourgogne, L=dijon, O=eole, OU=ci, CN=ACEoleCI
        Validity
            Not Before: Mar 17 14:35:49 2016 GMT
            Not After : Jun  3 14:35:49 2024 GMT
        Subject: CN=zephir.ac-test.lan
        Subject Public Key Info:
            Public Key Algorithm: rsaEncryption
                Public-Key: (1024 bit)
                Modulus:
                    00:e3:f9:33:2a:59:eb:46:0f:83:90:7b:6b:8e:59:
                    d3:50:37:c5:ba:25:2d:dc:a1:e4:79:b8:a9:53:67:
                    b3:bb:e9:8f:89:33:84:3d:96:b7:2b:dc:94:1d:e5:
                    6a:82:50:2e:99:42:2d:17:0c:4f:e1:ea:01:ec:4e:
                    a3:43:53:14:45:c1:48:6c:0a:e4:6f:94:4e:be:a4:
                    eb:d5:11:da:50:7c:1c:49:4b:7f:1e:91:fb:02:d8:
                    e7:c5:53:b2:0a:19:e3:73:ce:d9:93:9c:62:3e:76:
                    b7:f3:cb:a1:7b:f8:35:f3:b2:cb:fc:c6:d0:40:33:
                    db:1c:ac:f7:bb:4b:f4:c8:3b
                Exponent: 65537 (0x10001)
        X509v3 extensions:
            X509v3 Basic Constraints: 
                CA:FALSE
            X509v3 Subject Key Identifier: 
                2F:A1:11:81:01:DB:E4:36:F6:E0:B5:B9:5D:4F:4F:5F:13:86:B9:CA
            X509v3 Authority Key Identifier: 
                keyid:38:DF:46:29:38:B2:13:8B:A5:7C:80:4B:5E:AA:24:DB:25:DC:EC:EE
                DirName:/C=FR/ST=bourgogne/L=dijon/O=eole/OU=ci/CN=ACEoleCI
                serial:81:5A:FE:E5:BA:70:38:01

            X509v3 Key Usage: critical
                Digital Signature, Key Encipherment
            X509v3 Extended Key Usage: 
                TLS Web Server Authentication
    Signature Algorithm: sha256WithRSAEncryption
         33:65:80:e4:24:d2:c6:f8:4e:4e:8f:eb:fd:c4:99:e0:25:7a:
         82:b5:cd:e8:a9:44:f2:ac:1a:c9:39:27:0d:4e:32:35:84:09:
         1d:59:1b:bf:1c:0e:11:97:49:42:dd:13:7c:64:8a:b9:f6:c0:
         3c:3b:ab:c2:ee:4f:8d:78:fd:43:e9:34:e2:9e:ba:30:f9:da:
         71:d4:c1:40:c8:5e:ef:6d:32:07:54:69:d9:ee:0a:13:a3:04:
         cc:f0:c7:2a:fe:88:98:28:da:02:44:36:72:84:0c:0f:68:cc:
         4d:85:94:c9:42:40:6b:89:f5:06:65:6f:48:57:8e:73:3d:f7:
         d5:47
-----BEGIN CERTIFICATE-----
MIIC2zCCAkSgAwIBAgIBTzANBgkqhkiG9w0BAQsFADBgMQswCQYDVQQGEwJGUjES
MBAGA1UECAwJYm91cmdvZ25lMQ4wDAYDVQQHDAVkaWpvbjENMAsGA1UECgwEZW9s
ZTELMAkGA1UECwwCY2kxETAPBgNVBAMMCEFDRW9sZUNJMB4XDTE2MDMxNzE0MzU0
OVoXDTI0MDYwMzE0MzU0OVowHTEbMBkGA1UEAwwSemVwaGlyLmFjLXRlc3QubGFu
MIGfMA0GCSqGSIb3DQEBAQUAA4GNADCBiQKBgQDj+TMqWetGD4OQe2uOWdNQN8W6
JS3coeR5uKlTZ7O76Y+JM4Q9lrcr3JQd5WqCUC6ZQi0XDE/h6gHsTqNDUxRFwUhs
CuRvlE6+pOvVEdpQfBxJS38ekfsC2OfFU7IKGeNzztmTnGI+drfzy6F7+DXzssv8
xtBAM9scrPe7S/TIOwIDAQABo4HnMIHkMAkGA1UdEwQCMAAwHQYDVR0OBBYEFC+h
EYEB2+Q29uC1uV1PT18ThrnKMIGSBgNVHSMEgYowgYeAFDjfRik4shOLpXyAS16q
JNsl3OzuoWSkYjBgMQswCQYDVQQGEwJGUjESMBAGA1UECAwJYm91cmdvZ25lMQ4w
DAYDVQQHDAVkaWpvbjENMAsGA1UECgwEZW9sZTELMAkGA1UECwwCY2kxETAPBgNV
BAMMCEFDRW9sZUNJggkAgVr+5bpwOAEwDgYDVR0PAQH/BAQDAgWgMBMGA1UdJQQM
MAoGCCsGAQUFBwMBMA0GCSqGSIb3DQEBCwUAA4GBADNlgOQk0sb4Tk6P6/3EmeAl
eoK1zeipRPKsGsk5Jw1OMjWECR1ZG78cDhGXSULdE3xkirn2wDw7q8LuT414/UPp
NOKeujD52nHUwUDIXu9tMgdUadnuChOjBMzwxyr+iJgo2gJENnKEDA9ozE2FlMlC
QGuJ9QZlb0hXjnM999VH
-----END CERTIFICATE-----
