-----BEGIN RSA PRIVATE KEY-----
MIICXAIBAAKBgQDj+TMqWetGD4OQe2uOWdNQN8W6JS3coeR5uKlTZ7O76Y+JM4Q9
lrcr3JQd5WqCUC6ZQi0XDE/h6gHsTqNDUxRFwUhsCuRvlE6+pOvVEdpQfBxJS38e
kfsC2OfFU7IKGeNzztmTnGI+drfzy6F7+DXzssv8xtBAM9scrPe7S/TIOwIDAQAB
AoGAejqoZjKj5IJ45cRmnIIovD/K8czxU/QxDdomXyOgyEWnwcYvRt5CA3BWsdjJ
TGk1MtK6XjspsVTIByz6eCRZHzHzdBz4angkQiMznSBNe15Am3c+F7IV5niatK+3
hoCfo8n2ONETVgG99hfNWPrsVZTcqz1P2cp7iFked3m88xECQQD9XncCLmI9302A
t6NGYAwPsJcK+9tfRoYwauVfIsRLciXM25NBCLWwLozg2FNLjWDZumkjYNgrCeAZ
cgsRsUftAkEA5lc5u9g5t5rVLRRarpfdFkp9owRIbYRav1saqMYStFSCWaMshuqR
O8a0ND4sgTKlWDMpk0wIxBrYB+GZQxN7xwJBAKxYLHWUXYkesxZiU7LUNIAbq7Jx
/RfC3hZjMCDVglabj7DYj0LGjOgJ0hRDse0Lfxy7WzcQchpcfk5wr6zaPUUCQHLm
yBIARqpkPjsCkEnPz6Wy+wE6vbaD85DJLX9Lb0EtduioESosEM60zGfTK/g2/2wD
+ZVUtHq+uU0VKJLhQTkCQGUIAozlSU2B4IdTeZiZGAsBHnJTailPxgrRZIIZfXd6
OdjaCO2mIymiBnCqbT7eKUVaeHprvxAB/uIfrXKP95Q=
-----END RSA PRIVATE KEY-----
Certificate:
    Data:
        Version: 3 (0x2)
        Serial Number: 80 (0x50)
    Signature Algorithm: sha256WithRSAEncryption
        Issuer: C=FR, ST=bourgogne, L=dijon, O=eole, OU=ci, CN=ACEoleCI
        Validity
            Not Before: Mar 17 14:35:49 2016 GMT
            Not After : Jun  3 14:35:49 2024 GMT
        Subject: CN=zephir.ac-test.lan
        Subject Public Key Info:
            Public Key Algorithm: rsaEncryption
                Public-Key: (1024 bit)
                Modulus:
                    00:e3:f9:33:2a:59:eb:46:0f:83:90:7b:6b:8e:59:
                    d3:50:37:c5:ba:25:2d:dc:a1:e4:79:b8:a9:53:67:
                    b3:bb:e9:8f:89:33:84:3d:96:b7:2b:dc:94:1d:e5:
                    6a:82:50:2e:99:42:2d:17:0c:4f:e1:ea:01:ec:4e:
                    a3:43:53:14:45:c1:48:6c:0a:e4:6f:94:4e:be:a4:
                    eb:d5:11:da:50:7c:1c:49:4b:7f:1e:91:fb:02:d8:
                    e7:c5:53:b2:0a:19:e3:73:ce:d9:93:9c:62:3e:76:
                    b7:f3:cb:a1:7b:f8:35:f3:b2:cb:fc:c6:d0:40:33:
                    db:1c:ac:f7:bb:4b:f4:c8:3b
                Exponent: 65537 (0x10001)
        X509v3 extensions:
            X509v3 Basic Constraints: 
                CA:FALSE
            X509v3 Subject Key Identifier: 
                2F:A1:11:81:01:DB:E4:36:F6:E0:B5:B9:5D:4F:4F:5F:13:86:B9:CA
            X509v3 Authority Key Identifier: 
                keyid:38:DF:46:29:38:B2:13:8B:A5:7C:80:4B:5E:AA:24:DB:25:DC:EC:EE

            X509v3 Key Usage: critical
                Digital Signature, Non Repudiation, Key Encipherment
            X509v3 Extended Key Usage: 
                TLS Web Client Authentication, E-mail Protection
    Signature Algorithm: sha256WithRSAEncryption
         0a:b2:50:c8:9a:98:c2:b1:ee:47:bf:28:86:8d:cf:8e:fa:ab:
         b7:0d:5f:9b:c1:dc:35:0c:79:b4:d4:e4:ee:76:35:a9:49:2a:
         8c:29:e9:dc:12:88:82:93:fa:fb:fa:3e:30:77:46:76:43:0b:
         59:35:2c:a0:99:f8:73:c5:1e:60:08:4f:d5:10:bf:72:88:08:
         92:72:3b:e4:20:de:d1:89:44:99:72:79:a6:ca:df:78:e7:48:
         1c:23:e7:0a:cf:1b:e4:b9:df:25:d2:32:ff:40:6a:08:af:ea:
         72:a9:32:a1:59:71:c2:d2:f6:c4:90:9e:c0:e4:b3:ac:97:2b:
         8f:c9
-----BEGIN CERTIFICATE-----
MIICbzCCAdigAwIBAgIBUDANBgkqhkiG9w0BAQsFADBgMQswCQYDVQQGEwJGUjES
MBAGA1UECAwJYm91cmdvZ25lMQ4wDAYDVQQHDAVkaWpvbjENMAsGA1UECgwEZW9s
ZTELMAkGA1UECwwCY2kxETAPBgNVBAMMCEFDRW9sZUNJMB4XDTE2MDMxNzE0MzU0
OVoXDTI0MDYwMzE0MzU0OVowHTEbMBkGA1UEAwwSemVwaGlyLmFjLXRlc3QubGFu
MIGfMA0GCSqGSIb3DQEBAQUAA4GNADCBiQKBgQDj+TMqWetGD4OQe2uOWdNQN8W6
JS3coeR5uKlTZ7O76Y+JM4Q9lrcr3JQd5WqCUC6ZQi0XDE/h6gHsTqNDUxRFwUhs
CuRvlE6+pOvVEdpQfBxJS38ekfsC2OfFU7IKGeNzztmTnGI+drfzy6F7+DXzssv8
xtBAM9scrPe7S/TIOwIDAQABo3wwejAJBgNVHRMEAjAAMB0GA1UdDgQWBBQvoRGB
AdvkNvbgtbldT09fE4a5yjAfBgNVHSMEGDAWgBQ430YpOLITi6V8gEteqiTbJdzs
7jAOBgNVHQ8BAf8EBAMCBeAwHQYDVR0lBBYwFAYIKwYBBQUHAwIGCCsGAQUFBwME
MA0GCSqGSIb3DQEBCwUAA4GBAAqyUMiamMKx7ke/KIaNz476q7cNX5vB3DUMebTU
5O52NalJKowp6dwSiIKT+vv6PjB3RnZDC1k1LKCZ+HPFHmAIT9UQv3KICJJyO+Qg
3tGJRJlyeabK33jnSBwj5wrPG+S53yXSMv9Aagiv6nKpMqFZccLS9sSQnsDks6yX
K4/J
-----END CERTIFICATE-----
