Certificate:
    Data:
        Version: 3 (0x2)
        Serial Number: 21 (0x15)
    Signature Algorithm: sha256WithRSAEncryption
        Issuer: C=FR, ST=bourgogne, L=dijon, O=eole, OU=ci, CN=ACEoleCI
        Validity
            Not Before: Mar 17 14:35:34 2016 GMT
            Not After : Jun  3 14:35:34 2024 GMT
        Subject: CN=eolecitests.ac-test.lan
        Subject Public Key Info:
            Public Key Algorithm: rsaEncryption
                Public-Key: (1024 bit)
                Modulus:
                    00:c4:21:aa:14:1f:94:45:0c:36:a0:de:e1:b5:5e:
                    ed:83:93:66:0f:e6:46:7c:29:f3:ab:95:10:6e:bb:
                    0b:ed:a4:ab:2f:a0:dc:77:e4:1d:48:e8:35:9a:56:
                    f1:7f:54:de:3b:00:97:57:65:e3:c9:f9:aa:11:5f:
                    09:de:49:73:0f:69:97:bd:18:52:3a:e5:81:5e:74:
                    51:31:d7:fa:00:e6:36:b2:b7:68:33:23:8f:08:ca:
                    be:60:e2:8c:61:f1:5f:21:98:41:a6:22:59:5e:68:
                    fb:4d:df:77:4c:a2:a2:c1:cc:ef:13:2a:f8:69:6f:
                    57:ba:c3:70:21:9f:7e:31:a3
                Exponent: 65537 (0x10001)
        X509v3 extensions:
            X509v3 Basic Constraints: 
                CA:FALSE
            X509v3 Subject Key Identifier: 
                FD:B0:A0:21:CC:EF:F1:79:FF:1D:59:33:8C:6E:7B:29:0C:08:39:32
            X509v3 Authority Key Identifier: 
                keyid:38:DF:46:29:38:B2:13:8B:A5:7C:80:4B:5E:AA:24:DB:25:DC:EC:EE
                DirName:/C=FR/ST=bourgogne/L=dijon/O=eole/OU=ci/CN=ACEoleCI
                serial:81:5A:FE:E5:BA:70:38:01

            X509v3 Key Usage: critical
                Digital Signature, Key Encipherment
    Signature Algorithm: sha256WithRSAEncryption
         01:58:2e:8d:a3:3c:16:5b:dc:42:f2:c5:7a:da:99:82:c1:06:
         59:8c:fb:f6:2a:ef:1b:a1:19:2f:6a:30:a3:79:5d:b3:ea:29:
         83:82:04:fa:08:68:fc:7d:28:ec:1f:47:3a:0b:14:8e:28:4c:
         7f:41:ea:43:1f:f2:f4:57:dc:78:ad:fd:7f:fe:c0:89:17:14:
         9f:22:ad:49:69:3d:12:17:ba:1e:89:58:1d:b1:a9:28:ef:9c:
         b7:21:9f:d7:12:28:69:ce:b4:44:93:db:77:27:bd:a8:94:b5:
         c9:81:3a:c2:56:7b:24:32:ef:93:9e:ee:f1:13:c5:ff:f5:de:
         97:a2
-----BEGIN CERTIFICATE-----
MIICyzCCAjSgAwIBAgIBFTANBgkqhkiG9w0BAQsFADBgMQswCQYDVQQGEwJGUjES
MBAGA1UECAwJYm91cmdvZ25lMQ4wDAYDVQQHDAVkaWpvbjENMAsGA1UECgwEZW9s
ZTELMAkGA1UECwwCY2kxETAPBgNVBAMMCEFDRW9sZUNJMB4XDTE2MDMxNzE0MzUz
NFoXDTI0MDYwMzE0MzUzNFowIjEgMB4GA1UEAwwXZW9sZWNpdGVzdHMuYWMtdGVz
dC5sYW4wgZ8wDQYJKoZIhvcNAQEBBQADgY0AMIGJAoGBAMQhqhQflEUMNqDe4bVe
7YOTZg/mRnwp86uVEG67C+2kqy+g3HfkHUjoNZpW8X9U3jsAl1dl48n5qhFfCd5J
cw9pl70YUjrlgV50UTHX+gDmNrK3aDMjjwjKvmDijGHxXyGYQaYiWV5o+03fd0yi
osHM7xMq+GlvV7rDcCGffjGjAgMBAAGjgdIwgc8wCQYDVR0TBAIwADAdBgNVHQ4E
FgQU/bCgIczv8Xn/HVkzjG57KQwIOTIwgZIGA1UdIwSBijCBh4AUON9GKTiyE4ul
fIBLXqok2yXc7O6hZKRiMGAxCzAJBgNVBAYTAkZSMRIwEAYDVQQIDAlib3VyZ29n
bmUxDjAMBgNVBAcMBWRpam9uMQ0wCwYDVQQKDARlb2xlMQswCQYDVQQLDAJjaTER
MA8GA1UEAwwIQUNFb2xlQ0mCCQCBWv7lunA4ATAOBgNVHQ8BAf8EBAMCBaAwDQYJ
KoZIhvcNAQELBQADgYEAAVgujaM8FlvcQvLFetqZgsEGWYz79irvG6EZL2owo3ld
s+opg4IE+gho/H0o7B9HOgsUjihMf0HqQx/y9FfceK39f/7AiRcUnyKtSWk9Ehe6
HolYHbGpKO+ctyGf1xIoac60RJPbdye9qJS1yYE6wlZ7JDLvk57u8RPF//Xel6I=
-----END CERTIFICATE-----
