Certificate:
    Data:
        Version: 3 (0x2)
        Serial Number: 20 (0x14)
    Signature Algorithm: sha256WithRSAEncryption
        Issuer: C=FR, ST=bourgogne, L=dijon, O=eole, OU=ci, CN=ACEoleCI
        Validity
            Not Before: Mar 17 14:35:34 2016 GMT
            Not After : Jun  3 14:35:34 2024 GMT
        Subject: CN=eolecitests.ac-test.lan
        Subject Public Key Info:
            Public Key Algorithm: rsaEncryption
                Public-Key: (1024 bit)
                Modulus:
                    00:c4:21:aa:14:1f:94:45:0c:36:a0:de:e1:b5:5e:
                    ed:83:93:66:0f:e6:46:7c:29:f3:ab:95:10:6e:bb:
                    0b:ed:a4:ab:2f:a0:dc:77:e4:1d:48:e8:35:9a:56:
                    f1:7f:54:de:3b:00:97:57:65:e3:c9:f9:aa:11:5f:
                    09:de:49:73:0f:69:97:bd:18:52:3a:e5:81:5e:74:
                    51:31:d7:fa:00:e6:36:b2:b7:68:33:23:8f:08:ca:
                    be:60:e2:8c:61:f1:5f:21:98:41:a6:22:59:5e:68:
                    fb:4d:df:77:4c:a2:a2:c1:cc:ef:13:2a:f8:69:6f:
                    57:ba:c3:70:21:9f:7e:31:a3
                Exponent: 65537 (0x10001)
        X509v3 extensions:
            X509v3 Basic Constraints: 
                CA:FALSE
            X509v3 Subject Key Identifier: 
                FD:B0:A0:21:CC:EF:F1:79:FF:1D:59:33:8C:6E:7B:29:0C:08:39:32
            X509v3 Authority Key Identifier: 
                keyid:38:DF:46:29:38:B2:13:8B:A5:7C:80:4B:5E:AA:24:DB:25:DC:EC:EE

            X509v3 Key Usage: critical
                Digital Signature, Non Repudiation, Key Encipherment
            X509v3 Extended Key Usage: 
                TLS Web Client Authentication, E-mail Protection
    Signature Algorithm: sha256WithRSAEncryption
         1d:20:10:81:da:f2:0c:6a:39:d1:77:37:23:6d:ec:5c:c9:47:
         6f:5e:a3:8d:c2:82:e4:6b:47:f4:04:1e:f1:2d:5a:18:e8:fc:
         7e:2f:1f:14:7f:e5:5c:be:7d:d4:ad:92:8d:01:29:40:db:17:
         1e:86:2e:ce:38:6b:3e:db:2e:9e:a9:33:39:94:d6:fd:8f:62:
         3d:b2:5a:89:3c:7b:2e:33:22:f6:05:8a:82:18:96:bb:8a:6c:
         8d:f9:2f:2b:b0:84:b5:6a:d2:c0:46:70:3b:d5:71:e6:38:a7:
         41:f9:17:0e:cc:21:44:81:08:07:fb:cf:e2:cc:f5:e1:a4:4c:
         0a:ba
-----BEGIN CERTIFICATE-----
MIICdDCCAd2gAwIBAgIBFDANBgkqhkiG9w0BAQsFADBgMQswCQYDVQQGEwJGUjES
MBAGA1UECAwJYm91cmdvZ25lMQ4wDAYDVQQHDAVkaWpvbjENMAsGA1UECgwEZW9s
ZTELMAkGA1UECwwCY2kxETAPBgNVBAMMCEFDRW9sZUNJMB4XDTE2MDMxNzE0MzUz
NFoXDTI0MDYwMzE0MzUzNFowIjEgMB4GA1UEAwwXZW9sZWNpdGVzdHMuYWMtdGVz
dC5sYW4wgZ8wDQYJKoZIhvcNAQEBBQADgY0AMIGJAoGBAMQhqhQflEUMNqDe4bVe
7YOTZg/mRnwp86uVEG67C+2kqy+g3HfkHUjoNZpW8X9U3jsAl1dl48n5qhFfCd5J
cw9pl70YUjrlgV50UTHX+gDmNrK3aDMjjwjKvmDijGHxXyGYQaYiWV5o+03fd0yi
osHM7xMq+GlvV7rDcCGffjGjAgMBAAGjfDB6MAkGA1UdEwQCMAAwHQYDVR0OBBYE
FP2woCHM7/F5/x1ZM4xueykMCDkyMB8GA1UdIwQYMBaAFDjfRik4shOLpXyAS16q
JNsl3OzuMA4GA1UdDwEB/wQEAwIF4DAdBgNVHSUEFjAUBggrBgEFBQcDAgYIKwYB
BQUHAwQwDQYJKoZIhvcNAQELBQADgYEAHSAQgdryDGo50Xc3I23sXMlHb16jjcKC
5GtH9AQe8S1aGOj8fi8fFH/lXL591K2SjQEpQNsXHoYuzjhrPtsunqkzOZTW/Y9i
PbJaiTx7LjMi9gWKghiWu4psjfkvK7CEtWrSwEZwO9Vx5jinQfkXDswhRIEIB/vP
4sz14aRMCro=
-----END CERTIFICATE-----
