-----BEGIN RSA PRIVATE KEY-----
MIICXAIBAAKBgQDez9HnwMRgFByI4NAKjzQFV44A2GeroWjHKUvmPSOZr6FHrJxb
MgE57j0ZbQVzW80U43IHM3W5S7TLW7R/EEfV/Ew2KdVxD0jWQ6iwb7UIJrMkt6Wu
CR3kpxZ1+Na908C+b2zXHjisbqUssRbL5+4UVWPLOjOKFBN4v8B0resoXwIDAQAB
AoGBAINaqTijYCH0OU5Imt1exyBPGZxN9/Aq3AZtxh0Z9h7od4A1tofc1vQ8CzEu
IIR9nk2uOM8d+00d4JvymFpAUtguMNHePrbADpkjW7bbR2D+cnlzGF37vNBzpR1J
j3GiDyJjqlEeTG6HnmxrFm26Q1r0qv/x3ypA77NQ6lB23MUhAkEA/PHVGL02yGcx
p6gY19vi4oM+H292P4OZaAHsAfIYNcFPa+UeoZfxKHs/J2/w4XszINjZRy5FnN88
z9GTwPnqywJBAOGAzytvf3yEITeZsJfHyKZp5EdB2I8Jjjfp8PC9S08Qf8WqaK4M
EPypmKmfe2vl5eVxSQ+65aJrM4gN021l4j0CQHApuIno1ZMWF3G125ZUng49jl2Y
KoJNk8gIGiReuxeTKem5RtT3MGv4AvA09ka2P9zP68FhpmLCpw+sam2HJPMCQGDd
7CBEbQcX2wz/QBRzBYY2xpC1gEkxWZ47J/zB06/K7pgCc6UQGdvvHlz+3Q2kW/UL
jM7tAeebFS/EgKXltiECQHSEcBct1PsQ0pQJb2LDJ/w3c+pFv317uP4SWxasTEqj
8VLqrftDQCAwnDQ37mc0yKkJ0yg5FedLJm3CxWpNWxI=
-----END RSA PRIVATE KEY-----
Certificate:
    Data:
        Version: 3 (0x2)
        Serial Number: 165 (0xa5)
    Signature Algorithm: sha256WithRSAEncryption
        Issuer: C=FR, ST=bourgogne, L=dijon, O=eole, OU=ci, CN=ACEoleCI
        Validity
            Not Before: Mar 17 14:36:12 2016 GMT
            Not After : Jun  3 14:36:12 2024 GMT
        Subject: CN=envole.etb3.lan
        Subject Public Key Info:
            Public Key Algorithm: rsaEncryption
                Public-Key: (1024 bit)
                Modulus:
                    00:de:cf:d1:e7:c0:c4:60:14:1c:88:e0:d0:0a:8f:
                    34:05:57:8e:00:d8:67:ab:a1:68:c7:29:4b:e6:3d:
                    23:99:af:a1:47:ac:9c:5b:32:01:39:ee:3d:19:6d:
                    05:73:5b:cd:14:e3:72:07:33:75:b9:4b:b4:cb:5b:
                    b4:7f:10:47:d5:fc:4c:36:29:d5:71:0f:48:d6:43:
                    a8:b0:6f:b5:08:26:b3:24:b7:a5:ae:09:1d:e4:a7:
                    16:75:f8:d6:bd:d3:c0:be:6f:6c:d7:1e:38:ac:6e:
                    a5:2c:b1:16:cb:e7:ee:14:55:63:cb:3a:33:8a:14:
                    13:78:bf:c0:74:ad:eb:28:5f
                Exponent: 65537 (0x10001)
        X509v3 extensions:
            X509v3 Basic Constraints: 
                CA:FALSE
            X509v3 Subject Key Identifier: 
                60:33:F7:02:64:79:56:1A:1C:98:A2:0A:33:42:9E:89:1B:AD:63:F2
            X509v3 Authority Key Identifier: 
                keyid:38:DF:46:29:38:B2:13:8B:A5:7C:80:4B:5E:AA:24:DB:25:DC:EC:EE
                DirName:/C=FR/ST=bourgogne/L=dijon/O=eole/OU=ci/CN=ACEoleCI
                serial:81:5A:FE:E5:BA:70:38:01

            X509v3 Key Usage: critical
                Digital Signature, Key Encipherment
    Signature Algorithm: sha256WithRSAEncryption
         5f:a2:4e:e3:d0:b3:f2:17:91:d7:3a:87:60:a1:57:47:41:d1:
         b5:e8:09:76:84:64:ab:df:8b:c3:58:21:a0:83:45:c7:40:dd:
         84:a6:9d:40:72:c3:3a:4f:d2:aa:59:4c:51:57:67:05:43:35:
         e2:5c:f0:db:a4:69:f1:e5:5c:18:16:85:d4:9f:3a:92:56:0a:
         66:ca:a4:c3:d6:1d:56:82:06:a5:33:6c:61:68:90:79:87:d3:
         dc:a5:d5:22:87:80:76:f2:c3:a8:c2:9a:07:f8:f3:8e:35:02:
         d8:6e:a8:93:26:3f:42:05:6c:fa:65:ef:31:30:48:ad:02:a4:
         1a:70
-----BEGIN CERTIFICATE-----
MIICxDCCAi2gAwIBAgICAKUwDQYJKoZIhvcNAQELBQAwYDELMAkGA1UEBhMCRlIx
EjAQBgNVBAgMCWJvdXJnb2duZTEOMAwGA1UEBwwFZGlqb24xDTALBgNVBAoMBGVv
bGUxCzAJBgNVBAsMAmNpMREwDwYDVQQDDAhBQ0VvbGVDSTAeFw0xNjAzMTcxNDM2
MTJaFw0yNDA2MDMxNDM2MTJaMBoxGDAWBgNVBAMMD2Vudm9sZS5ldGIzLmxhbjCB
nzANBgkqhkiG9w0BAQEFAAOBjQAwgYkCgYEA3s/R58DEYBQciODQCo80BVeOANhn
q6FoxylL5j0jma+hR6ycWzIBOe49GW0Fc1vNFONyBzN1uUu0y1u0fxBH1fxMNinV
cQ9I1kOosG+1CCazJLelrgkd5KcWdfjWvdPAvm9s1x44rG6lLLEWy+fuFFVjyzoz
ihQTeL/AdK3rKF8CAwEAAaOB0jCBzzAJBgNVHRMEAjAAMB0GA1UdDgQWBBRgM/cC
ZHlWGhyYogozQp6JG61j8jCBkgYDVR0jBIGKMIGHgBQ430YpOLITi6V8gEteqiTb
Jdzs7qFkpGIwYDELMAkGA1UEBhMCRlIxEjAQBgNVBAgMCWJvdXJnb2duZTEOMAwG
A1UEBwwFZGlqb24xDTALBgNVBAoMBGVvbGUxCzAJBgNVBAsMAmNpMREwDwYDVQQD
DAhBQ0VvbGVDSYIJAIFa/uW6cDgBMA4GA1UdDwEB/wQEAwIFoDANBgkqhkiG9w0B
AQsFAAOBgQBfok7j0LPyF5HXOodgoVdHQdG16Al2hGSr34vDWCGgg0XHQN2Epp1A
csM6T9KqWUxRV2cFQzXiXPDbpGnx5VwYFoXUnzqSVgpmyqTD1h1WggalM2xhaJB5
h9PcpdUih4B28sOowpoH+POONQLYbqiTJj9CBWz6Ze8xMEitAqQacA==
-----END CERTIFICATE-----
