-----BEGIN RSA PRIVATE KEY-----
MIICXAIBAAKBgQCk2+2FbIvPpIUqmThfxJnYRKhHSu0Z/3jiC5inrCGFxjjgxZre
k2sXCdDzATjqRdRNarP53JWYY5g3zMWCD4MbGI1XMXkIHkjhBO6acopCQRyJFd2j
uCnQayAtUbkqJb2jsOBqzCrRywomq8TbRXalazntTHycv43Om9jvrqzisQIDAQAB
AoGAWtrx3fRiYP8UfNOQZAcfmjbMXu4GGavX3QvzB4UvvF/v/MAqh7vK6xl31FS6
HzJ4vGmv4mYU87T/sNDjkLgn0iaJ3FrqZGVa8WX2NgLN7XSAMOHFulG3J7aUWmwt
6ekX2SnDj7zfuI2NnfieXPVFGLgZ+3y6mhmtUoSXiylZNRkCQQDR84LaRJ7qeH1g
zN/Fcsx7+tO0f9d1L7FSb6FWJs84zr9OaNmosRgRUL50ny7b6LhAnAolPJMw3CnZ
rcTkhQQnAkEAyQSNafCVt1AixDbZ7S5AuKjWEeSNT6AjR7ltiyfS36b2Z580taVD
Z9RmrsnGacuFKiTbjNGd0dWbKX7Kq/VxZwJBAKb47FNciapeAxCuPzUP1LKxTBdc
KOWI9ZRjNUOH//vk6V6Zoqk3lrWGqsGjK6g3T/oKX0M4BrOwFRSKz3ESnLcCQBvY
9JpDiQofIOHb027nJHIweY97ARSR07Fg/8ryVmVDZQlP5eZwIZlltF/sdf88AZOo
DX5Bn8Js/BTQitUtqGsCQAyWmEHM7Igm6Lo2i+58P4PtuBZCxhCkT2CQ2L5N/rk3
dXXnAavRHX1ZQKGxQFs9ycoISUbf2/U0BcuKuU6GE2w=
-----END RSA PRIVATE KEY-----
Certificate:
    Data:
        Version: 3 (0x2)
        Serial Number: 197 (0xc5)
    Signature Algorithm: sha256WithRSAEncryption
        Issuer: C=FR, ST=bourgogne, L=dijon, O=eole, OU=ci, CN=ACEoleCI
        Validity
            Not Before: Mar 17 14:36:20 2016 GMT
            Not After : Jun  3 14:36:20 2024 GMT
        Subject: CN=pcadmin.etb5.lan
        Subject Public Key Info:
            Public Key Algorithm: rsaEncryption
                Public-Key: (1024 bit)
                Modulus:
                    00:a4:db:ed:85:6c:8b:cf:a4:85:2a:99:38:5f:c4:
                    99:d8:44:a8:47:4a:ed:19:ff:78:e2:0b:98:a7:ac:
                    21:85:c6:38:e0:c5:9a:de:93:6b:17:09:d0:f3:01:
                    38:ea:45:d4:4d:6a:b3:f9:dc:95:98:63:98:37:cc:
                    c5:82:0f:83:1b:18:8d:57:31:79:08:1e:48:e1:04:
                    ee:9a:72:8a:42:41:1c:89:15:dd:a3:b8:29:d0:6b:
                    20:2d:51:b9:2a:25:bd:a3:b0:e0:6a:cc:2a:d1:cb:
                    0a:26:ab:c4:db:45:76:a5:6b:39:ed:4c:7c:9c:bf:
                    8d:ce:9b:d8:ef:ae:ac:e2:b1
                Exponent: 65537 (0x10001)
        X509v3 extensions:
            X509v3 Basic Constraints: 
                CA:FALSE
            X509v3 Subject Key Identifier: 
                C7:1D:04:4D:A1:5C:18:3A:6E:1E:E4:69:41:37:6E:75:43:34:90:EB
            X509v3 Authority Key Identifier: 
                keyid:38:DF:46:29:38:B2:13:8B:A5:7C:80:4B:5E:AA:24:DB:25:DC:EC:EE

            X509v3 Key Usage: critical
                Digital Signature, Non Repudiation, Key Encipherment
            X509v3 Extended Key Usage: 
                TLS Web Client Authentication, E-mail Protection
    Signature Algorithm: sha256WithRSAEncryption
         99:c5:b2:01:c6:eb:b1:1e:56:da:5b:06:59:ee:3b:d7:13:f4:
         6e:2a:b7:7e:aa:73:94:eb:27:85:5e:22:96:6e:14:7c:11:c8:
         47:9f:0c:51:a4:eb:70:e9:20:8b:b3:c5:de:bd:9f:8d:db:33:
         47:90:55:30:04:90:a9:ee:00:e3:3f:63:ce:45:19:82:8e:12:
         ff:75:27:71:48:30:43:87:a9:01:ee:5d:45:50:34:18:db:5b:
         b7:cb:71:33:b6:63:6b:90:95:b1:9a:5e:f5:39:9c:13:00:dd:
         22:24:6a:56:05:70:6b:fa:76:d1:8f:72:6d:23:66:50:f9:42:
         e8:45
-----BEGIN CERTIFICATE-----
MIICbjCCAdegAwIBAgICAMUwDQYJKoZIhvcNAQELBQAwYDELMAkGA1UEBhMCRlIx
EjAQBgNVBAgMCWJvdXJnb2duZTEOMAwGA1UEBwwFZGlqb24xDTALBgNVBAoMBGVv
bGUxCzAJBgNVBAsMAmNpMREwDwYDVQQDDAhBQ0VvbGVDSTAeFw0xNjAzMTcxNDM2
MjBaFw0yNDA2MDMxNDM2MjBaMBsxGTAXBgNVBAMMEHBjYWRtaW4uZXRiNS5sYW4w
gZ8wDQYJKoZIhvcNAQEBBQADgY0AMIGJAoGBAKTb7YVsi8+khSqZOF/EmdhEqEdK
7Rn/eOILmKesIYXGOODFmt6TaxcJ0PMBOOpF1E1qs/nclZhjmDfMxYIPgxsYjVcx
eQgeSOEE7ppyikJBHIkV3aO4KdBrIC1RuSolvaOw4GrMKtHLCiarxNtFdqVrOe1M
fJy/jc6b2O+urOKxAgMBAAGjfDB6MAkGA1UdEwQCMAAwHQYDVR0OBBYEFMcdBE2h
XBg6bh7kaUE3bnVDNJDrMB8GA1UdIwQYMBaAFDjfRik4shOLpXyAS16qJNsl3Ozu
MA4GA1UdDwEB/wQEAwIF4DAdBgNVHSUEFjAUBggrBgEFBQcDAgYIKwYBBQUHAwQw
DQYJKoZIhvcNAQELBQADgYEAmcWyAcbrsR5W2lsGWe471xP0biq3fqpzlOsnhV4i
lm4UfBHIR58MUaTrcOkgi7PF3r2fjdszR5BVMASQqe4A4z9jzkUZgo4S/3UncUgw
Q4epAe5dRVA0GNtbt8txM7Zja5CVsZpe9TmcEwDdIiRqVgVwa/p20Y9ybSNmUPlC
6EU=
-----END CERTIFICATE-----
