Certificate:
    Data:
        Version: 3 (0x2)
        Serial Number: 199 (0xc7)
    Signature Algorithm: sha256WithRSAEncryption
        Issuer: C=FR, ST=bourgogne, L=dijon, O=eole, OU=ci, CN=ACEoleCI
        Validity
            Not Before: Mar 17 14:36:20 2016 GMT
            Not After : Jun  3 14:36:20 2024 GMT
        Subject: CN=eclair.etb6.lan
        Subject Public Key Info:
            Public Key Algorithm: rsaEncryption
                Public-Key: (1024 bit)
                Modulus:
                    00:d3:38:54:c0:5c:5f:2b:7a:c1:cc:56:61:4a:47:
                    3a:f7:b9:35:e0:df:85:f2:e9:bc:71:4f:54:63:66:
                    2a:5a:dd:4f:a5:42:41:74:5a:65:36:79:0e:2b:4d:
                    12:8b:86:22:6d:1a:88:7e:40:91:cc:40:11:cf:1c:
                    77:f8:cd:cf:cc:51:56:4f:ce:da:df:ba:4c:aa:7b:
                    90:e7:45:08:34:d5:73:86:be:d4:16:f8:fb:79:10:
                    8e:dc:f5:a9:20:31:83:f0:8e:58:f0:f4:69:ee:82:
                    54:eb:74:5f:70:7c:f4:e9:2e:b2:44:02:e8:fd:1a:
                    8c:bb:c1:bd:9a:2c:fa:e5:63
                Exponent: 65537 (0x10001)
        X509v3 extensions:
            X509v3 Basic Constraints: 
                CA:FALSE
            X509v3 Subject Key Identifier: 
                06:5C:04:76:0B:B9:7C:AA:AD:63:4F:83:33:F7:00:B2:AB:B9:2B:C2
            X509v3 Authority Key Identifier: 
                keyid:38:DF:46:29:38:B2:13:8B:A5:7C:80:4B:5E:AA:24:DB:25:DC:EC:EE
                DirName:/C=FR/ST=bourgogne/L=dijon/O=eole/OU=ci/CN=ACEoleCI
                serial:81:5A:FE:E5:BA:70:38:01

            X509v3 Key Usage: critical
                Digital Signature, Key Encipherment
            X509v3 Extended Key Usage: 
                TLS Web Server Authentication
    Signature Algorithm: sha256WithRSAEncryption
         88:bf:7f:52:01:b2:64:b9:e0:67:91:af:c0:2f:ac:5e:17:a5:
         84:2e:ef:90:21:df:c7:94:f1:80:ee:10:25:4e:3f:3a:9a:47:
         04:8b:b8:14:9a:d4:30:7f:71:72:e9:d4:73:5f:a6:65:af:28:
         03:6a:d3:3f:25:30:4c:21:fd:f9:c3:ba:56:e3:98:9e:dc:c9:
         44:92:7f:26:2a:76:98:12:ad:51:92:22:73:f5:58:69:b9:44:
         27:65:00:b1:e0:4a:e3:85:00:0b:0e:df:e9:fe:e3:5b:97:7e:
         8d:25:4c:07:28:59:20:63:cd:f7:93:30:5f:2a:90:ac:cc:4a:
         c0:10
-----BEGIN CERTIFICATE-----
MIIC2TCCAkKgAwIBAgICAMcwDQYJKoZIhvcNAQELBQAwYDELMAkGA1UEBhMCRlIx
EjAQBgNVBAgMCWJvdXJnb2duZTEOMAwGA1UEBwwFZGlqb24xDTALBgNVBAoMBGVv
bGUxCzAJBgNVBAsMAmNpMREwDwYDVQQDDAhBQ0VvbGVDSTAeFw0xNjAzMTcxNDM2
MjBaFw0yNDA2MDMxNDM2MjBaMBoxGDAWBgNVBAMMD2VjbGFpci5ldGI2LmxhbjCB
nzANBgkqhkiG9w0BAQEFAAOBjQAwgYkCgYEA0zhUwFxfK3rBzFZhSkc697k14N+F
8um8cU9UY2YqWt1PpUJBdFplNnkOK00Si4YibRqIfkCRzEARzxx3+M3PzFFWT87a
37pMqnuQ50UINNVzhr7UFvj7eRCO3PWpIDGD8I5Y8PRp7oJU63RfcHz06S6yRALo
/RqMu8G9miz65WMCAwEAAaOB5zCB5DAJBgNVHRMEAjAAMB0GA1UdDgQWBBQGXAR2
C7l8qq1jT4Mz9wCyq7krwjCBkgYDVR0jBIGKMIGHgBQ430YpOLITi6V8gEteqiTb
Jdzs7qFkpGIwYDELMAkGA1UEBhMCRlIxEjAQBgNVBAgMCWJvdXJnb2duZTEOMAwG
A1UEBwwFZGlqb24xDTALBgNVBAoMBGVvbGUxCzAJBgNVBAsMAmNpMREwDwYDVQQD
DAhBQ0VvbGVDSYIJAIFa/uW6cDgBMA4GA1UdDwEB/wQEAwIFoDATBgNVHSUEDDAK
BggrBgEFBQcDATANBgkqhkiG9w0BAQsFAAOBgQCIv39SAbJkueBnka/AL6xeF6WE
Lu+QId/HlPGA7hAlTj86mkcEi7gUmtQwf3Fy6dRzX6ZlrygDatM/JTBMIf35w7pW
45ie3MlEkn8mKnaYEq1RkiJz9VhpuUQnZQCx4ErjhQALDt/p/uNbl36NJUwHKFkg
Y833kzBfKpCszErAEA==
-----END CERTIFICATE-----
