-----BEGIN RSA PRIVATE KEY-----
MIICXgIBAAKBgQDTOFTAXF8resHMVmFKRzr3uTXg34Xy6bxxT1RjZipa3U+lQkF0
WmU2eQ4rTRKLhiJtGoh+QJHMQBHPHHf4zc/MUVZPztrfukyqe5DnRQg01XOGvtQW
+Pt5EI7c9akgMYPwjljw9GnuglTrdF9wfPTpLrJEAuj9Goy7wb2aLPrlYwIDAQAB
AoGAfB1Hv9kHm1cA9f90H9+HSPWuMTtnTHwIXVTOM7JfBRGysVsjdyl+++laaBtb
4Fyrcgz7U6TBh5HGZTtHTA40Ibv8UO+ZHC5qEL6/vm0DK61g+fXuGtk4b0wtDymD
OnkUTqE6znaSToff27oezFzPDMARsnhZvTb5x/4qhhNMPKECQQDtG2BshofvyXUG
v4puW090Wmbtb/wNBnZqc/+uhhpgItmdljOfD6qXouXdkI1xdGhFYnhrgbrIdjR/
ER16BJL5AkEA5AzmnBw9C0/a2AKquvvrGxuMZOon7c9UAv8YUXpYlCmp5Vtsm9oo
g5n5L00YcPY/zA8mc2lnCZGwaNqzJPC2OwJBAKKsDKyIZA0UVzDJCs2J4eo+96zh
DrlU/LsuWHXBVaktX8XpPgNb+TtNrI0lVpVHOx6XX2zKtX5A8uVWtbV4G+kCQQCX
IZWSz4QFAx7dGKdc06aziEY6epOLnmLmuXe8R4B8cEAPp88KWkGPNXNWTZltA0S0
TzYENk36oXpvgsBGMuARAkEA3ozYqRp8W+eGtmDPOI2IasQftMCSNRdr6QY1aquH
minZgCBsqB1YMURt01NrSMflvgF2QjE3YmNWIqFPG+TiOw==
-----END RSA PRIVATE KEY-----
Certificate:
    Data:
        Version: 3 (0x2)
        Serial Number: 200 (0xc8)
    Signature Algorithm: sha256WithRSAEncryption
        Issuer: C=FR, ST=bourgogne, L=dijon, O=eole, OU=ci, CN=ACEoleCI
        Validity
            Not Before: Mar 17 14:36:20 2016 GMT
            Not After : Jun  3 14:36:20 2024 GMT
        Subject: CN=eclair.etb6.lan
        Subject Public Key Info:
            Public Key Algorithm: rsaEncryption
                Public-Key: (1024 bit)
                Modulus:
                    00:d3:38:54:c0:5c:5f:2b:7a:c1:cc:56:61:4a:47:
                    3a:f7:b9:35:e0:df:85:f2:e9:bc:71:4f:54:63:66:
                    2a:5a:dd:4f:a5:42:41:74:5a:65:36:79:0e:2b:4d:
                    12:8b:86:22:6d:1a:88:7e:40:91:cc:40:11:cf:1c:
                    77:f8:cd:cf:cc:51:56:4f:ce:da:df:ba:4c:aa:7b:
                    90:e7:45:08:34:d5:73:86:be:d4:16:f8:fb:79:10:
                    8e:dc:f5:a9:20:31:83:f0:8e:58:f0:f4:69:ee:82:
                    54:eb:74:5f:70:7c:f4:e9:2e:b2:44:02:e8:fd:1a:
                    8c:bb:c1:bd:9a:2c:fa:e5:63
                Exponent: 65537 (0x10001)
        X509v3 extensions:
            X509v3 Basic Constraints: 
                CA:FALSE
            X509v3 Subject Key Identifier: 
                06:5C:04:76:0B:B9:7C:AA:AD:63:4F:83:33:F7:00:B2:AB:B9:2B:C2
            X509v3 Authority Key Identifier: 
                keyid:38:DF:46:29:38:B2:13:8B:A5:7C:80:4B:5E:AA:24:DB:25:DC:EC:EE

            X509v3 Key Usage: critical
                Digital Signature, Non Repudiation, Key Encipherment
            X509v3 Extended Key Usage: 
                TLS Web Client Authentication, E-mail Protection
    Signature Algorithm: sha256WithRSAEncryption
         35:f2:17:9a:9b:5c:1f:94:92:7d:df:c6:5d:7c:fa:a4:c7:b9:
         98:ea:ac:d4:ce:ca:f1:cb:d6:e9:cf:be:04:4e:75:75:8a:67:
         29:dd:e5:b5:33:34:c5:45:c6:87:78:2a:fb:e6:bb:00:2e:08:
         08:c2:02:41:56:c0:b5:fd:8e:c8:51:0b:90:35:a8:5f:ce:b4:
         30:91:d0:94:5f:eb:ec:01:29:95:13:71:c8:21:19:80:25:0c:
         9c:0a:7d:fa:06:d7:71:53:74:34:7b:30:42:7a:93:26:d6:43:
         57:0d:1b:a3:df:8d:ca:57:df:e3:4a:bc:b3:89:cb:15:e9:da:
         26:34
-----BEGIN CERTIFICATE-----
MIICbTCCAdagAwIBAgICAMgwDQYJKoZIhvcNAQELBQAwYDELMAkGA1UEBhMCRlIx
EjAQBgNVBAgMCWJvdXJnb2duZTEOMAwGA1UEBwwFZGlqb24xDTALBgNVBAoMBGVv
bGUxCzAJBgNVBAsMAmNpMREwDwYDVQQDDAhBQ0VvbGVDSTAeFw0xNjAzMTcxNDM2
MjBaFw0yNDA2MDMxNDM2MjBaMBoxGDAWBgNVBAMMD2VjbGFpci5ldGI2LmxhbjCB
nzANBgkqhkiG9w0BAQEFAAOBjQAwgYkCgYEA0zhUwFxfK3rBzFZhSkc697k14N+F
8um8cU9UY2YqWt1PpUJBdFplNnkOK00Si4YibRqIfkCRzEARzxx3+M3PzFFWT87a
37pMqnuQ50UINNVzhr7UFvj7eRCO3PWpIDGD8I5Y8PRp7oJU63RfcHz06S6yRALo
/RqMu8G9miz65WMCAwEAAaN8MHowCQYDVR0TBAIwADAdBgNVHQ4EFgQUBlwEdgu5
fKqtY0+DM/cAsqu5K8IwHwYDVR0jBBgwFoAUON9GKTiyE4ulfIBLXqok2yXc7O4w
DgYDVR0PAQH/BAQDAgXgMB0GA1UdJQQWMBQGCCsGAQUFBwMCBggrBgEFBQcDBDAN
BgkqhkiG9w0BAQsFAAOBgQA18heam1wflJJ938ZdfPqkx7mY6qzUzsrxy9bpz74E
TnV1imcp3eW1MzTFRcaHeCr75rsALggIwgJBVsC1/Y7IUQuQNahfzrQwkdCUX+vs
ASmVE3HIIRmAJQycCn36BtdxU3Q0ezBCepMm1kNXDRuj343KV9/jSryzicsV6dom
NA==
-----END CERTIFICATE-----
