-----BEGIN RSA PRIVATE KEY-----
MIICXgIBAAKBgQDTOFTAXF8resHMVmFKRzr3uTXg34Xy6bxxT1RjZipa3U+lQkF0
WmU2eQ4rTRKLhiJtGoh+QJHMQBHPHHf4zc/MUVZPztrfukyqe5DnRQg01XOGvtQW
+Pt5EI7c9akgMYPwjljw9GnuglTrdF9wfPTpLrJEAuj9Goy7wb2aLPrlYwIDAQAB
AoGAfB1Hv9kHm1cA9f90H9+HSPWuMTtnTHwIXVTOM7JfBRGysVsjdyl+++laaBtb
4Fyrcgz7U6TBh5HGZTtHTA40Ibv8UO+ZHC5qEL6/vm0DK61g+fXuGtk4b0wtDymD
OnkUTqE6znaSToff27oezFzPDMARsnhZvTb5x/4qhhNMPKECQQDtG2BshofvyXUG
v4puW090Wmbtb/wNBnZqc/+uhhpgItmdljOfD6qXouXdkI1xdGhFYnhrgbrIdjR/
ER16BJL5AkEA5AzmnBw9C0/a2AKquvvrGxuMZOon7c9UAv8YUXpYlCmp5Vtsm9oo
g5n5L00YcPY/zA8mc2lnCZGwaNqzJPC2OwJBAKKsDKyIZA0UVzDJCs2J4eo+96zh
DrlU/LsuWHXBVaktX8XpPgNb+TtNrI0lVpVHOx6XX2zKtX5A8uVWtbV4G+kCQQCX
IZWSz4QFAx7dGKdc06aziEY6epOLnmLmuXe8R4B8cEAPp88KWkGPNXNWTZltA0S0
TzYENk36oXpvgsBGMuARAkEA3ozYqRp8W+eGtmDPOI2IasQftMCSNRdr6QY1aquH
minZgCBsqB1YMURt01NrSMflvgF2QjE3YmNWIqFPG+TiOw==
-----END RSA PRIVATE KEY-----
Certificate:
    Data:
        Version: 3 (0x2)
        Serial Number: 201 (0xc9)
    Signature Algorithm: sha256WithRSAEncryption
        Issuer: C=FR, ST=bourgogne, L=dijon, O=eole, OU=ci, CN=ACEoleCI
        Validity
            Not Before: Mar 17 14:36:21 2016 GMT
            Not After : Jun  3 14:36:21 2024 GMT
        Subject: CN=eclair.etb6.lan
        Subject Public Key Info:
            Public Key Algorithm: rsaEncryption
                Public-Key: (1024 bit)
                Modulus:
                    00:d3:38:54:c0:5c:5f:2b:7a:c1:cc:56:61:4a:47:
                    3a:f7:b9:35:e0:df:85:f2:e9:bc:71:4f:54:63:66:
                    2a:5a:dd:4f:a5:42:41:74:5a:65:36:79:0e:2b:4d:
                    12:8b:86:22:6d:1a:88:7e:40:91:cc:40:11:cf:1c:
                    77:f8:cd:cf:cc:51:56:4f:ce:da:df:ba:4c:aa:7b:
                    90:e7:45:08:34:d5:73:86:be:d4:16:f8:fb:79:10:
                    8e:dc:f5:a9:20:31:83:f0:8e:58:f0:f4:69:ee:82:
                    54:eb:74:5f:70:7c:f4:e9:2e:b2:44:02:e8:fd:1a:
                    8c:bb:c1:bd:9a:2c:fa:e5:63
                Exponent: 65537 (0x10001)
        X509v3 extensions:
            X509v3 Basic Constraints: 
                CA:FALSE
            X509v3 Subject Key Identifier: 
                06:5C:04:76:0B:B9:7C:AA:AD:63:4F:83:33:F7:00:B2:AB:B9:2B:C2
            X509v3 Authority Key Identifier: 
                keyid:38:DF:46:29:38:B2:13:8B:A5:7C:80:4B:5E:AA:24:DB:25:DC:EC:EE
                DirName:/C=FR/ST=bourgogne/L=dijon/O=eole/OU=ci/CN=ACEoleCI
                serial:81:5A:FE:E5:BA:70:38:01

            X509v3 Key Usage: critical
                Digital Signature, Key Encipherment
    Signature Algorithm: sha256WithRSAEncryption
         45:4d:70:9c:f5:de:dd:f8:4f:11:5a:5c:d1:31:ac:7e:09:da:
         b1:41:7f:cf:e8:f0:ae:c0:f5:8a:d2:4a:fd:b9:59:9d:4e:cf:
         33:46:61:51:0c:61:09:e7:0d:88:81:b2:1d:cd:10:4a:3e:96:
         24:c9:2c:21:23:e1:83:c6:e9:57:96:70:c6:80:49:88:f0:79:
         ab:b4:b9:94:48:72:e7:84:80:8d:81:9a:3f:49:c7:da:40:21:
         55:90:79:e8:db:b4:d3:51:1f:ca:60:d3:cc:e8:e5:ff:8a:6c:
         50:bb:9b:74:4d:2b:6c:98:10:58:62:61:7a:c3:a6:c5:be:81:
         2a:86
-----BEGIN CERTIFICATE-----
MIICxDCCAi2gAwIBAgICAMkwDQYJKoZIhvcNAQELBQAwYDELMAkGA1UEBhMCRlIx
EjAQBgNVBAgMCWJvdXJnb2duZTEOMAwGA1UEBwwFZGlqb24xDTALBgNVBAoMBGVv
bGUxCzAJBgNVBAsMAmNpMREwDwYDVQQDDAhBQ0VvbGVDSTAeFw0xNjAzMTcxNDM2
MjFaFw0yNDA2MDMxNDM2MjFaMBoxGDAWBgNVBAMMD2VjbGFpci5ldGI2LmxhbjCB
nzANBgkqhkiG9w0BAQEFAAOBjQAwgYkCgYEA0zhUwFxfK3rBzFZhSkc697k14N+F
8um8cU9UY2YqWt1PpUJBdFplNnkOK00Si4YibRqIfkCRzEARzxx3+M3PzFFWT87a
37pMqnuQ50UINNVzhr7UFvj7eRCO3PWpIDGD8I5Y8PRp7oJU63RfcHz06S6yRALo
/RqMu8G9miz65WMCAwEAAaOB0jCBzzAJBgNVHRMEAjAAMB0GA1UdDgQWBBQGXAR2
C7l8qq1jT4Mz9wCyq7krwjCBkgYDVR0jBIGKMIGHgBQ430YpOLITi6V8gEteqiTb
Jdzs7qFkpGIwYDELMAkGA1UEBhMCRlIxEjAQBgNVBAgMCWJvdXJnb2duZTEOMAwG
A1UEBwwFZGlqb24xDTALBgNVBAoMBGVvbGUxCzAJBgNVBAsMAmNpMREwDwYDVQQD
DAhBQ0VvbGVDSYIJAIFa/uW6cDgBMA4GA1UdDwEB/wQEAwIFoDANBgkqhkiG9w0B
AQsFAAOBgQBFTXCc9d7d+E8RWlzRMax+CdqxQX/P6PCuwPWK0kr9uVmdTs8zRmFR
DGEJ5w2IgbIdzRBKPpYkySwhI+GDxulXlnDGgEmI8HmrtLmUSHLnhICNgZo/Scfa
QCFVkHno27TTUR/KYNPM6OX/imxQu5t0TStsmBBYYmF6w6bFvoEqhg==
-----END CERTIFICATE-----
