Certificate:
    Data:
        Version: 3 (0x2)
        Serial Number: 9 (0x9)
    Signature Algorithm: sha256WithRSAEncryption
        Issuer: C=FR, ST=bourgogne, L=dijon, O=eole, OU=ci, CN=ACEoleCI
        Validity
            Not Before: Mar 17 14:35:31 2016 GMT
            Not After : Jun  3 14:35:31 2024 GMT
        Subject: CN=ecdl.ac-test.lan
        Subject Public Key Info:
            Public Key Algorithm: rsaEncryption
                Public-Key: (1024 bit)
                Modulus:
                    00:f3:aa:a6:3b:4b:d0:29:06:e5:5b:0b:90:63:a1:
                    dd:30:89:3d:50:fc:d1:8c:aa:a3:45:aa:98:b2:ab:
                    4d:9c:bf:c1:36:69:22:1d:71:29:39:5d:16:0b:c1:
                    96:e8:d6:7c:c0:6d:b8:16:49:4d:39:88:63:34:07:
                    86:56:55:5c:87:18:76:dc:f4:13:3f:6c:b3:c4:4d:
                    71:13:6a:f8:16:7b:b0:a3:46:1a:ee:60:03:e9:b5:
                    8a:c4:83:41:ba:56:4f:c3:29:16:c5:87:d9:86:83:
                    91:3e:d4:a1:c4:36:fc:34:5a:4a:9c:12:8f:af:1f:
                    ed:90:8e:d6:d9:eb:78:24:f5
                Exponent: 65537 (0x10001)
        X509v3 extensions:
            X509v3 Basic Constraints: 
                CA:FALSE
            X509v3 Subject Key Identifier: 
                B2:E9:84:10:C3:66:6D:FA:16:E4:F1:53:B0:18:D4:A8:35:5D:B6:04
            X509v3 Authority Key Identifier: 
                keyid:38:DF:46:29:38:B2:13:8B:A5:7C:80:4B:5E:AA:24:DB:25:DC:EC:EE
                DirName:/C=FR/ST=bourgogne/L=dijon/O=eole/OU=ci/CN=ACEoleCI
                serial:81:5A:FE:E5:BA:70:38:01

            X509v3 Key Usage: critical
                Digital Signature, Key Encipherment
    Signature Algorithm: sha256WithRSAEncryption
         4e:66:53:b9:0e:64:59:62:49:85:f4:8c:4b:ec:2c:1c:0c:2d:
         ea:cb:c3:b6:a8:37:74:7c:0d:17:f2:43:52:55:a0:03:6e:5a:
         0a:2b:86:fa:be:40:a9:b8:ca:a7:d4:97:a5:dc:32:73:ba:99:
         e8:95:42:bf:b4:56:91:cf:8b:9c:a5:e4:aa:8b:fa:71:c0:1a:
         07:a5:9f:0f:46:26:de:40:d3:39:91:58:86:6c:97:69:b5:04:
         20:f5:f8:31:aa:32:91:90:ed:ef:56:a5:44:8d:52:29:4d:f4:
         bd:48:f8:8e:b5:06:23:1e:a1:fb:3b:1a:bc:47:6e:ef:0f:f9:
         df:c9
-----BEGIN CERTIFICATE-----
MIICxDCCAi2gAwIBAgIBCTANBgkqhkiG9w0BAQsFADBgMQswCQYDVQQGEwJGUjES
MBAGA1UECAwJYm91cmdvZ25lMQ4wDAYDVQQHDAVkaWpvbjENMAsGA1UECgwEZW9s
ZTELMAkGA1UECwwCY2kxETAPBgNVBAMMCEFDRW9sZUNJMB4XDTE2MDMxNzE0MzUz
MVoXDTI0MDYwMzE0MzUzMVowGzEZMBcGA1UEAwwQZWNkbC5hYy10ZXN0LmxhbjCB
nzANBgkqhkiG9w0BAQEFAAOBjQAwgYkCgYEA86qmO0vQKQblWwuQY6HdMIk9UPzR
jKqjRaqYsqtNnL/BNmkiHXEpOV0WC8GW6NZ8wG24FklNOYhjNAeGVlVchxh23PQT
P2yzxE1xE2r4Fnuwo0Ya7mAD6bWKxINBulZPwykWxYfZhoORPtShxDb8NFpKnBKP
rx/tkI7W2et4JPUCAwEAAaOB0jCBzzAJBgNVHRMEAjAAMB0GA1UdDgQWBBSy6YQQ
w2Zt+hbk8VOwGNSoNV22BDCBkgYDVR0jBIGKMIGHgBQ430YpOLITi6V8gEteqiTb
Jdzs7qFkpGIwYDELMAkGA1UEBhMCRlIxEjAQBgNVBAgMCWJvdXJnb2duZTEOMAwG
A1UEBwwFZGlqb24xDTALBgNVBAoMBGVvbGUxCzAJBgNVBAsMAmNpMREwDwYDVQQD
DAhBQ0VvbGVDSYIJAIFa/uW6cDgBMA4GA1UdDwEB/wQEAwIFoDANBgkqhkiG9w0B
AQsFAAOBgQBOZlO5DmRZYkmF9IxL7CwcDC3qy8O2qDd0fA0X8kNSVaADbloKK4b6
vkCpuMqn1Jel3DJzupnolUK/tFaRz4ucpeSqi/pxwBoHpZ8PRibeQNM5kViGbJdp
tQQg9fgxqjKRkO3vVqVEjVIpTfS9SPiOtQYjHqH7Oxq8R27vD/nfyQ==
-----END CERTIFICATE-----
