-----BEGIN RSA PRIVATE KEY-----
MIICWwIBAAKBgQDzqqY7S9ApBuVbC5Bjod0wiT1Q/NGMqqNFqpiyq02cv8E2aSId
cSk5XRYLwZbo1nzAbbgWSU05iGM0B4ZWVVyHGHbc9BM/bLPETXETavgWe7CjRhru
YAPptYrEg0G6Vk/DKRbFh9mGg5E+1KHENvw0WkqcEo+vH+2QjtbZ63gk9QIDAQAB
AoGADkMiz720RXJ94kJfBTXoOHsP97mUmmMyg1Vk8rBMLqyappCoyohhHVZxf+ao
6qADVVAWwlcwCfoNtHHsTwlYDQMIo3oA9nkgXbDPd3rEGSJSXlrWIxG12Q1qpACG
KxLCrswM/fAnAboKxMDk5mu7LS4O0e+udD40xKrGjnge1IECQQD6Wwy9dy5nk2+N
olsTAAPM3JVADdfEcqEdOmU5qTPYp+u6rcz0/4yRh2n0nuwKU6tTOS76hVFX2dv9
7vA3kGhtAkEA+Sj+N+o/3OUl9JXXbVpQuDRgbdwcOUVJceT3PBqN5z+hDx/2XJlA
FPmg1+R1XN5ltWILOaZEYLOuMJc2Z3jpqQJAFItYNkwLcNB2fQbvtlVv+mW3kbQR
GrvVYNKj7+FkscjF3WHZydkWrfKQzVQlRourKX8tzb0W+cCU/veWmtis2QJAIwW8
Fif7KhWbrDGTwm87gWj7VPXnkbVHiZbhmbUx1RuAjBu2CXYRJ+Ge1jnqtU8dhM1v
Pn88hUs8ZOAcaZb5YQJAHeZAMXvz/c7WFqwEVY9k8KlGEbEeTT9Lk9D+5Rzkt/6n
jJc3tlTilqFMvhnwqDy/wrmUwTWtr5JHK0REWMu3yw==
-----END RSA PRIVATE KEY-----
Certificate:
    Data:
        Version: 3 (0x2)
        Serial Number: 7 (0x7)
    Signature Algorithm: sha256WithRSAEncryption
        Issuer: C=FR, ST=bourgogne, L=dijon, O=eole, OU=ci, CN=ACEoleCI
        Validity
            Not Before: Mar 17 14:35:30 2016 GMT
            Not After : Jun  3 14:35:30 2024 GMT
        Subject: CN=ecdl.ac-test.lan
        Subject Public Key Info:
            Public Key Algorithm: rsaEncryption
                Public-Key: (1024 bit)
                Modulus:
                    00:f3:aa:a6:3b:4b:d0:29:06:e5:5b:0b:90:63:a1:
                    dd:30:89:3d:50:fc:d1:8c:aa:a3:45:aa:98:b2:ab:
                    4d:9c:bf:c1:36:69:22:1d:71:29:39:5d:16:0b:c1:
                    96:e8:d6:7c:c0:6d:b8:16:49:4d:39:88:63:34:07:
                    86:56:55:5c:87:18:76:dc:f4:13:3f:6c:b3:c4:4d:
                    71:13:6a:f8:16:7b:b0:a3:46:1a:ee:60:03:e9:b5:
                    8a:c4:83:41:ba:56:4f:c3:29:16:c5:87:d9:86:83:
                    91:3e:d4:a1:c4:36:fc:34:5a:4a:9c:12:8f:af:1f:
                    ed:90:8e:d6:d9:eb:78:24:f5
                Exponent: 65537 (0x10001)
        X509v3 extensions:
            X509v3 Basic Constraints: 
                CA:FALSE
            X509v3 Subject Key Identifier: 
                B2:E9:84:10:C3:66:6D:FA:16:E4:F1:53:B0:18:D4:A8:35:5D:B6:04
            X509v3 Authority Key Identifier: 
                keyid:38:DF:46:29:38:B2:13:8B:A5:7C:80:4B:5E:AA:24:DB:25:DC:EC:EE
                DirName:/C=FR/ST=bourgogne/L=dijon/O=eole/OU=ci/CN=ACEoleCI
                serial:81:5A:FE:E5:BA:70:38:01

            X509v3 Key Usage: critical
                Digital Signature, Key Encipherment
            X509v3 Extended Key Usage: 
                TLS Web Server Authentication
    Signature Algorithm: sha256WithRSAEncryption
         76:9e:4c:4b:43:1b:87:32:e5:02:4c:2c:2a:0a:b1:2d:9a:d5:
         1c:98:bd:9c:f9:b8:4a:75:45:f5:1e:ef:8c:c7:32:36:32:fc:
         51:08:2c:43:ab:c2:60:ca:4b:aa:7d:f6:dc:9c:f2:80:47:c1:
         55:c1:7c:21:82:af:9c:5c:3d:ff:65:45:48:cc:28:2b:c1:f7:
         26:8f:02:cd:e7:cb:0a:82:69:7c:f3:ed:7f:d2:bf:70:6f:05:
         c6:19:9b:4d:4e:26:d5:89:32:d3:67:a6:e8:13:f2:52:3c:29:
         ea:81:c4:63:47:20:a2:96:6c:ae:1e:c1:23:42:30:92:c5:81:
         28:9c
-----BEGIN CERTIFICATE-----
MIIC2TCCAkKgAwIBAgIBBzANBgkqhkiG9w0BAQsFADBgMQswCQYDVQQGEwJGUjES
MBAGA1UECAwJYm91cmdvZ25lMQ4wDAYDVQQHDAVkaWpvbjENMAsGA1UECgwEZW9s
ZTELMAkGA1UECwwCY2kxETAPBgNVBAMMCEFDRW9sZUNJMB4XDTE2MDMxNzE0MzUz
MFoXDTI0MDYwMzE0MzUzMFowGzEZMBcGA1UEAwwQZWNkbC5hYy10ZXN0LmxhbjCB
nzANBgkqhkiG9w0BAQEFAAOBjQAwgYkCgYEA86qmO0vQKQblWwuQY6HdMIk9UPzR
jKqjRaqYsqtNnL/BNmkiHXEpOV0WC8GW6NZ8wG24FklNOYhjNAeGVlVchxh23PQT
P2yzxE1xE2r4Fnuwo0Ya7mAD6bWKxINBulZPwykWxYfZhoORPtShxDb8NFpKnBKP
rx/tkI7W2et4JPUCAwEAAaOB5zCB5DAJBgNVHRMEAjAAMB0GA1UdDgQWBBSy6YQQ
w2Zt+hbk8VOwGNSoNV22BDCBkgYDVR0jBIGKMIGHgBQ430YpOLITi6V8gEteqiTb
Jdzs7qFkpGIwYDELMAkGA1UEBhMCRlIxEjAQBgNVBAgMCWJvdXJnb2duZTEOMAwG
A1UEBwwFZGlqb24xDTALBgNVBAoMBGVvbGUxCzAJBgNVBAsMAmNpMREwDwYDVQQD
DAhBQ0VvbGVDSYIJAIFa/uW6cDgBMA4GA1UdDwEB/wQEAwIFoDATBgNVHSUEDDAK
BggrBgEFBQcDATANBgkqhkiG9w0BAQsFAAOBgQB2nkxLQxuHMuUCTCwqCrEtmtUc
mL2c+bhKdUX1Hu+MxzI2MvxRCCxDq8JgykuqffbcnPKAR8FVwXwhgq+cXD3/ZUVI
zCgrwfcmjwLN58sKgml88+1/0r9wbwXGGZtNTibViTLTZ6boE/JSPCnqgcRjRyCi
lmyuHsEjQjCSxYEonA==
-----END CERTIFICATE-----
