-----BEGIN RSA PRIVATE KEY-----
MIICWwIBAAKBgQCloNKBTUSCS20rJJtuJ3H1YAE0K6uIP8fvzmJ6ZsTGA3t5c3Ct
ORviMCZ6xnIAfdSvg+j5GtoRJggNcuiveJNvNBaPSltf0xVJjFXDauYuKlYM8/VL
ly67qLW3mEya84Zk2Fqz9hu6JV7q2LAwOGsUR+kzXjt/E2CPRJlXxjc9YwIDAQAB
AoGABu/ygTn0SaTRIMJ6xCVgz49C3aWKnL1XKYMyer/9M/IHZPHh4U+IDHRJ2FCh
i8W5d9SFmJF4WsmGAtIyTs81FZ0OSEhbVAjfnSJzVcMivz9vVgjspHN8UCiwmlFg
cHl60Oxlz9AFSQ3Yg4DXZcfZxfEOQ3MgpuymIi7ydYwyxlECQQDTv/go85T2vanr
dS4gDuT77xlhD1tMJwPryLZUkGQt5iMbklmrAi5FJGvzpT6IukggAW5XBnWc3aKR
KrBn3B5LAkEAyD14wuAnurVBnamiBm78IZIuNdq2XcwoTZhS3pH7F8LpfjrDgb3F
Z8a6FPzloe3+59D3ifLpEs+B0R9WE8+OSQJAdRkKEQty62hDWVR553yVIMU+kbA+
WsSQpIlgWy9mVwOXkp3CPJF+KPpVQG23QUFStXBVJocJ72+ZgRHMcAMINQJAD/6x
DcgABG8EHcb2FVN6OmhF3rFozddIBOK9A+BfUUeVhSrGgS+afC6ooJKO+T9clEHh
9Bf+PC1tLjo1kwGKWQJAZVpV0JvOrIjvJ+5NZtVKFEPEcpBWBxih/8QGg68zaxJk
nN7j7ni+MoZUWGvGEZzOUozo6jPr706beOKWlDtUHg==
-----END RSA PRIVATE KEY-----
Certificate:
    Data:
        Version: 3 (0x2)
        Serial Number: 75 (0x4b)
    Signature Algorithm: sha256WithRSAEncryption
        Issuer: C=FR, ST=bourgogne, L=dijon, O=eole, OU=ci, CN=ACEoleCI
        Validity
            Not Before: Mar 17 14:35:48 2016 GMT
            Not After : Jun  3 14:35:48 2024 GMT
        Subject: CN=thot.ac-test.lan
        Subject Public Key Info:
            Public Key Algorithm: rsaEncryption
                Public-Key: (1024 bit)
                Modulus:
                    00:a5:a0:d2:81:4d:44:82:4b:6d:2b:24:9b:6e:27:
                    71:f5:60:01:34:2b:ab:88:3f:c7:ef:ce:62:7a:66:
                    c4:c6:03:7b:79:73:70:ad:39:1b:e2:30:26:7a:c6:
                    72:00:7d:d4:af:83:e8:f9:1a:da:11:26:08:0d:72:
                    e8:af:78:93:6f:34:16:8f:4a:5b:5f:d3:15:49:8c:
                    55:c3:6a:e6:2e:2a:56:0c:f3:f5:4b:97:2e:bb:a8:
                    b5:b7:98:4c:9a:f3:86:64:d8:5a:b3:f6:1b:ba:25:
                    5e:ea:d8:b0:30:38:6b:14:47:e9:33:5e:3b:7f:13:
                    60:8f:44:99:57:c6:37:3d:63
                Exponent: 65537 (0x10001)
        X509v3 extensions:
            X509v3 Basic Constraints: 
                CA:FALSE
            X509v3 Subject Key Identifier: 
                DF:05:D8:F3:91:46:63:D7:94:E8:89:34:7B:29:35:BB:4A:45:55:E8
            X509v3 Authority Key Identifier: 
                keyid:38:DF:46:29:38:B2:13:8B:A5:7C:80:4B:5E:AA:24:DB:25:DC:EC:EE
                DirName:/C=FR/ST=bourgogne/L=dijon/O=eole/OU=ci/CN=ACEoleCI
                serial:81:5A:FE:E5:BA:70:38:01

            X509v3 Key Usage: critical
                Digital Signature, Key Encipherment
    Signature Algorithm: sha256WithRSAEncryption
         0a:b0:33:11:7b:2f:03:58:8c:1b:74:b6:21:c3:bf:5e:e6:9b:
         e9:f5:8a:2b:a7:a7:73:66:68:61:96:e4:34:e0:a7:8d:c4:ea:
         0e:2c:61:53:51:73:9a:59:bf:0d:4d:ba:13:16:26:1e:0a:98:
         68:32:4f:37:3a:c4:84:5a:08:21:f3:54:73:0a:58:a8:b8:b0:
         0f:16:44:4a:df:10:37:f2:93:18:77:39:57:67:3b:9d:a0:5d:
         7c:46:9b:8e:99:41:f3:b1:13:03:5e:ad:73:84:a6:f8:59:93:
         10:82:7b:64:f3:a6:ca:84:12:1c:c7:91:ef:b4:47:28:45:68:
         61:92
-----BEGIN CERTIFICATE-----
MIICxDCCAi2gAwIBAgIBSzANBgkqhkiG9w0BAQsFADBgMQswCQYDVQQGEwJGUjES
MBAGA1UECAwJYm91cmdvZ25lMQ4wDAYDVQQHDAVkaWpvbjENMAsGA1UECgwEZW9s
ZTELMAkGA1UECwwCY2kxETAPBgNVBAMMCEFDRW9sZUNJMB4XDTE2MDMxNzE0MzU0
OFoXDTI0MDYwMzE0MzU0OFowGzEZMBcGA1UEAwwQdGhvdC5hYy10ZXN0LmxhbjCB
nzANBgkqhkiG9w0BAQEFAAOBjQAwgYkCgYEApaDSgU1EgkttKySbbidx9WABNCur
iD/H785iembExgN7eXNwrTkb4jAmesZyAH3Ur4Po+RraESYIDXLor3iTbzQWj0pb
X9MVSYxVw2rmLipWDPP1S5cuu6i1t5hMmvOGZNhas/YbuiVe6tiwMDhrFEfpM147
fxNgj0SZV8Y3PWMCAwEAAaOB0jCBzzAJBgNVHRMEAjAAMB0GA1UdDgQWBBTfBdjz
kUZj15ToiTR7KTW7SkVV6DCBkgYDVR0jBIGKMIGHgBQ430YpOLITi6V8gEteqiTb
Jdzs7qFkpGIwYDELMAkGA1UEBhMCRlIxEjAQBgNVBAgMCWJvdXJnb2duZTEOMAwG
A1UEBwwFZGlqb24xDTALBgNVBAoMBGVvbGUxCzAJBgNVBAsMAmNpMREwDwYDVQQD
DAhBQ0VvbGVDSYIJAIFa/uW6cDgBMA4GA1UdDwEB/wQEAwIFoDANBgkqhkiG9w0B
AQsFAAOBgQAKsDMRey8DWIwbdLYhw79e5pvp9Yorp6dzZmhhluQ04KeNxOoOLGFT
UXOaWb8NTboTFiYeCphoMk83OsSEWggh81RzCliouLAPFkRK3xA38pMYdzlXZzud
oF18RpuOmUHzsRMDXq1zhKb4WZMQgntk86bKhBIcx5HvtEcoRWhhkg==
-----END CERTIFICATE-----
