-----BEGIN RSA PRIVATE KEY-----
MIICXQIBAAKBgQC3aeVoT/MeGaN197/CI54arQ07a3fPfCMldE6Uls0v/1buLh1e
+nMGx2Kvw7KbqBuSrlC/KLINa8rwDQ4ScW3McQW8+heo2Ah4GTcV38lw6oTbv3m0
WLeMGNo+RlTwkkI4aWKaqvgBd519RfkVp3AXDo/Ic0uYKj1I5AfyndxSBQIDAQAB
AoGBAKqAM7VLlSqnFNBmNgmISMJtmn5hQehMcvOvchkpMqdqy2nwznbrhSCJG1Ff
L9sJZFBv4TpC33ogeW+8Axfb//9ZE590eOzFolfX8IHQxTMRd1d/xMIFCy5JoqCQ
RNwFK2qbVm/6bePT0NxWJx+ca3YRhb/NpCMvp4Y3MYcKkNyhAkEA3mZgUHN1D6Ys
taroylhiBz3OnYKwuCG8fvCfWdAyv60zjGd6htbydZxUFaZhr1DAT2pDgkh9q4AS
m2UxX7roXQJBANMfrDtYVWv8MiRTnRml1hYS+LbuCQtmXDsutr/0SpyADUSuvFBt
bNcdoytXe1CzaGQbMqBXhd25ELB8VsV5VckCQAPBsPDK8nhAM1MiPupkEcvThHDu
qzOBBmESiW6H8MOCFnPRr6UlblUEPftboxzF/WmZ/uftd4n1ENtlGy9lxdUCQQCU
xc7yis63J6KV4q3j8u6n43qMPbT16Y24zrRNE/K30ayH57If4tw9wk7HLgBh3+sC
EABe6Q4WLmFKXHQw982xAkB28gi330SgM7dp3CNO3eBHwY5jd0IRbcdljn/tMxDR
W8GKoHLpoHbtIhmQT+rXLOJLpvw/wXKeVBfJrirVAlyN
-----END RSA PRIVATE KEY-----
Certificate:
    Data:
        Version: 3 (0x2)
        Serial Number: 68 (0x44)
    Signature Algorithm: sha256WithRSAEncryption
        Issuer: C=FR, ST=bourgogne, L=dijon, O=eole, OU=ci, CN=ACEoleCI
        Validity
            Not Before: Mar 17 14:35:46 2016 GMT
            Not After : Jun  3 14:35:46 2024 GMT
        Subject: CN=sphynxb.ac-test.lan
        Subject Public Key Info:
            Public Key Algorithm: rsaEncryption
                Public-Key: (1024 bit)
                Modulus:
                    00:b7:69:e5:68:4f:f3:1e:19:a3:75:f7:bf:c2:23:
                    9e:1a:ad:0d:3b:6b:77:cf:7c:23:25:74:4e:94:96:
                    cd:2f:ff:56:ee:2e:1d:5e:fa:73:06:c7:62:af:c3:
                    b2:9b:a8:1b:92:ae:50:bf:28:b2:0d:6b:ca:f0:0d:
                    0e:12:71:6d:cc:71:05:bc:fa:17:a8:d8:08:78:19:
                    37:15:df:c9:70:ea:84:db:bf:79:b4:58:b7:8c:18:
                    da:3e:46:54:f0:92:42:38:69:62:9a:aa:f8:01:77:
                    9d:7d:45:f9:15:a7:70:17:0e:8f:c8:73:4b:98:2a:
                    3d:48:e4:07:f2:9d:dc:52:05
                Exponent: 65537 (0x10001)
        X509v3 extensions:
            X509v3 Basic Constraints: 
                CA:FALSE
            X509v3 Subject Key Identifier: 
                2C:9C:FD:61:3C:F1:B0:6C:A2:70:13:32:18:C1:9F:6A:EE:FD:EF:86
            X509v3 Authority Key Identifier: 
                keyid:38:DF:46:29:38:B2:13:8B:A5:7C:80:4B:5E:AA:24:DB:25:DC:EC:EE

            X509v3 Key Usage: critical
                Digital Signature, Non Repudiation, Key Encipherment
            X509v3 Extended Key Usage: 
                TLS Web Client Authentication, E-mail Protection
    Signature Algorithm: sha256WithRSAEncryption
         12:0e:a3:50:3d:12:a3:19:70:76:08:5e:03:5d:20:b5:b5:b3:
         86:19:a8:4e:b7:9b:26:ff:0e:1f:e1:10:c5:8e:35:65:d2:98:
         33:18:48:9b:3b:b3:36:8a:07:ea:56:e2:f9:86:ae:ed:d9:e2:
         a7:4d:55:8a:ca:62:53:c2:7a:18:dd:6f:f6:f9:2f:b0:a2:cc:
         a9:d6:7d:f7:94:f1:e9:19:57:4d:1f:05:ff:b0:7e:0e:50:d0:
         3b:ee:92:77:05:75:bf:18:78:56:b2:98:36:df:33:3a:45:f1:
         a4:6e:c3:e1:8d:49:98:c3:45:aa:c1:33:a9:00:4e:67:16:8c:
         ee:fa
-----BEGIN CERTIFICATE-----
MIICcDCCAdmgAwIBAgIBRDANBgkqhkiG9w0BAQsFADBgMQswCQYDVQQGEwJGUjES
MBAGA1UECAwJYm91cmdvZ25lMQ4wDAYDVQQHDAVkaWpvbjENMAsGA1UECgwEZW9s
ZTELMAkGA1UECwwCY2kxETAPBgNVBAMMCEFDRW9sZUNJMB4XDTE2MDMxNzE0MzU0
NloXDTI0MDYwMzE0MzU0NlowHjEcMBoGA1UEAwwTc3BoeW54Yi5hYy10ZXN0Lmxh
bjCBnzANBgkqhkiG9w0BAQEFAAOBjQAwgYkCgYEAt2nlaE/zHhmjdfe/wiOeGq0N
O2t3z3wjJXROlJbNL/9W7i4dXvpzBsdir8Oym6gbkq5QvyiyDWvK8A0OEnFtzHEF
vPoXqNgIeBk3Fd/JcOqE2795tFi3jBjaPkZU8JJCOGlimqr4AXedfUX5FadwFw6P
yHNLmCo9SOQH8p3cUgUCAwEAAaN8MHowCQYDVR0TBAIwADAdBgNVHQ4EFgQULJz9
YTzxsGyicBMyGMGfau7974YwHwYDVR0jBBgwFoAUON9GKTiyE4ulfIBLXqok2yXc
7O4wDgYDVR0PAQH/BAQDAgXgMB0GA1UdJQQWMBQGCCsGAQUFBwMCBggrBgEFBQcD
BDANBgkqhkiG9w0BAQsFAAOBgQASDqNQPRKjGXB2CF4DXSC1tbOGGahOt5sm/w4f
4RDFjjVl0pgzGEibO7M2igfqVuL5hq7t2eKnTVWKymJTwnoY3W/2+S+wosyp1n33
lPHpGVdNHwX/sH4OUNA77pJ3BXW/GHhWspg23zM6RfGkbsPhjUmYw0WqwTOpAE5n
Fozu+g==
-----END CERTIFICATE-----
