-----BEGIN RSA PRIVATE KEY-----
MIICXQIBAAKBgQC3aeVoT/MeGaN197/CI54arQ07a3fPfCMldE6Uls0v/1buLh1e
+nMGx2Kvw7KbqBuSrlC/KLINa8rwDQ4ScW3McQW8+heo2Ah4GTcV38lw6oTbv3m0
WLeMGNo+RlTwkkI4aWKaqvgBd519RfkVp3AXDo/Ic0uYKj1I5AfyndxSBQIDAQAB
AoGBAKqAM7VLlSqnFNBmNgmISMJtmn5hQehMcvOvchkpMqdqy2nwznbrhSCJG1Ff
L9sJZFBv4TpC33ogeW+8Axfb//9ZE590eOzFolfX8IHQxTMRd1d/xMIFCy5JoqCQ
RNwFK2qbVm/6bePT0NxWJx+ca3YRhb/NpCMvp4Y3MYcKkNyhAkEA3mZgUHN1D6Ys
taroylhiBz3OnYKwuCG8fvCfWdAyv60zjGd6htbydZxUFaZhr1DAT2pDgkh9q4AS
m2UxX7roXQJBANMfrDtYVWv8MiRTnRml1hYS+LbuCQtmXDsutr/0SpyADUSuvFBt
bNcdoytXe1CzaGQbMqBXhd25ELB8VsV5VckCQAPBsPDK8nhAM1MiPupkEcvThHDu
qzOBBmESiW6H8MOCFnPRr6UlblUEPftboxzF/WmZ/uftd4n1ENtlGy9lxdUCQQCU
xc7yis63J6KV4q3j8u6n43qMPbT16Y24zrRNE/K30ayH57If4tw9wk7HLgBh3+sC
EABe6Q4WLmFKXHQw982xAkB28gi330SgM7dp3CNO3eBHwY5jd0IRbcdljn/tMxDR
W8GKoHLpoHbtIhmQT+rXLOJLpvw/wXKeVBfJrirVAlyN
-----END RSA PRIVATE KEY-----
Certificate:
    Data:
        Version: 3 (0x2)
        Serial Number: 67 (0x43)
    Signature Algorithm: sha256WithRSAEncryption
        Issuer: C=FR, ST=bourgogne, L=dijon, O=eole, OU=ci, CN=ACEoleCI
        Validity
            Not Before: Mar 17 14:35:46 2016 GMT
            Not After : Jun  3 14:35:46 2024 GMT
        Subject: CN=sphynxb.ac-test.lan
        Subject Public Key Info:
            Public Key Algorithm: rsaEncryption
                Public-Key: (1024 bit)
                Modulus:
                    00:b7:69:e5:68:4f:f3:1e:19:a3:75:f7:bf:c2:23:
                    9e:1a:ad:0d:3b:6b:77:cf:7c:23:25:74:4e:94:96:
                    cd:2f:ff:56:ee:2e:1d:5e:fa:73:06:c7:62:af:c3:
                    b2:9b:a8:1b:92:ae:50:bf:28:b2:0d:6b:ca:f0:0d:
                    0e:12:71:6d:cc:71:05:bc:fa:17:a8:d8:08:78:19:
                    37:15:df:c9:70:ea:84:db:bf:79:b4:58:b7:8c:18:
                    da:3e:46:54:f0:92:42:38:69:62:9a:aa:f8:01:77:
                    9d:7d:45:f9:15:a7:70:17:0e:8f:c8:73:4b:98:2a:
                    3d:48:e4:07:f2:9d:dc:52:05
                Exponent: 65537 (0x10001)
        X509v3 extensions:
            X509v3 Basic Constraints: 
                CA:FALSE
            X509v3 Subject Key Identifier: 
                2C:9C:FD:61:3C:F1:B0:6C:A2:70:13:32:18:C1:9F:6A:EE:FD:EF:86
            X509v3 Authority Key Identifier: 
                keyid:38:DF:46:29:38:B2:13:8B:A5:7C:80:4B:5E:AA:24:DB:25:DC:EC:EE
                DirName:/C=FR/ST=bourgogne/L=dijon/O=eole/OU=ci/CN=ACEoleCI
                serial:81:5A:FE:E5:BA:70:38:01

            X509v3 Key Usage: critical
                Digital Signature, Key Encipherment
            X509v3 Extended Key Usage: 
                TLS Web Server Authentication
    Signature Algorithm: sha256WithRSAEncryption
         8f:14:41:44:e3:4d:fd:92:39:93:25:af:df:9f:92:17:42:1d:
         84:1b:57:f3:fd:df:90:17:29:3f:05:c6:9e:91:80:f2:0a:fa:
         49:09:2a:35:9f:29:64:be:d1:a7:15:fd:b3:5b:bd:8e:7c:70:
         72:f9:c9:2d:c7:8f:3c:f2:85:0d:c1:31:95:b3:96:f4:f0:7a:
         63:47:52:c5:65:f6:f0:ea:81:35:5f:ad:51:da:3b:6a:96:87:
         df:d2:07:99:6f:85:e5:92:db:c2:e6:71:53:50:a2:7d:85:da:
         ac:16:d0:07:de:75:a5:c7:4d:e4:34:e8:8c:ba:04:96:48:5b:
         cf:4c
-----BEGIN CERTIFICATE-----
MIIC3DCCAkWgAwIBAgIBQzANBgkqhkiG9w0BAQsFADBgMQswCQYDVQQGEwJGUjES
MBAGA1UECAwJYm91cmdvZ25lMQ4wDAYDVQQHDAVkaWpvbjENMAsGA1UECgwEZW9s
ZTELMAkGA1UECwwCY2kxETAPBgNVBAMMCEFDRW9sZUNJMB4XDTE2MDMxNzE0MzU0
NloXDTI0MDYwMzE0MzU0NlowHjEcMBoGA1UEAwwTc3BoeW54Yi5hYy10ZXN0Lmxh
bjCBnzANBgkqhkiG9w0BAQEFAAOBjQAwgYkCgYEAt2nlaE/zHhmjdfe/wiOeGq0N
O2t3z3wjJXROlJbNL/9W7i4dXvpzBsdir8Oym6gbkq5QvyiyDWvK8A0OEnFtzHEF
vPoXqNgIeBk3Fd/JcOqE2795tFi3jBjaPkZU8JJCOGlimqr4AXedfUX5FadwFw6P
yHNLmCo9SOQH8p3cUgUCAwEAAaOB5zCB5DAJBgNVHRMEAjAAMB0GA1UdDgQWBBQs
nP1hPPGwbKJwEzIYwZ9q7v3vhjCBkgYDVR0jBIGKMIGHgBQ430YpOLITi6V8gEte
qiTbJdzs7qFkpGIwYDELMAkGA1UEBhMCRlIxEjAQBgNVBAgMCWJvdXJnb2duZTEO
MAwGA1UEBwwFZGlqb24xDTALBgNVBAoMBGVvbGUxCzAJBgNVBAsMAmNpMREwDwYD
VQQDDAhBQ0VvbGVDSYIJAIFa/uW6cDgBMA4GA1UdDwEB/wQEAwIFoDATBgNVHSUE
DDAKBggrBgEFBQcDATANBgkqhkiG9w0BAQsFAAOBgQCPFEFE4039kjmTJa/fn5IX
Qh2EG1fz/d+QFyk/BcaekYDyCvpJCSo1nylkvtGnFf2zW72OfHBy+cktx4888oUN
wTGVs5b08HpjR1LFZfbw6oE1X61R2jtqloff0geZb4XlktvC5nFTUKJ9hdqsFtAH
3nWlx03kNOiMugSWSFvPTA==
-----END CERTIFICATE-----
