-----BEGIN RSA PRIVATE KEY-----
MIICXQIBAAKBgQC3aeVoT/MeGaN197/CI54arQ07a3fPfCMldE6Uls0v/1buLh1e
+nMGx2Kvw7KbqBuSrlC/KLINa8rwDQ4ScW3McQW8+heo2Ah4GTcV38lw6oTbv3m0
WLeMGNo+RlTwkkI4aWKaqvgBd519RfkVp3AXDo/Ic0uYKj1I5AfyndxSBQIDAQAB
AoGBAKqAM7VLlSqnFNBmNgmISMJtmn5hQehMcvOvchkpMqdqy2nwznbrhSCJG1Ff
L9sJZFBv4TpC33ogeW+8Axfb//9ZE590eOzFolfX8IHQxTMRd1d/xMIFCy5JoqCQ
RNwFK2qbVm/6bePT0NxWJx+ca3YRhb/NpCMvp4Y3MYcKkNyhAkEA3mZgUHN1D6Ys
taroylhiBz3OnYKwuCG8fvCfWdAyv60zjGd6htbydZxUFaZhr1DAT2pDgkh9q4AS
m2UxX7roXQJBANMfrDtYVWv8MiRTnRml1hYS+LbuCQtmXDsutr/0SpyADUSuvFBt
bNcdoytXe1CzaGQbMqBXhd25ELB8VsV5VckCQAPBsPDK8nhAM1MiPupkEcvThHDu
qzOBBmESiW6H8MOCFnPRr6UlblUEPftboxzF/WmZ/uftd4n1ENtlGy9lxdUCQQCU
xc7yis63J6KV4q3j8u6n43qMPbT16Y24zrRNE/K30ayH57If4tw9wk7HLgBh3+sC
EABe6Q4WLmFKXHQw982xAkB28gi330SgM7dp3CNO3eBHwY5jd0IRbcdljn/tMxDR
W8GKoHLpoHbtIhmQT+rXLOJLpvw/wXKeVBfJrirVAlyN
-----END RSA PRIVATE KEY-----
Certificate:
    Data:
        Version: 3 (0x2)
        Serial Number: 69 (0x45)
    Signature Algorithm: sha256WithRSAEncryption
        Issuer: C=FR, ST=bourgogne, L=dijon, O=eole, OU=ci, CN=ACEoleCI
        Validity
            Not Before: Mar 17 14:35:46 2016 GMT
            Not After : Jun  3 14:35:46 2024 GMT
        Subject: CN=sphynxb.ac-test.lan
        Subject Public Key Info:
            Public Key Algorithm: rsaEncryption
                Public-Key: (1024 bit)
                Modulus:
                    00:b7:69:e5:68:4f:f3:1e:19:a3:75:f7:bf:c2:23:
                    9e:1a:ad:0d:3b:6b:77:cf:7c:23:25:74:4e:94:96:
                    cd:2f:ff:56:ee:2e:1d:5e:fa:73:06:c7:62:af:c3:
                    b2:9b:a8:1b:92:ae:50:bf:28:b2:0d:6b:ca:f0:0d:
                    0e:12:71:6d:cc:71:05:bc:fa:17:a8:d8:08:78:19:
                    37:15:df:c9:70:ea:84:db:bf:79:b4:58:b7:8c:18:
                    da:3e:46:54:f0:92:42:38:69:62:9a:aa:f8:01:77:
                    9d:7d:45:f9:15:a7:70:17:0e:8f:c8:73:4b:98:2a:
                    3d:48:e4:07:f2:9d:dc:52:05
                Exponent: 65537 (0x10001)
        X509v3 extensions:
            X509v3 Basic Constraints: 
                CA:FALSE
            X509v3 Subject Key Identifier: 
                2C:9C:FD:61:3C:F1:B0:6C:A2:70:13:32:18:C1:9F:6A:EE:FD:EF:86
            X509v3 Authority Key Identifier: 
                keyid:38:DF:46:29:38:B2:13:8B:A5:7C:80:4B:5E:AA:24:DB:25:DC:EC:EE
                DirName:/C=FR/ST=bourgogne/L=dijon/O=eole/OU=ci/CN=ACEoleCI
                serial:81:5A:FE:E5:BA:70:38:01

            X509v3 Key Usage: critical
                Digital Signature, Key Encipherment
    Signature Algorithm: sha256WithRSAEncryption
         57:f5:9e:fb:b3:b2:ec:1a:86:b9:4c:a2:cd:82:62:2a:65:91:
         a6:a2:0f:fa:b0:c1:58:83:fe:5a:79:b4:1d:c8:6f:ce:21:3d:
         1f:45:2c:6c:57:88:8a:8f:00:1c:a1:5d:d4:a7:d7:5d:3a:9c:
         a1:cd:23:88:ff:3e:c8:80:98:19:6c:dd:94:ce:28:68:d7:ad:
         09:02:09:a8:69:08:ac:18:80:09:95:b1:96:3e:8d:42:3f:36:
         a1:86:43:30:86:3b:f7:05:3c:e3:b0:01:35:f9:f9:d2:9b:79:
         d1:0a:d4:57:7f:3a:6e:70:32:f2:d7:9d:60:31:b5:f1:62:25:
         bf:b7
-----BEGIN CERTIFICATE-----
MIICxzCCAjCgAwIBAgIBRTANBgkqhkiG9w0BAQsFADBgMQswCQYDVQQGEwJGUjES
MBAGA1UECAwJYm91cmdvZ25lMQ4wDAYDVQQHDAVkaWpvbjENMAsGA1UECgwEZW9s
ZTELMAkGA1UECwwCY2kxETAPBgNVBAMMCEFDRW9sZUNJMB4XDTE2MDMxNzE0MzU0
NloXDTI0MDYwMzE0MzU0NlowHjEcMBoGA1UEAwwTc3BoeW54Yi5hYy10ZXN0Lmxh
bjCBnzANBgkqhkiG9w0BAQEFAAOBjQAwgYkCgYEAt2nlaE/zHhmjdfe/wiOeGq0N
O2t3z3wjJXROlJbNL/9W7i4dXvpzBsdir8Oym6gbkq5QvyiyDWvK8A0OEnFtzHEF
vPoXqNgIeBk3Fd/JcOqE2795tFi3jBjaPkZU8JJCOGlimqr4AXedfUX5FadwFw6P
yHNLmCo9SOQH8p3cUgUCAwEAAaOB0jCBzzAJBgNVHRMEAjAAMB0GA1UdDgQWBBQs
nP1hPPGwbKJwEzIYwZ9q7v3vhjCBkgYDVR0jBIGKMIGHgBQ430YpOLITi6V8gEte
qiTbJdzs7qFkpGIwYDELMAkGA1UEBhMCRlIxEjAQBgNVBAgMCWJvdXJnb2duZTEO
MAwGA1UEBwwFZGlqb24xDTALBgNVBAoMBGVvbGUxCzAJBgNVBAsMAmNpMREwDwYD
VQQDDAhBQ0VvbGVDSYIJAIFa/uW6cDgBMA4GA1UdDwEB/wQEAwIFoDANBgkqhkiG
9w0BAQsFAAOBgQBX9Z77s7LsGoa5TKLNgmIqZZGmog/6sMFYg/5aebQdyG/OIT0f
RSxsV4iKjwAcoV3Up9ddOpyhzSOI/z7IgJgZbN2Uziho160JAgmoaQisGIAJlbGW
Po1CPzahhkMwhjv3BTzjsAE1+fnSm3nRCtRXfzpucDLy151gMbXxYiW/tw==
-----END CERTIFICATE-----
