-----BEGIN RSA PRIVATE KEY-----
MIICXQIBAAKBgQC56K/Srd5aghb54nScB0UTCApu4dJqn4jNnl5a+xW8hzENuZ3B
i46bvygqfT5lFhMbMO//AfzZ/UIbYr/OrA9wX46IwcZtRR9PMnoMb8fle762uaYP
SchkKNNSqzmYjpqKxBH6EY8fsHxXJiiOTJmbXEjXIDD4S2BPdO2CtcBH8wIDAQAB
AoGAPFQA8loPpMlAUXimJJfLV4Ctegv37zez+h2hOt7tz88DIRQR2GPENFBU5Wzd
GYqPSqyXxOXNOqQPlrl1yshU/bE9rP5iCgAa57QvmLBfQXxye0wLzTHc3xFBu8Sj
WsQPdvFY3kDU8KkKe7k+JWrLZcmlWV9g4G71JrrLMlKn3UkCQQDtT19TzBge2/pw
6lpMI/M44VDQ1sm6G/EgjmPJp8Kng/pRLUgjQp3iRPpZErO9UonVOb/UfUzgIZ6w
SxDRWnWlAkEAyIz4DSX83X912IyXegihDFkDdgHsHXlHcXd9cq3tEdq20Hl+mEbt
hETDU8L9/6Mfq8iTVSkGVvFXfLY4klxDtwJBAMjIBBapMqtBYYaRsa6EKDAy6qaX
Y/wz0fLCpokiiF4lGu/9yPAUV/Lue4ZLfYmsQPQINVa6YQWtTE9KY8NNrwUCQQCS
vdsOO9p+87F1xsFbUI8Oat9GbHeoxUHKO2U2ER8i7kbP2eYQY+2M14eYdVfGwkP9
PODY8hCqcyLRpL9WEF6XAkBtdXg3v/mIs5IhEy5LyawHJq1MRVO/OpN0rqW46IYS
l7MHA9+E7qR4bByHU2uB0XzcjoTxaBY3Yk45lm7HtGSy
-----END RSA PRIVATE KEY-----
Certificate:
    Data:
        Version: 3 (0x2)
        Serial Number: 194 (0xc2)
    Signature Algorithm: sha256WithRSAEncryption
        Issuer: C=FR, ST=bourgogne, L=dijon, O=eole, OU=ci, CN=ACEoleCI
        Validity
            Not Before: Mar 17 14:36:19 2016 GMT
            Not After : Jun  3 14:36:19 2024 GMT
        Subject: CN=eolecitestsadmin.etb5.lan
        Subject Public Key Info:
            Public Key Algorithm: rsaEncryption
                Public-Key: (1024 bit)
                Modulus:
                    00:b9:e8:af:d2:ad:de:5a:82:16:f9:e2:74:9c:07:
                    45:13:08:0a:6e:e1:d2:6a:9f:88:cd:9e:5e:5a:fb:
                    15:bc:87:31:0d:b9:9d:c1:8b:8e:9b:bf:28:2a:7d:
                    3e:65:16:13:1b:30:ef:ff:01:fc:d9:fd:42:1b:62:
                    bf:ce:ac:0f:70:5f:8e:88:c1:c6:6d:45:1f:4f:32:
                    7a:0c:6f:c7:e5:7b:be:b6:b9:a6:0f:49:c8:64:28:
                    d3:52:ab:39:98:8e:9a:8a:c4:11:fa:11:8f:1f:b0:
                    7c:57:26:28:8e:4c:99:9b:5c:48:d7:20:30:f8:4b:
                    60:4f:74:ed:82:b5:c0:47:f3
                Exponent: 65537 (0x10001)
        X509v3 extensions:
            X509v3 Basic Constraints: 
                CA:FALSE
            X509v3 Subject Key Identifier: 
                23:27:5A:83:30:37:54:85:37:68:41:55:18:73:BE:02:92:86:F5:18
            X509v3 Authority Key Identifier: 
                keyid:38:DF:46:29:38:B2:13:8B:A5:7C:80:4B:5E:AA:24:DB:25:DC:EC:EE

            X509v3 Key Usage: critical
                Digital Signature, Non Repudiation, Key Encipherment
            X509v3 Extended Key Usage: 
                TLS Web Client Authentication, E-mail Protection
    Signature Algorithm: sha256WithRSAEncryption
         51:18:08:e0:db:a6:0a:b4:ee:d5:0c:23:61:dd:dd:39:eb:f8:
         11:b2:c0:2f:1d:ad:2b:41:7e:8f:7b:33:fc:74:ed:68:d6:63:
         56:a5:97:fb:3e:3c:26:f1:9a:b8:68:b2:5c:b0:62:80:ce:0e:
         2c:93:51:68:30:82:1f:d1:f1:c1:e3:48:8b:b4:e2:89:42:f7:
         09:10:ad:d8:fa:69:9b:5b:49:21:20:ef:f9:6b:a7:d5:30:6f:
         82:a2:57:76:4a:85:76:00:17:6f:56:fe:0f:15:34:79:c9:2a:
         f8:86:1e:0e:9a:07:02:97:fe:c3:23:49:6d:83:a5:cd:de:da:
         44:c0
-----BEGIN CERTIFICATE-----
MIICdzCCAeCgAwIBAgICAMIwDQYJKoZIhvcNAQELBQAwYDELMAkGA1UEBhMCRlIx
EjAQBgNVBAgMCWJvdXJnb2duZTEOMAwGA1UEBwwFZGlqb24xDTALBgNVBAoMBGVv
bGUxCzAJBgNVBAsMAmNpMREwDwYDVQQDDAhBQ0VvbGVDSTAeFw0xNjAzMTcxNDM2
MTlaFw0yNDA2MDMxNDM2MTlaMCQxIjAgBgNVBAMMGWVvbGVjaXRlc3RzYWRtaW4u
ZXRiNS5sYW4wgZ8wDQYJKoZIhvcNAQEBBQADgY0AMIGJAoGBALnor9Kt3lqCFvni
dJwHRRMICm7h0mqfiM2eXlr7FbyHMQ25ncGLjpu/KCp9PmUWExsw7/8B/Nn9Qhti
v86sD3BfjojBxm1FH08yegxvx+V7vra5pg9JyGQo01KrOZiOmorEEfoRjx+wfFcm
KI5MmZtcSNcgMPhLYE907YK1wEfzAgMBAAGjfDB6MAkGA1UdEwQCMAAwHQYDVR0O
BBYEFCMnWoMwN1SFN2hBVRhzvgKShvUYMB8GA1UdIwQYMBaAFDjfRik4shOLpXyA
S16qJNsl3OzuMA4GA1UdDwEB/wQEAwIF4DAdBgNVHSUEFjAUBggrBgEFBQcDAgYI
KwYBBQUHAwQwDQYJKoZIhvcNAQELBQADgYEAURgI4NumCrTu1QwjYd3dOev4EbLA
Lx2tK0F+j3sz/HTtaNZjVqWX+z48JvGauGiyXLBigM4OLJNRaDCCH9HxweNIi7Ti
iUL3CRCt2Pppm1tJISDv+Wun1TBvgqJXdkqFdgAXb1b+DxU0eckq+IYeDpoHApf+
wyNJbYOlzd7aRMA=
-----END CERTIFICATE-----
