-----BEGIN RSA PRIVATE KEY-----
MIICXQIBAAKBgQC56K/Srd5aghb54nScB0UTCApu4dJqn4jNnl5a+xW8hzENuZ3B
i46bvygqfT5lFhMbMO//AfzZ/UIbYr/OrA9wX46IwcZtRR9PMnoMb8fle762uaYP
SchkKNNSqzmYjpqKxBH6EY8fsHxXJiiOTJmbXEjXIDD4S2BPdO2CtcBH8wIDAQAB
AoGAPFQA8loPpMlAUXimJJfLV4Ctegv37zez+h2hOt7tz88DIRQR2GPENFBU5Wzd
GYqPSqyXxOXNOqQPlrl1yshU/bE9rP5iCgAa57QvmLBfQXxye0wLzTHc3xFBu8Sj
WsQPdvFY3kDU8KkKe7k+JWrLZcmlWV9g4G71JrrLMlKn3UkCQQDtT19TzBge2/pw
6lpMI/M44VDQ1sm6G/EgjmPJp8Kng/pRLUgjQp3iRPpZErO9UonVOb/UfUzgIZ6w
SxDRWnWlAkEAyIz4DSX83X912IyXegihDFkDdgHsHXlHcXd9cq3tEdq20Hl+mEbt
hETDU8L9/6Mfq8iTVSkGVvFXfLY4klxDtwJBAMjIBBapMqtBYYaRsa6EKDAy6qaX
Y/wz0fLCpokiiF4lGu/9yPAUV/Lue4ZLfYmsQPQINVa6YQWtTE9KY8NNrwUCQQCS
vdsOO9p+87F1xsFbUI8Oat9GbHeoxUHKO2U2ER8i7kbP2eYQY+2M14eYdVfGwkP9
PODY8hCqcyLRpL9WEF6XAkBtdXg3v/mIs5IhEy5LyawHJq1MRVO/OpN0rqW46IYS
l7MHA9+E7qR4bByHU2uB0XzcjoTxaBY3Yk45lm7HtGSy
-----END RSA PRIVATE KEY-----
Certificate:
    Data:
        Version: 3 (0x2)
        Serial Number: 195 (0xc3)
    Signature Algorithm: sha256WithRSAEncryption
        Issuer: C=FR, ST=bourgogne, L=dijon, O=eole, OU=ci, CN=ACEoleCI
        Validity
            Not Before: Mar 17 14:36:19 2016 GMT
            Not After : Jun  3 14:36:19 2024 GMT
        Subject: CN=eolecitestsadmin.etb5.lan
        Subject Public Key Info:
            Public Key Algorithm: rsaEncryption
                Public-Key: (1024 bit)
                Modulus:
                    00:b9:e8:af:d2:ad:de:5a:82:16:f9:e2:74:9c:07:
                    45:13:08:0a:6e:e1:d2:6a:9f:88:cd:9e:5e:5a:fb:
                    15:bc:87:31:0d:b9:9d:c1:8b:8e:9b:bf:28:2a:7d:
                    3e:65:16:13:1b:30:ef:ff:01:fc:d9:fd:42:1b:62:
                    bf:ce:ac:0f:70:5f:8e:88:c1:c6:6d:45:1f:4f:32:
                    7a:0c:6f:c7:e5:7b:be:b6:b9:a6:0f:49:c8:64:28:
                    d3:52:ab:39:98:8e:9a:8a:c4:11:fa:11:8f:1f:b0:
                    7c:57:26:28:8e:4c:99:9b:5c:48:d7:20:30:f8:4b:
                    60:4f:74:ed:82:b5:c0:47:f3
                Exponent: 65537 (0x10001)
        X509v3 extensions:
            X509v3 Basic Constraints: 
                CA:FALSE
            X509v3 Subject Key Identifier: 
                23:27:5A:83:30:37:54:85:37:68:41:55:18:73:BE:02:92:86:F5:18
            X509v3 Authority Key Identifier: 
                keyid:38:DF:46:29:38:B2:13:8B:A5:7C:80:4B:5E:AA:24:DB:25:DC:EC:EE
                DirName:/C=FR/ST=bourgogne/L=dijon/O=eole/OU=ci/CN=ACEoleCI
                serial:81:5A:FE:E5:BA:70:38:01

            X509v3 Key Usage: critical
                Digital Signature, Key Encipherment
    Signature Algorithm: sha256WithRSAEncryption
         31:07:86:97:78:ed:92:9f:17:98:cd:0c:52:50:d8:64:3b:3d:
         44:e3:bd:bc:a8:ad:6c:d5:5f:25:a7:37:e0:4b:6d:fc:92:bb:
         85:5e:d7:63:0a:7a:ed:0a:d0:49:dd:27:bb:ef:d9:ad:07:ae:
         1a:60:23:fc:d0:fc:ac:5b:76:35:7f:69:37:f7:60:25:06:6d:
         98:0a:88:ec:95:3e:88:c1:36:1d:5b:66:7a:49:fe:73:a8:ca:
         3f:0f:d2:9d:2f:dc:73:c1:29:42:c4:ef:78:f4:49:e4:08:98:
         66:02:ab:55:02:2d:bd:49:9e:41:1f:24:ae:2d:a7:ad:4a:9c:
         7b:26
-----BEGIN CERTIFICATE-----
MIICzjCCAjegAwIBAgICAMMwDQYJKoZIhvcNAQELBQAwYDELMAkGA1UEBhMCRlIx
EjAQBgNVBAgMCWJvdXJnb2duZTEOMAwGA1UEBwwFZGlqb24xDTALBgNVBAoMBGVv
bGUxCzAJBgNVBAsMAmNpMREwDwYDVQQDDAhBQ0VvbGVDSTAeFw0xNjAzMTcxNDM2
MTlaFw0yNDA2MDMxNDM2MTlaMCQxIjAgBgNVBAMMGWVvbGVjaXRlc3RzYWRtaW4u
ZXRiNS5sYW4wgZ8wDQYJKoZIhvcNAQEBBQADgY0AMIGJAoGBALnor9Kt3lqCFvni
dJwHRRMICm7h0mqfiM2eXlr7FbyHMQ25ncGLjpu/KCp9PmUWExsw7/8B/Nn9Qhti
v86sD3BfjojBxm1FH08yegxvx+V7vra5pg9JyGQo01KrOZiOmorEEfoRjx+wfFcm
KI5MmZtcSNcgMPhLYE907YK1wEfzAgMBAAGjgdIwgc8wCQYDVR0TBAIwADAdBgNV
HQ4EFgQUIydagzA3VIU3aEFVGHO+ApKG9RgwgZIGA1UdIwSBijCBh4AUON9GKTiy
E4ulfIBLXqok2yXc7O6hZKRiMGAxCzAJBgNVBAYTAkZSMRIwEAYDVQQIDAlib3Vy
Z29nbmUxDjAMBgNVBAcMBWRpam9uMQ0wCwYDVQQKDARlb2xlMQswCQYDVQQLDAJj
aTERMA8GA1UEAwwIQUNFb2xlQ0mCCQCBWv7lunA4ATAOBgNVHQ8BAf8EBAMCBaAw
DQYJKoZIhvcNAQELBQADgYEAMQeGl3jtkp8XmM0MUlDYZDs9ROO9vKitbNVfJac3
4Ett/JK7hV7XYwp67QrQSd0nu+/ZrQeuGmAj/ND8rFt2NX9pN/dgJQZtmAqI7JU+
iME2HVtmekn+c6jKPw/SnS/cc8EpQsTvePRJ5AiYZgKrVQItvUmeQR8kri2nrUqc
eyY=
-----END CERTIFICATE-----
