Certificate:
    Data:
        Version: 3 (0x2)
        Serial Number:
            bf:6d:d2:51:a6:fa:16:27
    Signature Algorithm: sha256WithRSAEncryption
        Issuer: C=FR, ST=France, O=Eole, OU=Recette, CN=CA Racine/emailAddress=eole-mut@listeseole.ac-dijon.fr
        Validity
            Not Before: Mar 30 18:06:29 2017 GMT
            Not After : Mar 30 18:06:29 2018 GMT
        Subject: C=FR, ST=France, O=Eole, OU=Recette, CN=ldapma.eole.e2.rie.gouv.fr/emailAddress=eole-mut@listeseole.ac-dijon.fr
        Subject Public Key Info:
            Public Key Algorithm: rsaEncryption
                Public-Key: (2048 bit)
                Modulus:
                    00:e4:6c:ab:a1:ca:e6:70:14:ce:3f:e5:6a:2e:24:
                    53:af:51:2d:a5:41:e1:a8:b8:8a:3a:27:d9:84:18:
                    88:a6:84:42:6b:63:fc:3a:3b:9b:32:81:8b:ce:4f:
                    17:12:90:86:e6:90:3b:26:9f:72:33:7c:19:f4:95:
                    b8:ea:4d:dc:76:b9:5e:e7:0b:2b:2d:8a:3f:91:83:
                    42:22:86:91:81:cd:49:3d:06:f9:c0:2d:f5:9a:07:
                    30:2e:05:ba:ed:cf:c5:5e:ce:bf:99:f2:39:02:df:
                    43:31:70:6f:ae:c6:a1:84:85:01:01:00:8f:64:cd:
                    f4:e4:8c:c2:7b:b7:7d:5b:e4:a8:e3:db:c2:b1:9c:
                    5b:78:7c:04:ea:0c:69:04:94:f2:bb:84:a5:86:24:
                    0b:fb:4c:6c:22:46:f0:d8:eb:99:a6:b9:e6:ce:bd:
                    71:5a:a3:b8:f1:45:c7:ec:26:e0:a2:6e:b1:93:f1:
                    4a:81:13:a0:19:f1:10:15:3c:cd:03:58:45:b1:09:
                    6f:57:a0:98:bb:3a:04:3b:dd:a3:ba:78:4f:bf:c3:
                    18:21:a3:e1:2d:ee:49:03:a9:16:5a:b7:07:e3:77:
                    a2:a5:8e:bf:c1:78:ae:01:26:e2:8e:1c:64:a9:24:
                    3a:ed:e9:81:b7:da:cc:09:e2:8c:75:ee:67:46:cd:
                    7e:35
                Exponent: 65537 (0x10001)
        X509v3 extensions:
            X509v3 Basic Constraints: 
                CA:FALSE
            Netscape Comment: 
                OpenSSL Generated Certificate
            X509v3 Subject Key Identifier: 
                EB:87:9D:19:02:01:52:92:28:65:C3:4E:07:20:0F:DA:33:D9:6E:8E
            X509v3 Authority Key Identifier: 
                keyid:23:6A:76:89:5E:65:3E:09:6A:2A:09:F1:14:D0:7D:7C:00:57:2E:E0

    Signature Algorithm: sha256WithRSAEncryption
         05:0a:99:a6:38:d3:ad:56:17:e1:57:67:bf:c4:ac:7d:75:bf:
         6b:ce:ea:3f:57:62:48:0c:ff:24:83:be:17:8c:b2:dd:6a:cb:
         0e:86:46:aa:54:ab:ee:08:a4:99:b9:5c:e5:44:89:41:99:c2:
         9b:80:51:d0:b5:c2:73:3f:ba:24:ae:b8:67:52:2e:3e:ba:54:
         29:46:2f:17:f7:4d:9e:89:3e:06:41:31:a9:b3:4d:f9:27:89:
         16:f4:dc:cc:9f:f6:e5:97:9b:60:38:4f:f9:5c:63:e0:7c:a3:
         8d:69:76:bd:c4:74:6d:94:16:28:d5:2f:2f:50:ae:ee:88:e9:
         37:95:28:be:7a:91:cf:a9:8b:9a:ab:fc:72:6e:62:4b:51:2a:
         24:8c:c6:27:9a:b7:15:5d:00:2a:d0:f4:0c:a7:63:79:12:e0:
         9d:57:0c:b1:a5:3b:0e:1e:c5:e1:ea:96:6c:7b:3f:b9:00:2c:
         8e:ed:6d:6f:ca:0c:58:c9:53:c5:1c:58:52:92:f1:bb:01:29:
         c8:14:2b:42:5c:8d:7b:8d:00:ac:66:ba:23:ea:ff:e7:1a:8b:
         0a:97:0d:87:75:37:0f:f2:a8:a9:dc:8f:5c:d2:24:c5:8b:e6:
         c8:d3:f9:97:bd:a4:fe:73:61:de:9b:76:ea:1e:a8:9b:8f:58:
         e2:4c:d8:8e
-----BEGIN CERTIFICATE-----
MIIEFzCCAv+gAwIBAgIJAL9t0lGm+hYnMA0GCSqGSIb3DQEBCwUAMIGDMQswCQYD
VQQGEwJGUjEPMA0GA1UECAwGRnJhbmNlMQ0wCwYDVQQKDARFb2xlMRAwDgYDVQQL
DAdSZWNldHRlMRIwEAYDVQQDDAlDQSBSYWNpbmUxLjAsBgkqhkiG9w0BCQEWH2Vv
bGUtbXV0QGxpc3Rlc2VvbGUuYWMtZGlqb24uZnIwHhcNMTcwMzMwMTgwNjI5WhcN
MTgwMzMwMTgwNjI5WjCBlDELMAkGA1UEBhMCRlIxDzANBgNVBAgMBkZyYW5jZTEN
MAsGA1UECgwERW9sZTEQMA4GA1UECwwHUmVjZXR0ZTEjMCEGA1UEAwwabGRhcG1h
LmVvbGUuZTIucmllLmdvdXYuZnIxLjAsBgkqhkiG9w0BCQEWH2VvbGUtbXV0QGxp
c3Rlc2VvbGUuYWMtZGlqb24uZnIwggEiMA0GCSqGSIb3DQEBAQUAA4IBDwAwggEK
AoIBAQDkbKuhyuZwFM4/5WouJFOvUS2lQeGouIo6J9mEGIimhEJrY/w6O5sygYvO
TxcSkIbmkDsmn3IzfBn0lbjqTdx2uV7nCystij+Rg0IihpGBzUk9BvnALfWaBzAu
Bbrtz8Vezr+Z8jkC30MxcG+uxqGEhQEBAI9kzfTkjMJ7t31b5Kjj28KxnFt4fATq
DGkElPK7hKWGJAv7TGwiRvDY65mmuebOvXFao7jxRcfsJuCibrGT8UqBE6AZ8RAV
PM0DWEWxCW9XoJi7OgQ73aO6eE+/wxgho+Et7kkDqRZatwfjd6Kljr/BeK4BJuKO
HGSpJDrt6YG32swJ4ox17mdGzX41AgMBAAGjezB5MAkGA1UdEwQCMAAwLAYJYIZI
AYb4QgENBB8WHU9wZW5TU0wgR2VuZXJhdGVkIENlcnRpZmljYXRlMB0GA1UdDgQW
BBTrh50ZAgFSkihlw04HIA/aM9lujjAfBgNVHSMEGDAWgBQjanaJXmU+CWoqCfEU
0H18AFcu4DANBgkqhkiG9w0BAQsFAAOCAQEABQqZpjjTrVYX4Vdnv8SsfXW/a87q
P1diSAz/JIO+F4yy3WrLDoZGqlSr7gikmblc5USJQZnCm4BR0LXCcz+6JK64Z1Iu
PrpUKUYvF/dNnok+BkExqbNN+SeJFvTczJ/25ZebYDhP+Vxj4HyjjWl2vcR0bZQW
KNUvL1Cu7ojpN5UovnqRz6mLmqv8cm5iS1EqJIzGJ5q3FV0AKtD0DKdjeRLgnVcM
saU7Dh7F4eqWbHs/uQAsju1tb8oMWMlTxRxYUpLxuwEpyBQrQlyNe40ArGa6I+r/
5xqLCpcNh3U3D/KoqdyPXNIkxYvmyNP5l72k/nNh3pt26h6om49Y4kzYjg==
-----END CERTIFICATE-----
