-----BEGIN RSA PRIVATE KEY-----
MIICXAIBAAKBgQCvilpCfM1GzXfx6G0LSFag/jz725QqXSJiNJCz+OPIB2FilFaY
B+WLtv38REUsURQ9uk0ZZsIVXw9GM3oEXx/CaBiPID7gZkQP93Nrk92iFql8pYLQ
jlIYeVvkRgHWB8gpBcDDr59sIv4VlFkOYgLYkhpzJ3LRUefapiC695M8kwIDAQAB
AoGAGwrFPNjdBrtAbxPPOJ28OrDv1BzPhncyhM50PEVrUbVRW05eyKzuv8dA+UvL
HDihVaENn4wk+gXa5IWplmLREXCHXV6hP7EeoNts+XNftbmW5i8Se9p4ne/nnKYF
il87hzLhFNNa74xkHCGjxToVOi63qpE2dvgZEpE6C5fZ4YECQQDUYvrC4DsbKhDs
o6mLy3SAgbugwCFdkzJmbeKe67qI0zAKL0TOG0tlXr06TDKqGo0IOsHkWw3Hnn3M
4GsfQgYtAkEA05ZkvsYkn+/AtuKz0rD72s4ZT5ieojrU0XhweF/vjwkYQysQAso9
xAVd4sZ/RaOfa2YmsQNFZv05smOwWtDFvwJAeNYjw9Jd7pOdc3WeVioYi7DENq55
jUrdRwfIAxEtXQGC+JhyNi2zVOZ1FQEbZkqa6Q69GBZyHZvgCTu51tvytQJBAMVM
TN8Ttp0onGQtGw9RF1hdrH5rSyjtgPteukmU87ZF/cjMQ97GJTg+5OAMxiryuzoT
g+q1qSay4/UzPgRA/tMCQFKdAzi+cYJZYgvTOK7E5nN/gtK0H9EJqhLW+2Z8tDX1
ZQpA3lzS2Aiq+hxbONgr9LmKNC0QV+PIKE2+IQ6t3W0=
-----END RSA PRIVATE KEY-----
Certificate:
    Data:
        Version: 3 (0x2)
        Serial Number: 121 (0x79)
    Signature Algorithm: sha256WithRSAEncryption
        Issuer: C=FR, ST=bourgogne, L=dijon, O=eole, OU=ci, CN=ACEoleCI
        Validity
            Not Before: Mar 17 14:36:02 2016 GMT
            Not After : Jun  3 14:36:02 2024 GMT
        Subject: CN=amon.etb2.lan
        Subject Public Key Info:
            Public Key Algorithm: rsaEncryption
                Public-Key: (1024 bit)
                Modulus:
                    00:af:8a:5a:42:7c:cd:46:cd:77:f1:e8:6d:0b:48:
                    56:a0:fe:3c:fb:db:94:2a:5d:22:62:34:90:b3:f8:
                    e3:c8:07:61:62:94:56:98:07:e5:8b:b6:fd:fc:44:
                    45:2c:51:14:3d:ba:4d:19:66:c2:15:5f:0f:46:33:
                    7a:04:5f:1f:c2:68:18:8f:20:3e:e0:66:44:0f:f7:
                    73:6b:93:dd:a2:16:a9:7c:a5:82:d0:8e:52:18:79:
                    5b:e4:46:01:d6:07:c8:29:05:c0:c3:af:9f:6c:22:
                    fe:15:94:59:0e:62:02:d8:92:1a:73:27:72:d1:51:
                    e7:da:a6:20:ba:f7:93:3c:93
                Exponent: 65537 (0x10001)
        X509v3 extensions:
            X509v3 Basic Constraints: 
                CA:FALSE
            X509v3 Subject Key Identifier: 
                28:C5:4F:D5:C2:C2:39:52:BC:18:E6:7F:F0:38:EA:A7:57:B0:6B:15
            X509v3 Authority Key Identifier: 
                keyid:38:DF:46:29:38:B2:13:8B:A5:7C:80:4B:5E:AA:24:DB:25:DC:EC:EE
                DirName:/C=FR/ST=bourgogne/L=dijon/O=eole/OU=ci/CN=ACEoleCI
                serial:81:5A:FE:E5:BA:70:38:01

            X509v3 Key Usage: critical
                Digital Signature, Key Encipherment
            X509v3 Extended Key Usage: 
                TLS Web Server Authentication
    Signature Algorithm: sha256WithRSAEncryption
         3d:5e:f8:8b:d3:b4:b8:3e:7b:d6:2e:d4:e4:2f:27:8c:1a:72:
         b7:81:ae:4f:25:ed:a5:75:2c:38:23:4c:b2:ac:5c:5a:3f:0f:
         51:40:62:3a:26:5b:13:b3:3b:59:38:12:cc:19:78:19:c3:81:
         a2:ba:66:6e:03:53:c5:56:33:65:36:8f:1f:59:8c:ec:35:59:
         03:aa:15:f8:a5:10:dc:58:89:5e:d8:9c:b1:d6:12:d2:94:e0:
         3f:21:bc:9d:77:fd:71:62:9c:af:f7:76:4d:7f:ca:23:f1:cb:
         0a:c2:f6:db:ee:a5:49:cb:79:34:75:dc:07:c8:af:3f:59:88:
         eb:7a
-----BEGIN CERTIFICATE-----
MIIC1jCCAj+gAwIBAgIBeTANBgkqhkiG9w0BAQsFADBgMQswCQYDVQQGEwJGUjES
MBAGA1UECAwJYm91cmdvZ25lMQ4wDAYDVQQHDAVkaWpvbjENMAsGA1UECgwEZW9s
ZTELMAkGA1UECwwCY2kxETAPBgNVBAMMCEFDRW9sZUNJMB4XDTE2MDMxNzE0MzYw
MloXDTI0MDYwMzE0MzYwMlowGDEWMBQGA1UEAwwNYW1vbi5ldGIyLmxhbjCBnzAN
BgkqhkiG9w0BAQEFAAOBjQAwgYkCgYEAr4paQnzNRs138ehtC0hWoP48+9uUKl0i
YjSQs/jjyAdhYpRWmAfli7b9/ERFLFEUPbpNGWbCFV8PRjN6BF8fwmgYjyA+4GZE
D/dza5PdohapfKWC0I5SGHlb5EYB1gfIKQXAw6+fbCL+FZRZDmIC2JIacydy0VHn
2qYguveTPJMCAwEAAaOB5zCB5DAJBgNVHRMEAjAAMB0GA1UdDgQWBBQoxU/VwsI5
UrwY5n/wOOqnV7BrFTCBkgYDVR0jBIGKMIGHgBQ430YpOLITi6V8gEteqiTbJdzs
7qFkpGIwYDELMAkGA1UEBhMCRlIxEjAQBgNVBAgMCWJvdXJnb2duZTEOMAwGA1UE
BwwFZGlqb24xDTALBgNVBAoMBGVvbGUxCzAJBgNVBAsMAmNpMREwDwYDVQQDDAhB
Q0VvbGVDSYIJAIFa/uW6cDgBMA4GA1UdDwEB/wQEAwIFoDATBgNVHSUEDDAKBggr
BgEFBQcDATANBgkqhkiG9w0BAQsFAAOBgQA9XviL07S4PnvWLtTkLyeMGnK3ga5P
Je2ldSw4I0yyrFxaPw9RQGI6JlsTsztZOBLMGXgZw4GiumZuA1PFVjNlNo8fWYzs
NVkDqhX4pRDcWIle2Jyx1hLSlOA/Ibydd/1xYpyv93ZNf8oj8csKwvbb7qVJy3k0
ddwHyK8/WYjreg==
-----END CERTIFICATE-----
