Certificate:
    Data:
        Version: 3 (0x2)
        Serial Number: 123 (0x7b)
    Signature Algorithm: sha256WithRSAEncryption
        Issuer: C=FR, ST=bourgogne, L=dijon, O=eole, OU=ci, CN=ACEoleCI
        Validity
            Not Before: Mar 17 14:36:03 2016 GMT
            Not After : Jun  3 14:36:03 2024 GMT
        Subject: CN=amon.etb2.lan
        Subject Public Key Info:
            Public Key Algorithm: rsaEncryption
                Public-Key: (1024 bit)
                Modulus:
                    00:af:8a:5a:42:7c:cd:46:cd:77:f1:e8:6d:0b:48:
                    56:a0:fe:3c:fb:db:94:2a:5d:22:62:34:90:b3:f8:
                    e3:c8:07:61:62:94:56:98:07:e5:8b:b6:fd:fc:44:
                    45:2c:51:14:3d:ba:4d:19:66:c2:15:5f:0f:46:33:
                    7a:04:5f:1f:c2:68:18:8f:20:3e:e0:66:44:0f:f7:
                    73:6b:93:dd:a2:16:a9:7c:a5:82:d0:8e:52:18:79:
                    5b:e4:46:01:d6:07:c8:29:05:c0:c3:af:9f:6c:22:
                    fe:15:94:59:0e:62:02:d8:92:1a:73:27:72:d1:51:
                    e7:da:a6:20:ba:f7:93:3c:93
                Exponent: 65537 (0x10001)
        X509v3 extensions:
            X509v3 Basic Constraints: 
                CA:FALSE
            X509v3 Subject Key Identifier: 
                28:C5:4F:D5:C2:C2:39:52:BC:18:E6:7F:F0:38:EA:A7:57:B0:6B:15
            X509v3 Authority Key Identifier: 
                keyid:38:DF:46:29:38:B2:13:8B:A5:7C:80:4B:5E:AA:24:DB:25:DC:EC:EE
                DirName:/C=FR/ST=bourgogne/L=dijon/O=eole/OU=ci/CN=ACEoleCI
                serial:81:5A:FE:E5:BA:70:38:01

            X509v3 Key Usage: critical
                Digital Signature, Key Encipherment
    Signature Algorithm: sha256WithRSAEncryption
         6c:6f:0f:49:c5:42:94:b4:9e:3d:fe:26:2d:6f:5b:30:75:fb:
         8a:58:d0:73:86:3b:62:cb:b3:fd:b0:4c:fb:0e:9f:94:a3:ee:
         b1:64:b7:00:f5:0f:c7:98:e8:0e:30:f1:97:b3:81:52:f6:eb:
         f9:7a:f2:67:d7:1f:0e:c9:cc:2b:6d:d9:23:95:bf:c6:4d:44:
         12:c3:59:dc:38:7d:f4:72:35:dd:e7:23:a8:e5:ff:63:43:3e:
         11:23:f4:b8:bc:f9:63:3a:a2:3b:a3:e6:61:4a:06:bd:a5:3e:
         bb:3e:57:db:07:98:dc:83:a2:f5:fd:44:d4:2a:62:44:c7:e5:
         97:b0
-----BEGIN CERTIFICATE-----
MIICwTCCAiqgAwIBAgIBezANBgkqhkiG9w0BAQsFADBgMQswCQYDVQQGEwJGUjES
MBAGA1UECAwJYm91cmdvZ25lMQ4wDAYDVQQHDAVkaWpvbjENMAsGA1UECgwEZW9s
ZTELMAkGA1UECwwCY2kxETAPBgNVBAMMCEFDRW9sZUNJMB4XDTE2MDMxNzE0MzYw
M1oXDTI0MDYwMzE0MzYwM1owGDEWMBQGA1UEAwwNYW1vbi5ldGIyLmxhbjCBnzAN
BgkqhkiG9w0BAQEFAAOBjQAwgYkCgYEAr4paQnzNRs138ehtC0hWoP48+9uUKl0i
YjSQs/jjyAdhYpRWmAfli7b9/ERFLFEUPbpNGWbCFV8PRjN6BF8fwmgYjyA+4GZE
D/dza5PdohapfKWC0I5SGHlb5EYB1gfIKQXAw6+fbCL+FZRZDmIC2JIacydy0VHn
2qYguveTPJMCAwEAAaOB0jCBzzAJBgNVHRMEAjAAMB0GA1UdDgQWBBQoxU/VwsI5
UrwY5n/wOOqnV7BrFTCBkgYDVR0jBIGKMIGHgBQ430YpOLITi6V8gEteqiTbJdzs
7qFkpGIwYDELMAkGA1UEBhMCRlIxEjAQBgNVBAgMCWJvdXJnb2duZTEOMAwGA1UE
BwwFZGlqb24xDTALBgNVBAoMBGVvbGUxCzAJBgNVBAsMAmNpMREwDwYDVQQDDAhB
Q0VvbGVDSYIJAIFa/uW6cDgBMA4GA1UdDwEB/wQEAwIFoDANBgkqhkiG9w0BAQsF
AAOBgQBsbw9JxUKUtJ49/iYtb1swdfuKWNBzhjtiy7P9sEz7Dp+Uo+6xZLcA9Q/H
mOgOMPGXs4FS9uv5evJn1x8Oycwrbdkjlb/GTUQSw1ncOH30cjXd5yOo5f9jQz4R
I/S4vPljOqI7o+ZhSga9pT67PlfbB5jcg6L1/UTUKmJEx+WXsA==
-----END CERTIFICATE-----
