Certificate:
    Data:
        Version: 3 (0x2)
        Serial Number: 122 (0x7a)
    Signature Algorithm: sha256WithRSAEncryption
        Issuer: C=FR, ST=bourgogne, L=dijon, O=eole, OU=ci, CN=ACEoleCI
        Validity
            Not Before: Mar 17 14:36:03 2016 GMT
            Not After : Jun  3 14:36:03 2024 GMT
        Subject: CN=amon.etb2.lan
        Subject Public Key Info:
            Public Key Algorithm: rsaEncryption
                Public-Key: (1024 bit)
                Modulus:
                    00:af:8a:5a:42:7c:cd:46:cd:77:f1:e8:6d:0b:48:
                    56:a0:fe:3c:fb:db:94:2a:5d:22:62:34:90:b3:f8:
                    e3:c8:07:61:62:94:56:98:07:e5:8b:b6:fd:fc:44:
                    45:2c:51:14:3d:ba:4d:19:66:c2:15:5f:0f:46:33:
                    7a:04:5f:1f:c2:68:18:8f:20:3e:e0:66:44:0f:f7:
                    73:6b:93:dd:a2:16:a9:7c:a5:82:d0:8e:52:18:79:
                    5b:e4:46:01:d6:07:c8:29:05:c0:c3:af:9f:6c:22:
                    fe:15:94:59:0e:62:02:d8:92:1a:73:27:72:d1:51:
                    e7:da:a6:20:ba:f7:93:3c:93
                Exponent: 65537 (0x10001)
        X509v3 extensions:
            X509v3 Basic Constraints: 
                CA:FALSE
            X509v3 Subject Key Identifier: 
                28:C5:4F:D5:C2:C2:39:52:BC:18:E6:7F:F0:38:EA:A7:57:B0:6B:15
            X509v3 Authority Key Identifier: 
                keyid:38:DF:46:29:38:B2:13:8B:A5:7C:80:4B:5E:AA:24:DB:25:DC:EC:EE

            X509v3 Key Usage: critical
                Digital Signature, Non Repudiation, Key Encipherment
            X509v3 Extended Key Usage: 
                TLS Web Client Authentication, E-mail Protection
    Signature Algorithm: sha256WithRSAEncryption
         3b:60:d3:2f:1c:a2:6c:3e:ac:7e:17:19:30:e9:c4:87:41:eb:
         cc:68:03:d7:15:9f:ca:e3:9b:49:cd:81:ef:c7:a8:57:a0:4b:
         07:b7:55:14:d6:73:6e:11:eb:fc:04:3b:bd:39:7f:b2:c3:47:
         90:a2:ec:cd:bf:fc:40:e5:4b:72:59:f9:66:24:0a:b0:34:6e:
         3d:a0:95:c9:ca:e5:a3:9d:4f:ce:a2:4d:7e:d7:4b:ec:c4:cf:
         07:3c:af:0a:c3:8b:02:63:e4:a6:43:0c:00:b8:55:f0:2e:f0:
         ac:97:34:5c:5e:98:e6:0f:85:8a:5e:63:e0:c7:35:fc:c8:4d:
         35:cf
-----BEGIN CERTIFICATE-----
MIICajCCAdOgAwIBAgIBejANBgkqhkiG9w0BAQsFADBgMQswCQYDVQQGEwJGUjES
MBAGA1UECAwJYm91cmdvZ25lMQ4wDAYDVQQHDAVkaWpvbjENMAsGA1UECgwEZW9s
ZTELMAkGA1UECwwCY2kxETAPBgNVBAMMCEFDRW9sZUNJMB4XDTE2MDMxNzE0MzYw
M1oXDTI0MDYwMzE0MzYwM1owGDEWMBQGA1UEAwwNYW1vbi5ldGIyLmxhbjCBnzAN
BgkqhkiG9w0BAQEFAAOBjQAwgYkCgYEAr4paQnzNRs138ehtC0hWoP48+9uUKl0i
YjSQs/jjyAdhYpRWmAfli7b9/ERFLFEUPbpNGWbCFV8PRjN6BF8fwmgYjyA+4GZE
D/dza5PdohapfKWC0I5SGHlb5EYB1gfIKQXAw6+fbCL+FZRZDmIC2JIacydy0VHn
2qYguveTPJMCAwEAAaN8MHowCQYDVR0TBAIwADAdBgNVHQ4EFgQUKMVP1cLCOVK8
GOZ/8Djqp1ewaxUwHwYDVR0jBBgwFoAUON9GKTiyE4ulfIBLXqok2yXc7O4wDgYD
VR0PAQH/BAQDAgXgMB0GA1UdJQQWMBQGCCsGAQUFBwMCBggrBgEFBQcDBDANBgkq
hkiG9w0BAQsFAAOBgQA7YNMvHKJsPqx+Fxkw6cSHQevMaAPXFZ/K45tJzYHvx6hX
oEsHt1UU1nNuEev8BDu9OX+yw0eQouzNv/xA5UtyWflmJAqwNG49oJXJyuWjnU/O
ok1+10vsxM8HPK8Kw4sCY+SmQwwAuFXwLvCslzRcXpjmD4WKXmPgxzX8yE01zw==
-----END CERTIFICATE-----
