-----BEGIN RSA PRIVATE KEY-----
MIICXQIBAAKBgQC2kuZ5aPnx+dSWxW0uuYoAKnmY0+smRppB3MF2aIwqr8pkkGLz
vsyxSh+DutnOkxnjdokFIRZfh7dWjpFE9nf87UMz4+8N+TGcd9eUzGraR4BCdO5I
0Ne9Au3VdigN2QtPxwcv09dCm2CgE4jv5Qopm8i96cUWdw14z+yJNYl2SwIDAQAB
AoGBAIYPylLeZaJsG9F2ONz1esLybYVuHx5k+4JfUmPbEwmJOamsaCypLu8ECa4V
9zd7xqfC84wjpqURJ+vUFhG4lZOTNocZQZ2tEfxkSgM9FbvgCgXUwr8CcAmsv3xd
gD/C7OyFYZS5OgAYGVuuM842tqrWZL5BFpVqJsJOQjbDaDsRAkEA2gmz5BJ9ho73
+v0ag00fDqWZ3V1/JPyPf7HTUUjBlt76w4He/VpMZX1MlZQ/n/tDhfoucNZG+bj/
JXUjReIIAwJBANZcgd4prHaH+O+/BnQzVxXRsg/xKSSc9pk27W3fCohbkDcQFGLC
bhbl+KDnVtZl/XA3qeVwjiuc9YY/Ql7iOhkCQEqXDydy++ZQep0ugSdx9rH4DQ8h
sSFiFWVF3FjuXuvSFE9V2ocpoQEHQG/ba3i7aHopAEIxy84ab47M5+g8TykCQQCi
VP/MHEcMpD/yXvkmOlLypRBxXjHIFk3xDVWUZNn3FVALQtQNTixMju9P+qEaT7Yz
qxOwOyKPCJguh+1dKXjRAkBbkPHcxxiBH9hqsXPkfgBby2Y4+QpGO2MRAA2xhRKi
gGnitU4/yWTiyRXpnpwYS0UHlRxmfGu4spJCSAHY3x3y
-----END RSA PRIVATE KEY-----
Certificate:
    Data:
        Version: 3 (0x2)
        Serial Number: 183 (0xb7)
    Signature Algorithm: sha256WithRSAEncryption
        Issuer: C=FR, ST=bourgogne, L=dijon, O=eole, OU=ci, CN=ACEoleCI
        Validity
            Not Before: Mar 17 14:36:16 2016 GMT
            Not After : Jun  3 14:36:16 2024 GMT
        Subject: CN=eolecitestspedago.etb4.lan
        Subject Public Key Info:
            Public Key Algorithm: rsaEncryption
                Public-Key: (1024 bit)
                Modulus:
                    00:b6:92:e6:79:68:f9:f1:f9:d4:96:c5:6d:2e:b9:
                    8a:00:2a:79:98:d3:eb:26:46:9a:41:dc:c1:76:68:
                    8c:2a:af:ca:64:90:62:f3:be:cc:b1:4a:1f:83:ba:
                    d9:ce:93:19:e3:76:89:05:21:16:5f:87:b7:56:8e:
                    91:44:f6:77:fc:ed:43:33:e3:ef:0d:f9:31:9c:77:
                    d7:94:cc:6a:da:47:80:42:74:ee:48:d0:d7:bd:02:
                    ed:d5:76:28:0d:d9:0b:4f:c7:07:2f:d3:d7:42:9b:
                    60:a0:13:88:ef:e5:0a:29:9b:c8:bd:e9:c5:16:77:
                    0d:78:cf:ec:89:35:89:76:4b
                Exponent: 65537 (0x10001)
        X509v3 extensions:
            X509v3 Basic Constraints: 
                CA:FALSE
            X509v3 Subject Key Identifier: 
                97:E2:5C:53:4B:F5:F7:30:40:0F:54:C2:7C:58:B7:AF:05:B0:DC:9D
            X509v3 Authority Key Identifier: 
                keyid:38:DF:46:29:38:B2:13:8B:A5:7C:80:4B:5E:AA:24:DB:25:DC:EC:EE
                DirName:/C=FR/ST=bourgogne/L=dijon/O=eole/OU=ci/CN=ACEoleCI
                serial:81:5A:FE:E5:BA:70:38:01

            X509v3 Key Usage: critical
                Digital Signature, Key Encipherment
    Signature Algorithm: sha256WithRSAEncryption
         13:06:15:f0:69:d6:7b:a9:f5:ad:88:35:b5:f1:a6:34:b9:5e:
         56:b2:c7:8d:ce:68:c2:73:19:c8:17:35:ee:52:ea:d2:86:af:
         10:ef:6e:93:75:9d:c0:35:e9:6d:17:87:11:05:40:71:97:7f:
         55:44:f8:ef:b8:84:80:70:ec:02:64:b5:4e:cf:55:df:8b:38:
         55:c8:7f:72:1f:6a:0f:f3:97:43:af:03:49:a2:d6:58:22:d6:
         f3:31:9d:27:19:94:16:56:f7:8d:93:11:b8:ba:3e:94:f7:a5:
         8c:16:94:09:31:e6:6d:78:9e:a9:63:06:fc:da:80:e1:3c:d9:
         5f:cb
-----BEGIN CERTIFICATE-----
MIICzzCCAjigAwIBAgICALcwDQYJKoZIhvcNAQELBQAwYDELMAkGA1UEBhMCRlIx
EjAQBgNVBAgMCWJvdXJnb2duZTEOMAwGA1UEBwwFZGlqb24xDTALBgNVBAoMBGVv
bGUxCzAJBgNVBAsMAmNpMREwDwYDVQQDDAhBQ0VvbGVDSTAeFw0xNjAzMTcxNDM2
MTZaFw0yNDA2MDMxNDM2MTZaMCUxIzAhBgNVBAMMGmVvbGVjaXRlc3RzcGVkYWdv
LmV0YjQubGFuMIGfMA0GCSqGSIb3DQEBAQUAA4GNADCBiQKBgQC2kuZ5aPnx+dSW
xW0uuYoAKnmY0+smRppB3MF2aIwqr8pkkGLzvsyxSh+DutnOkxnjdokFIRZfh7dW
jpFE9nf87UMz4+8N+TGcd9eUzGraR4BCdO5I0Ne9Au3VdigN2QtPxwcv09dCm2Cg
E4jv5Qopm8i96cUWdw14z+yJNYl2SwIDAQABo4HSMIHPMAkGA1UdEwQCMAAwHQYD
VR0OBBYEFJfiXFNL9fcwQA9UwnxYt68FsNydMIGSBgNVHSMEgYowgYeAFDjfRik4
shOLpXyAS16qJNsl3OzuoWSkYjBgMQswCQYDVQQGEwJGUjESMBAGA1UECAwJYm91
cmdvZ25lMQ4wDAYDVQQHDAVkaWpvbjENMAsGA1UECgwEZW9sZTELMAkGA1UECwwC
Y2kxETAPBgNVBAMMCEFDRW9sZUNJggkAgVr+5bpwOAEwDgYDVR0PAQH/BAQDAgWg
MA0GCSqGSIb3DQEBCwUAA4GBABMGFfBp1nup9a2INbXxpjS5Xlayx43OaMJzGcgX
Ne5S6tKGrxDvbpN1ncA16W0XhxEFQHGXf1VE+O+4hIBw7AJktU7PVd+LOFXIf3If
ag/zl0OvA0mi1lgi1vMxnScZlBZW942TEbi6PpT3pYwWlAkx5m14nqljBvzagOE8
2V/L
-----END CERTIFICATE-----
