Certificate:
    Data:
        Version: 3 (0x2)
        Serial Number: 182 (0xb6)
    Signature Algorithm: sha256WithRSAEncryption
        Issuer: C=FR, ST=bourgogne, L=dijon, O=eole, OU=ci, CN=ACEoleCI
        Validity
            Not Before: Mar 17 14:36:16 2016 GMT
            Not After : Jun  3 14:36:16 2024 GMT
        Subject: CN=eolecitestspedago.etb4.lan
        Subject Public Key Info:
            Public Key Algorithm: rsaEncryption
                Public-Key: (1024 bit)
                Modulus:
                    00:b6:92:e6:79:68:f9:f1:f9:d4:96:c5:6d:2e:b9:
                    8a:00:2a:79:98:d3:eb:26:46:9a:41:dc:c1:76:68:
                    8c:2a:af:ca:64:90:62:f3:be:cc:b1:4a:1f:83:ba:
                    d9:ce:93:19:e3:76:89:05:21:16:5f:87:b7:56:8e:
                    91:44:f6:77:fc:ed:43:33:e3:ef:0d:f9:31:9c:77:
                    d7:94:cc:6a:da:47:80:42:74:ee:48:d0:d7:bd:02:
                    ed:d5:76:28:0d:d9:0b:4f:c7:07:2f:d3:d7:42:9b:
                    60:a0:13:88:ef:e5:0a:29:9b:c8:bd:e9:c5:16:77:
                    0d:78:cf:ec:89:35:89:76:4b
                Exponent: 65537 (0x10001)
        X509v3 extensions:
            X509v3 Basic Constraints: 
                CA:FALSE
            X509v3 Subject Key Identifier: 
                97:E2:5C:53:4B:F5:F7:30:40:0F:54:C2:7C:58:B7:AF:05:B0:DC:9D
            X509v3 Authority Key Identifier: 
                keyid:38:DF:46:29:38:B2:13:8B:A5:7C:80:4B:5E:AA:24:DB:25:DC:EC:EE

            X509v3 Key Usage: critical
                Digital Signature, Non Repudiation, Key Encipherment
            X509v3 Extended Key Usage: 
                TLS Web Client Authentication, E-mail Protection
    Signature Algorithm: sha256WithRSAEncryption
         19:95:3f:e4:25:40:b6:24:72:c3:43:dd:2f:32:66:03:ea:12:
         57:f4:ce:db:01:d7:c1:33:20:13:6b:6b:17:43:39:90:8d:ba:
         2f:40:ce:fa:b4:6c:e2:1a:44:c3:3c:4d:fe:8c:35:8b:a4:ef:
         11:ec:aa:fa:ca:f4:04:13:f0:a8:52:0a:43:95:92:10:9b:6b:
         4b:4f:a9:df:1d:0e:88:60:d2:89:1b:cc:24:20:3d:c0:eb:48:
         a2:b8:3b:5d:5f:f9:06:a7:68:df:3f:1d:35:99:3e:05:23:b7:
         41:69:9c:5f:48:c7:1f:8a:07:06:2b:88:6e:5b:35:32:fd:fc:
         5a:9e
-----BEGIN CERTIFICATE-----
MIICeDCCAeGgAwIBAgICALYwDQYJKoZIhvcNAQELBQAwYDELMAkGA1UEBhMCRlIx
EjAQBgNVBAgMCWJvdXJnb2duZTEOMAwGA1UEBwwFZGlqb24xDTALBgNVBAoMBGVv
bGUxCzAJBgNVBAsMAmNpMREwDwYDVQQDDAhBQ0VvbGVDSTAeFw0xNjAzMTcxNDM2
MTZaFw0yNDA2MDMxNDM2MTZaMCUxIzAhBgNVBAMMGmVvbGVjaXRlc3RzcGVkYWdv
LmV0YjQubGFuMIGfMA0GCSqGSIb3DQEBAQUAA4GNADCBiQKBgQC2kuZ5aPnx+dSW
xW0uuYoAKnmY0+smRppB3MF2aIwqr8pkkGLzvsyxSh+DutnOkxnjdokFIRZfh7dW
jpFE9nf87UMz4+8N+TGcd9eUzGraR4BCdO5I0Ne9Au3VdigN2QtPxwcv09dCm2Cg
E4jv5Qopm8i96cUWdw14z+yJNYl2SwIDAQABo3wwejAJBgNVHRMEAjAAMB0GA1Ud
DgQWBBSX4lxTS/X3MEAPVMJ8WLevBbDcnTAfBgNVHSMEGDAWgBQ430YpOLITi6V8
gEteqiTbJdzs7jAOBgNVHQ8BAf8EBAMCBeAwHQYDVR0lBBYwFAYIKwYBBQUHAwIG
CCsGAQUFBwMEMA0GCSqGSIb3DQEBCwUAA4GBABmVP+QlQLYkcsND3S8yZgPqElf0
ztsB18EzIBNraxdDOZCNui9Azvq0bOIaRMM8Tf6MNYuk7xHsqvrK9AQT8KhSCkOV
khCba0tPqd8dDohg0okbzCQgPcDrSKK4O11f+QanaN8/HTWZPgUjt0FpnF9Ixx+K
BwYriG5bNTL9/Fqe
-----END CERTIFICATE-----
