-----BEGIN RSA PRIVATE KEY-----
MIICXQIBAAKBgQC2kuZ5aPnx+dSWxW0uuYoAKnmY0+smRppB3MF2aIwqr8pkkGLz
vsyxSh+DutnOkxnjdokFIRZfh7dWjpFE9nf87UMz4+8N+TGcd9eUzGraR4BCdO5I
0Ne9Au3VdigN2QtPxwcv09dCm2CgE4jv5Qopm8i96cUWdw14z+yJNYl2SwIDAQAB
AoGBAIYPylLeZaJsG9F2ONz1esLybYVuHx5k+4JfUmPbEwmJOamsaCypLu8ECa4V
9zd7xqfC84wjpqURJ+vUFhG4lZOTNocZQZ2tEfxkSgM9FbvgCgXUwr8CcAmsv3xd
gD/C7OyFYZS5OgAYGVuuM842tqrWZL5BFpVqJsJOQjbDaDsRAkEA2gmz5BJ9ho73
+v0ag00fDqWZ3V1/JPyPf7HTUUjBlt76w4He/VpMZX1MlZQ/n/tDhfoucNZG+bj/
JXUjReIIAwJBANZcgd4prHaH+O+/BnQzVxXRsg/xKSSc9pk27W3fCohbkDcQFGLC
bhbl+KDnVtZl/XA3qeVwjiuc9YY/Ql7iOhkCQEqXDydy++ZQep0ugSdx9rH4DQ8h
sSFiFWVF3FjuXuvSFE9V2ocpoQEHQG/ba3i7aHopAEIxy84ab47M5+g8TykCQQCi
VP/MHEcMpD/yXvkmOlLypRBxXjHIFk3xDVWUZNn3FVALQtQNTixMju9P+qEaT7Yz
qxOwOyKPCJguh+1dKXjRAkBbkPHcxxiBH9hqsXPkfgBby2Y4+QpGO2MRAA2xhRKi
gGnitU4/yWTiyRXpnpwYS0UHlRxmfGu4spJCSAHY3x3y
-----END RSA PRIVATE KEY-----
Certificate:
    Data:
        Version: 3 (0x2)
        Serial Number: 181 (0xb5)
    Signature Algorithm: sha256WithRSAEncryption
        Issuer: C=FR, ST=bourgogne, L=dijon, O=eole, OU=ci, CN=ACEoleCI
        Validity
            Not Before: Mar 17 14:36:16 2016 GMT
            Not After : Jun  3 14:36:16 2024 GMT
        Subject: CN=eolecitestspedago.etb4.lan
        Subject Public Key Info:
            Public Key Algorithm: rsaEncryption
                Public-Key: (1024 bit)
                Modulus:
                    00:b6:92:e6:79:68:f9:f1:f9:d4:96:c5:6d:2e:b9:
                    8a:00:2a:79:98:d3:eb:26:46:9a:41:dc:c1:76:68:
                    8c:2a:af:ca:64:90:62:f3:be:cc:b1:4a:1f:83:ba:
                    d9:ce:93:19:e3:76:89:05:21:16:5f:87:b7:56:8e:
                    91:44:f6:77:fc:ed:43:33:e3:ef:0d:f9:31:9c:77:
                    d7:94:cc:6a:da:47:80:42:74:ee:48:d0:d7:bd:02:
                    ed:d5:76:28:0d:d9:0b:4f:c7:07:2f:d3:d7:42:9b:
                    60:a0:13:88:ef:e5:0a:29:9b:c8:bd:e9:c5:16:77:
                    0d:78:cf:ec:89:35:89:76:4b
                Exponent: 65537 (0x10001)
        X509v3 extensions:
            X509v3 Basic Constraints: 
                CA:FALSE
            X509v3 Subject Key Identifier: 
                97:E2:5C:53:4B:F5:F7:30:40:0F:54:C2:7C:58:B7:AF:05:B0:DC:9D
            X509v3 Authority Key Identifier: 
                keyid:38:DF:46:29:38:B2:13:8B:A5:7C:80:4B:5E:AA:24:DB:25:DC:EC:EE
                DirName:/C=FR/ST=bourgogne/L=dijon/O=eole/OU=ci/CN=ACEoleCI
                serial:81:5A:FE:E5:BA:70:38:01

            X509v3 Key Usage: critical
                Digital Signature, Key Encipherment
            X509v3 Extended Key Usage: 
                TLS Web Server Authentication
    Signature Algorithm: sha256WithRSAEncryption
         99:4e:a6:9b:a6:41:33:99:38:79:44:86:55:9c:92:b6:5a:a8:
         1f:9c:a7:0e:47:ac:06:96:8e:73:e3:46:8c:0e:60:c4:0d:33:
         06:5d:f5:fa:8a:00:74:c0:c7:16:d9:5e:f7:73:16:0b:44:8b:
         8b:20:81:08:e7:85:77:fd:3f:2a:dd:11:7d:34:49:ab:6a:9c:
         e5:af:91:ab:16:be:3d:dc:f0:7c:9b:d4:2e:c6:e1:79:0e:ef:
         2d:80:6e:90:0e:db:6b:bf:f1:68:27:a1:9a:dc:3b:c9:c0:ba:
         41:b9:67:74:b1:cc:7f:b3:e4:a6:20:6a:d9:28:b1:da:18:d3:
         ae:ac
-----BEGIN CERTIFICATE-----
MIIC5DCCAk2gAwIBAgICALUwDQYJKoZIhvcNAQELBQAwYDELMAkGA1UEBhMCRlIx
EjAQBgNVBAgMCWJvdXJnb2duZTEOMAwGA1UEBwwFZGlqb24xDTALBgNVBAoMBGVv
bGUxCzAJBgNVBAsMAmNpMREwDwYDVQQDDAhBQ0VvbGVDSTAeFw0xNjAzMTcxNDM2
MTZaFw0yNDA2MDMxNDM2MTZaMCUxIzAhBgNVBAMMGmVvbGVjaXRlc3RzcGVkYWdv
LmV0YjQubGFuMIGfMA0GCSqGSIb3DQEBAQUAA4GNADCBiQKBgQC2kuZ5aPnx+dSW
xW0uuYoAKnmY0+smRppB3MF2aIwqr8pkkGLzvsyxSh+DutnOkxnjdokFIRZfh7dW
jpFE9nf87UMz4+8N+TGcd9eUzGraR4BCdO5I0Ne9Au3VdigN2QtPxwcv09dCm2Cg
E4jv5Qopm8i96cUWdw14z+yJNYl2SwIDAQABo4HnMIHkMAkGA1UdEwQCMAAwHQYD
VR0OBBYEFJfiXFNL9fcwQA9UwnxYt68FsNydMIGSBgNVHSMEgYowgYeAFDjfRik4
shOLpXyAS16qJNsl3OzuoWSkYjBgMQswCQYDVQQGEwJGUjESMBAGA1UECAwJYm91
cmdvZ25lMQ4wDAYDVQQHDAVkaWpvbjENMAsGA1UECgwEZW9sZTELMAkGA1UECwwC
Y2kxETAPBgNVBAMMCEFDRW9sZUNJggkAgVr+5bpwOAEwDgYDVR0PAQH/BAQDAgWg
MBMGA1UdJQQMMAoGCCsGAQUFBwMBMA0GCSqGSIb3DQEBCwUAA4GBAJlOppumQTOZ
OHlEhlWckrZaqB+cpw5HrAaWjnPjRowOYMQNMwZd9fqKAHTAxxbZXvdzFgtEi4sg
gQjnhXf9PyrdEX00SatqnOWvkasWvj3c8Hyb1C7G4XkO7y2AbpAO22u/8WgnoZrc
O8nAukG5Z3SxzH+z5KYgatkosdoY066s
-----END CERTIFICATE-----
