-----BEGIN RSA PRIVATE KEY-----
MIICXgIBAAKBgQDe0G11z7eJfERDXxLlc1FVMLBgrvYR1wrR6POCaXasrMEiFkyP
w+H0nFbDHKI715oysd9fjzTkCy9zhgheaCBj2U6I7piNW4JK2x6IYG1En6aplp0T
qie6LSuM9jj4o+rNkkp21G8RadZq71vsnklUXtvC4ZBgkDl9xZXCTC7uNQIDAQAB
AoGBAIZgw7NKvBFh7bWIEFhrjQDI5YbZ3jPyMmdYjAv52QXZBn2tXy1RYOPqqfTw
PvPCWw/58JKsRqTGDi8pBcESIX2WclF6Q4M4QTGzzS4/kqmhmcADPAau5yfb3o+y
lCiz6M+TwU8iDaTAe/aPuc5Rj7AeiLdYP1K/N+jOqibibn1hAkEA9TOzdgwG4Ti2
mstQd9yacBc2hHdIHPvjKDKL+nUHDr4I8dyxE52QvopYifMKHxyBv7QR+byTZJcV
Vx5G1pYBbQJBAOigViTatHptXu1HYn7qDSUUBycUrVtGLt2ab+6cmeDeAxsVNTfx
dgHekqdrhux+DUF5Wk2RoHnqprkF0mOC6ukCQQDnG6XIW6mYWeXynDLp5mlBwP9H
d03m05rU5l983xSZ1o+DtyjHfjlQ/gBZdVNS44F/eG+A3TZnFuesRwMpehU5AkBc
W+xXzY2CXhImWwU8Jmj5o64DUi5R4teQnFR8hCiEIyFQi2cJwxB7RYcseYCkPJe+
uxOjYII6ZXO0Wh9h6wShAkEA6XE6Q+gCVPdDHmrr2AAgkOjkJLjiai4j3/3zB1L+
ILItxpG6V2L4tMZAUzaaYPxff+SEI3bXklq1w++tDKDbZA==
-----END RSA PRIVATE KEY-----
Certificate:
    Data:
        Version: 3 (0x2)
        Serial Number: 145 (0x91)
    Signature Algorithm: sha256WithRSAEncryption
        Issuer: C=FR, ST=bourgogne, L=dijon, O=eole, OU=ci, CN=ACEoleCI
        Validity
            Not Before: Mar 17 14:36:08 2016 GMT
            Not After : Jun  3 14:36:08 2024 GMT
        Subject: CN=horus.etb2.lan
        Subject Public Key Info:
            Public Key Algorithm: rsaEncryption
                Public-Key: (1024 bit)
                Modulus:
                    00:de:d0:6d:75:cf:b7:89:7c:44:43:5f:12:e5:73:
                    51:55:30:b0:60:ae:f6:11:d7:0a:d1:e8:f3:82:69:
                    76:ac:ac:c1:22:16:4c:8f:c3:e1:f4:9c:56:c3:1c:
                    a2:3b:d7:9a:32:b1:df:5f:8f:34:e4:0b:2f:73:86:
                    08:5e:68:20:63:d9:4e:88:ee:98:8d:5b:82:4a:db:
                    1e:88:60:6d:44:9f:a6:a9:96:9d:13:aa:27:ba:2d:
                    2b:8c:f6:38:f8:a3:ea:cd:92:4a:76:d4:6f:11:69:
                    d6:6a:ef:5b:ec:9e:49:54:5e:db:c2:e1:90:60:90:
                    39:7d:c5:95:c2:4c:2e:ee:35
                Exponent: 65537 (0x10001)
        X509v3 extensions:
            X509v3 Basic Constraints: 
                CA:FALSE
            X509v3 Subject Key Identifier: 
                B2:38:23:F9:A0:CC:52:3D:C2:4A:28:25:05:13:69:02:0B:E8:09:B2
            X509v3 Authority Key Identifier: 
                keyid:38:DF:46:29:38:B2:13:8B:A5:7C:80:4B:5E:AA:24:DB:25:DC:EC:EE
                DirName:/C=FR/ST=bourgogne/L=dijon/O=eole/OU=ci/CN=ACEoleCI
                serial:81:5A:FE:E5:BA:70:38:01

            X509v3 Key Usage: critical
                Digital Signature, Key Encipherment
            X509v3 Extended Key Usage: 
                TLS Web Server Authentication
    Signature Algorithm: sha256WithRSAEncryption
         1b:2a:79:69:7a:01:f5:2d:88:e3:27:9f:a5:4d:de:4d:68:29:
         db:23:93:02:ce:a9:08:9d:4a:54:b2:02:28:52:d5:74:9c:aa:
         8b:a8:ad:a7:c8:4f:d4:ef:d8:02:37:92:1e:50:e9:a7:b5:62:
         49:ad:c7:57:18:24:63:f7:98:d8:32:70:65:1e:9d:c5:0b:df:
         11:f9:77:9d:6d:52:63:87:35:bf:3d:9c:2d:47:e3:33:a5:48:
         a9:6d:05:71:01:ef:02:65:c0:ef:86:4a:c7:fa:b5:ed:50:dd:
         5e:bd:6a:21:c7:06:dd:0c:09:cc:45:4d:3a:d0:1b:db:79:89:
         4d:5e
-----BEGIN CERTIFICATE-----
MIIC2DCCAkGgAwIBAgICAJEwDQYJKoZIhvcNAQELBQAwYDELMAkGA1UEBhMCRlIx
EjAQBgNVBAgMCWJvdXJnb2duZTEOMAwGA1UEBwwFZGlqb24xDTALBgNVBAoMBGVv
bGUxCzAJBgNVBAsMAmNpMREwDwYDVQQDDAhBQ0VvbGVDSTAeFw0xNjAzMTcxNDM2
MDhaFw0yNDA2MDMxNDM2MDhaMBkxFzAVBgNVBAMMDmhvcnVzLmV0YjIubGFuMIGf
MA0GCSqGSIb3DQEBAQUAA4GNADCBiQKBgQDe0G11z7eJfERDXxLlc1FVMLBgrvYR
1wrR6POCaXasrMEiFkyPw+H0nFbDHKI715oysd9fjzTkCy9zhgheaCBj2U6I7piN
W4JK2x6IYG1En6aplp0Tqie6LSuM9jj4o+rNkkp21G8RadZq71vsnklUXtvC4ZBg
kDl9xZXCTC7uNQIDAQABo4HnMIHkMAkGA1UdEwQCMAAwHQYDVR0OBBYEFLI4I/mg
zFI9wkooJQUTaQIL6AmyMIGSBgNVHSMEgYowgYeAFDjfRik4shOLpXyAS16qJNsl
3OzuoWSkYjBgMQswCQYDVQQGEwJGUjESMBAGA1UECAwJYm91cmdvZ25lMQ4wDAYD
VQQHDAVkaWpvbjENMAsGA1UECgwEZW9sZTELMAkGA1UECwwCY2kxETAPBgNVBAMM
CEFDRW9sZUNJggkAgVr+5bpwOAEwDgYDVR0PAQH/BAQDAgWgMBMGA1UdJQQMMAoG
CCsGAQUFBwMBMA0GCSqGSIb3DQEBCwUAA4GBABsqeWl6AfUtiOMnn6VN3k1oKdsj
kwLOqQidSlSyAihS1XScqouorafIT9Tv2AI3kh5Q6ae1Ykmtx1cYJGP3mNgycGUe
ncUL3xH5d51tUmOHNb89nC1H4zOlSKltBXEB7wJlwO+GSsf6te1Q3V69aiHHBt0M
CcxFTTrQG9t5iU1e
-----END CERTIFICATE-----
