-----BEGIN RSA PRIVATE KEY-----
MIICXAIBAAKBgQCp/IcsBk2TYrtEhjb2Gn79lp3+pCU3DrIFECUWirLGMhsLscm/
1vQvvWDVF1PfXZLwc39SaccRIIakbBJCEY7TSKPuj6rv7OrbuINzcyB40SdLTyW5
OTHA14A5zLx3OHRqlnfjDDqesEG7nmGtqDMI1hhYpFnbFVOriCiIAw3FKQIDAQAB
AoGALFm5vs/KL7kj2QYXkvBoz6sbf9O97faElfOXaaE4caOjENMLK2VfApGrkQ1s
EawtaVUJFCyLBrnwxzd3MAu6spK3cTCHgYOM/xHL6LPzEz8xmeEgZdsKN34B3HlW
DBIIFaWErgEquh3v+DDByfN6msxoUe2+mw3mEXx9kVrCFYECQQDQqntk85jn0xWq
arqyh9zv2LZSFQxpZ85Jj0Sq7FgJCeGF9CblQdpG5/9ecxZ0EgAANZJ673w0tu0T
3zRrCRU5AkEA0Ivfti539OagoQsii0U+cCdTRGLHnovK0P5wldIEYoMUKC4LYmnE
1fQXS91c1xZECHz6FRsg9k3pm+42I8WfcQJANeUCj/V29dGIVAbTB8+dmflQRe0X
0pW0Kz2sz7TRnCwIKs//x9D1bsD3LU7uarZHd8ZeehAm9XqVyz8oS8kByQJBAMHY
UiBwPxZHzSUESZ60xV3QX+if/LbVb7cl2paYOXUsK+9RJUnb0JejJIhjAWn4C1Ls
gDRgHBp1v2AuYuqLRjECQCgqsCloTPf1riHgQaXczHQ++VSqsN4FxMEs0mcYw+vX
i3yMhSFBfhlNg/MLQ2k/Vr9vbswDmIN0Ag/SuCbLTCs=
-----END RSA PRIVATE KEY-----
Certificate:
    Data:
        Version: 3 (0x2)
        Serial Number: 131 (0x83)
    Signature Algorithm: sha256WithRSAEncryption
        Issuer: C=FR, ST=bourgogne, L=dijon, O=eole, OU=ci, CN=ACEoleCI
        Validity
            Not Before: Mar 17 14:36:05 2016 GMT
            Not After : Jun  3 14:36:05 2024 GMT
        Subject: CN=eolebase.etb2.lan
        Subject Public Key Info:
            Public Key Algorithm: rsaEncryption
                Public-Key: (1024 bit)
                Modulus:
                    00:a9:fc:87:2c:06:4d:93:62:bb:44:86:36:f6:1a:
                    7e:fd:96:9d:fe:a4:25:37:0e:b2:05:10:25:16:8a:
                    b2:c6:32:1b:0b:b1:c9:bf:d6:f4:2f:bd:60:d5:17:
                    53:df:5d:92:f0:73:7f:52:69:c7:11:20:86:a4:6c:
                    12:42:11:8e:d3:48:a3:ee:8f:aa:ef:ec:ea:db:b8:
                    83:73:73:20:78:d1:27:4b:4f:25:b9:39:31:c0:d7:
                    80:39:cc:bc:77:38:74:6a:96:77:e3:0c:3a:9e:b0:
                    41:bb:9e:61:ad:a8:33:08:d6:18:58:a4:59:db:15:
                    53:ab:88:28:88:03:0d:c5:29
                Exponent: 65537 (0x10001)
        X509v3 extensions:
            X509v3 Basic Constraints: 
                CA:FALSE
            X509v3 Subject Key Identifier: 
                0E:E7:C1:ED:50:A9:51:D5:77:D9:69:71:C0:8D:39:8C:02:47:ED:F9
            X509v3 Authority Key Identifier: 
                keyid:38:DF:46:29:38:B2:13:8B:A5:7C:80:4B:5E:AA:24:DB:25:DC:EC:EE

            X509v3 Key Usage: critical
                Digital Signature, Non Repudiation, Key Encipherment
            X509v3 Extended Key Usage: 
                TLS Web Client Authentication, E-mail Protection
    Signature Algorithm: sha256WithRSAEncryption
         55:e2:0c:ed:78:0d:88:b2:a4:df:cc:fb:83:f0:39:e4:71:5b:
         88:34:e0:92:92:bc:e6:28:4f:d5:13:15:84:8a:0d:55:d2:37:
         70:ac:f9:16:2a:30:ef:66:78:3e:e5:18:3f:a3:cc:12:d5:db:
         e6:c5:4f:6b:c5:fd:f4:7d:ad:af:a2:fe:0a:2a:23:df:9f:01:
         b3:2f:c3:06:f2:fb:43:77:6e:16:f2:3f:67:0e:be:7a:2d:7a:
         27:f8:42:1a:53:45:3b:62:60:a2:ed:ff:9a:20:ff:87:a5:d8:
         55:b6:cb:9e:e4:7d:1e:36:f8:de:4d:68:7a:5c:f2:b6:88:13:
         dc:ff
-----BEGIN CERTIFICATE-----
MIICbzCCAdigAwIBAgICAIMwDQYJKoZIhvcNAQELBQAwYDELMAkGA1UEBhMCRlIx
EjAQBgNVBAgMCWJvdXJnb2duZTEOMAwGA1UEBwwFZGlqb24xDTALBgNVBAoMBGVv
bGUxCzAJBgNVBAsMAmNpMREwDwYDVQQDDAhBQ0VvbGVDSTAeFw0xNjAzMTcxNDM2
MDVaFw0yNDA2MDMxNDM2MDVaMBwxGjAYBgNVBAMMEWVvbGViYXNlLmV0YjIubGFu
MIGfMA0GCSqGSIb3DQEBAQUAA4GNADCBiQKBgQCp/IcsBk2TYrtEhjb2Gn79lp3+
pCU3DrIFECUWirLGMhsLscm/1vQvvWDVF1PfXZLwc39SaccRIIakbBJCEY7TSKPu
j6rv7OrbuINzcyB40SdLTyW5OTHA14A5zLx3OHRqlnfjDDqesEG7nmGtqDMI1hhY
pFnbFVOriCiIAw3FKQIDAQABo3wwejAJBgNVHRMEAjAAMB0GA1UdDgQWBBQO58Ht
UKlR1XfZaXHAjTmMAkft+TAfBgNVHSMEGDAWgBQ430YpOLITi6V8gEteqiTbJdzs
7jAOBgNVHQ8BAf8EBAMCBeAwHQYDVR0lBBYwFAYIKwYBBQUHAwIGCCsGAQUFBwME
MA0GCSqGSIb3DQEBCwUAA4GBAFXiDO14DYiypN/M+4PwOeRxW4g04JKSvOYoT9UT
FYSKDVXSN3Cs+RYqMO9meD7lGD+jzBLV2+bFT2vF/fR9ra+i/goqI9+fAbMvwwby
+0N3bhbyP2cOvnoteif4QhpTRTtiYKLt/5og/4el2FW2y57kfR42+N5NaHpc8raI
E9z/
-----END CERTIFICATE-----
