Certificate:
    Data:
        Version: 3 (0x2)
        Serial Number:
            bf:6d:d2:51:a6:fa:16:26
    Signature Algorithm: sha256WithRSAEncryption
        Issuer: C=FR, ST=France, O=Eole, OU=Recette, CN=CA Racine/emailAddress=eole-mut@listeseole.ac-dijon.fr
        Validity
            Not Before: Mar 30 18:03:17 2017 GMT
            Not After : Mar 29 18:03:17 2020 GMT
        Subject: C=FR, ST=France, O=Eole, OU=Recette, CN=CA Racine/emailAddress=eole-mut@listeseole.ac-dijon.fr
        Subject Public Key Info:
            Public Key Algorithm: rsaEncryption
                Public-Key: (2048 bit)
                Modulus:
                    00:be:7a:77:63:8f:e2:69:0d:0b:a9:e2:8d:f8:1c:
                    d8:fa:d1:04:dc:8c:07:ff:f3:64:e7:53:39:f9:b4:
                    82:5e:e4:21:0b:cf:81:2b:47:ad:7f:23:6e:02:ec:
                    41:6d:36:50:0b:77:27:7f:f1:d5:d4:0c:29:a6:4a:
                    39:e6:d6:6c:5a:05:21:bd:da:13:05:62:47:d5:bf:
                    94:85:08:68:a3:d5:cc:22:fe:d0:e6:f2:62:50:6f:
                    bc:9a:8b:17:3b:e2:32:b9:97:6d:28:85:e8:0c:bf:
                    de:e9:7e:68:00:75:f6:ac:0e:11:0f:d0:3d:e8:6e:
                    9e:30:12:02:41:e3:28:d1:6b:4c:d3:7b:a8:49:d4:
                    7c:47:12:73:40:89:9b:2f:d3:ea:9f:7f:e7:7e:86:
                    f6:c9:9f:1c:ef:31:ef:7d:7c:e0:35:a0:6c:c1:55:
                    6a:6d:cc:fc:e5:62:72:44:51:0e:4b:e1:27:ab:fd:
                    df:1c:50:c1:bc:ac:be:98:b1:53:65:e7:df:76:6a:
                    1c:0d:72:86:f8:60:90:79:b5:11:01:70:27:c5:e4:
                    93:e3:42:ba:86:c2:09:01:1a:2f:46:a7:1f:c5:5e:
                    6e:f2:5f:18:7a:5e:ff:cf:69:64:e4:4a:b6:91:8f:
                    e8:08:8b:60:d2:71:09:5c:2e:f6:60:b0:66:f8:5e:
                    64:43
                Exponent: 65537 (0x10001)
        X509v3 extensions:
            X509v3 Subject Key Identifier: 
                23:6A:76:89:5E:65:3E:09:6A:2A:09:F1:14:D0:7D:7C:00:57:2E:E0
            X509v3 Authority Key Identifier: 
                keyid:23:6A:76:89:5E:65:3E:09:6A:2A:09:F1:14:D0:7D:7C:00:57:2E:E0

            X509v3 Basic Constraints: 
                CA:TRUE
    Signature Algorithm: sha256WithRSAEncryption
         65:f0:79:b9:0a:bb:6c:e1:c8:33:83:88:c3:b2:2f:b8:d2:0a:
         73:c2:0e:f6:35:47:85:a9:ac:11:b1:e8:1b:07:85:53:fc:6e:
         f6:2b:27:14:3c:4c:44:c8:d5:96:50:f0:69:76:33:5a:89:a8:
         3b:af:a7:a7:8d:64:25:03:9a:f2:74:b4:f1:d9:62:6d:26:15:
         5d:57:4a:33:78:2d:30:f1:10:8a:3e:c7:39:40:20:2e:41:bf:
         e8:e0:48:5e:fb:ab:77:99:31:16:55:13:26:4e:65:cc:fa:a2:
         d0:bb:c2:f5:30:4a:ff:08:fd:e9:9a:68:d6:1a:42:39:70:d7:
         4f:fb:a7:d0:ed:5c:68:f7:fb:ef:4b:fe:fb:91:40:6c:c7:2d:
         ee:89:28:ae:95:86:23:9d:de:f4:b7:f1:63:6b:a2:c2:89:bf:
         ea:05:3d:e9:f0:2d:62:50:b7:78:93:9f:01:34:37:28:7d:8d:
         79:2e:0b:a9:ec:18:97:fa:a4:83:aa:aa:21:4f:cf:2b:13:cd:
         97:ad:c1:8b:e9:06:d2:77:ef:62:58:cf:18:e1:c4:8b:d8:9e:
         46:b0:54:40:7f:35:30:ff:8d:c3:1a:32:ef:1c:8e:b3:33:40:
         9d:ab:57:56:9d:6e:59:98:2a:dc:4b:38:a2:7b:bc:71:a4:83:
         61:65:d4:64
-----BEGIN CERTIFICATE-----
MIID2zCCAsOgAwIBAgIJAL9t0lGm+hYmMA0GCSqGSIb3DQEBCwUAMIGDMQswCQYD
VQQGEwJGUjEPMA0GA1UECAwGRnJhbmNlMQ0wCwYDVQQKDARFb2xlMRAwDgYDVQQL
DAdSZWNldHRlMRIwEAYDVQQDDAlDQSBSYWNpbmUxLjAsBgkqhkiG9w0BCQEWH2Vv
bGUtbXV0QGxpc3Rlc2VvbGUuYWMtZGlqb24uZnIwHhcNMTcwMzMwMTgwMzE3WhcN
MjAwMzI5MTgwMzE3WjCBgzELMAkGA1UEBhMCRlIxDzANBgNVBAgMBkZyYW5jZTEN
MAsGA1UECgwERW9sZTEQMA4GA1UECwwHUmVjZXR0ZTESMBAGA1UEAwwJQ0EgUmFj
aW5lMS4wLAYJKoZIhvcNAQkBFh9lb2xlLW11dEBsaXN0ZXNlb2xlLmFjLWRpam9u
LmZyMIIBIjANBgkqhkiG9w0BAQEFAAOCAQ8AMIIBCgKCAQEAvnp3Y4/iaQ0LqeKN
+BzY+tEE3IwH//Nk51M5+bSCXuQhC8+BK0etfyNuAuxBbTZQC3cnf/HV1Awppko5
5tZsWgUhvdoTBWJH1b+UhQhoo9XMIv7Q5vJiUG+8mosXO+IyuZdtKIXoDL/e6X5o
AHX2rA4RD9A96G6eMBICQeMo0WtM03uoSdR8RxJzQImbL9Pqn3/nfob2yZ8c7zHv
fXzgNaBswVVqbcz85WJyRFEOS+Enq/3fHFDBvKy+mLFTZeffdmocDXKG+GCQebUR
AXAnxeST40K6hsIJARovRqcfxV5u8l8Yel7/z2lk5Eq2kY/oCItg0nEJXC72YLBm
+F5kQwIDAQABo1AwTjAdBgNVHQ4EFgQUI2p2iV5lPglqKgnxFNB9fABXLuAwHwYD
VR0jBBgwFoAUI2p2iV5lPglqKgnxFNB9fABXLuAwDAYDVR0TBAUwAwEB/zANBgkq
hkiG9w0BAQsFAAOCAQEAZfB5uQq7bOHIM4OIw7IvuNIKc8IO9jVHhamsEbHoGweF
U/xu9isnFDxMRMjVllDwaXYzWomoO6+np41kJQOa8nS08dlibSYVXVdKM3gtMPEQ
ij7HOUAgLkG/6OBIXvurd5kxFlUTJk5lzPqi0LvC9TBK/wj96Zpo1hpCOXDXT/un
0O1caPf770v++5FAbMct7okorpWGI53e9LfxY2uiwom/6gU96fAtYlC3eJOfATQ3
KH2NeS4LqewYl/qkg6qqIU/PKxPNl63Bi+kG0nfvYljPGOHEi9ieRrBUQH81MP+N
wxoy7xyOszNAnatXVp1uWZgq3Es4onu8caSDYWXUZA==
-----END CERTIFICATE-----
