Certificate:
    Data:
        Version: 3 (0x2)
        Serial Number:
            bf:6d:d2:51:a6:fa:16:28
    Signature Algorithm: sha256WithRSAEncryption
        Issuer: C=FR, ST=France, O=Eole, OU=Recette, CN=CA Racine/emailAddress=eole-mut@listeseole.ac-dijon.fr
        Validity
            Not Before: Mar 30 18:43:10 2017 GMT
            Not After : Mar 30 18:43:10 2018 GMT
        Subject: C=FR, ST=France, O=Eole, OU=Recette, CN=ldapsmb.eole.e2.rie.gouv.fr/emailAddress=eole-mut@listeseole.ac-dijon.fr
        Subject Public Key Info:
            Public Key Algorithm: rsaEncryption
                Public-Key: (2048 bit)
                Modulus:
                    00:bf:ba:53:dd:5c:66:a0:ce:0e:11:5c:5a:28:75:
                    f5:a0:ab:6c:59:74:32:d6:67:95:5f:6e:2e:98:1a:
                    22:77:54:02:d1:9a:6c:27:18:4b:00:24:4d:b7:21:
                    62:e0:6c:1b:bc:b5:48:c1:74:2d:74:c5:bf:fa:21:
                    c4:7f:54:e7:84:7b:93:f4:77:1f:ff:0a:6a:a6:30:
                    85:55:47:05:c7:c5:48:cc:80:94:98:c5:a9:13:d6:
                    33:85:94:04:c6:63:fd:90:06:24:69:dc:d4:3f:53:
                    59:8d:8c:f0:73:60:7e:61:a6:b7:bb:a4:c8:43:3c:
                    f7:27:40:75:e2:f8:87:58:42:ed:27:34:aa:61:ee:
                    10:84:a2:bc:fb:69:12:40:67:32:13:9c:d2:c3:20:
                    fd:d6:7a:2a:2a:de:5d:a3:9a:e7:ce:77:42:05:1f:
                    b6:d8:47:71:7d:d9:dc:12:62:74:1c:cf:f6:33:69:
                    84:ae:33:a9:6f:dd:41:80:93:74:b4:c2:96:8d:d1:
                    e5:ac:66:8e:99:c9:e6:0d:93:4d:55:31:e4:f0:42:
                    0c:34:76:93:2b:1a:90:ce:1e:c3:16:dc:b6:b8:81:
                    b5:68:da:64:3e:b7:6b:5c:bf:1b:7e:ef:ca:8c:d4:
                    37:bc:ef:22:d8:c7:4e:36:df:4a:b7:3a:6c:9c:38:
                    92:bf
                Exponent: 65537 (0x10001)
        X509v3 extensions:
            X509v3 Basic Constraints: 
                CA:FALSE
            Netscape Comment: 
                OpenSSL Generated Certificate
            X509v3 Subject Key Identifier: 
                A0:21:BE:22:52:98:D0:BB:5E:94:68:F1:7D:1F:7C:15:9E:67:9C:F7
            X509v3 Authority Key Identifier: 
                keyid:23:6A:76:89:5E:65:3E:09:6A:2A:09:F1:14:D0:7D:7C:00:57:2E:E0

    Signature Algorithm: sha256WithRSAEncryption
         22:71:16:74:ce:00:0f:ac:ed:de:91:fd:94:26:dd:01:3e:55:
         46:4d:42:a4:10:9e:0b:dc:78:45:6c:28:b3:2a:78:0f:16:fa:
         c7:f0:52:40:54:fb:c6:04:ad:8a:70:c2:83:76:85:e4:71:ef:
         56:02:b5:ad:a3:15:5f:47:54:65:da:f1:37:09:49:13:69:0e:
         4e:4c:ed:ef:ff:7e:01:99:bd:2c:c4:a6:12:21:03:50:62:4b:
         1f:cb:6f:b5:5c:73:cb:af:9c:b2:71:82:f6:f0:c1:43:07:61:
         d4:5f:7a:c4:11:d7:52:48:fb:31:30:01:0c:78:21:19:b0:24:
         6f:02:b2:76:1d:d8:61:dc:79:f4:b7:21:d2:78:2a:91:c4:6a:
         44:a3:aa:80:e9:f2:92:f2:84:86:be:c3:bc:66:fb:d0:fd:87:
         c4:46:95:92:b1:b7:79:74:69:e8:f8:ec:89:d4:14:59:42:4c:
         12:df:bd:74:4c:6e:64:ac:22:a1:9f:80:5f:f0:f5:ed:2b:e7:
         c5:77:63:92:5a:61:7a:ca:cd:ef:df:42:2c:74:1b:e6:41:b9:
         ec:17:60:1a:5d:63:b5:fd:62:e3:d4:5c:04:c8:1a:3d:41:62:
         f4:b6:44:55:4f:d7:b5:fc:6e:14:ea:55:ab:6d:47:12:6c:67:
         bd:8c:fb:d0
-----BEGIN CERTIFICATE-----
MIIEGDCCAwCgAwIBAgIJAL9t0lGm+hYoMA0GCSqGSIb3DQEBCwUAMIGDMQswCQYD
VQQGEwJGUjEPMA0GA1UECAwGRnJhbmNlMQ0wCwYDVQQKDARFb2xlMRAwDgYDVQQL
DAdSZWNldHRlMRIwEAYDVQQDDAlDQSBSYWNpbmUxLjAsBgkqhkiG9w0BCQEWH2Vv
bGUtbXV0QGxpc3Rlc2VvbGUuYWMtZGlqb24uZnIwHhcNMTcwMzMwMTg0MzEwWhcN
MTgwMzMwMTg0MzEwWjCBlTELMAkGA1UEBhMCRlIxDzANBgNVBAgMBkZyYW5jZTEN
MAsGA1UECgwERW9sZTEQMA4GA1UECwwHUmVjZXR0ZTEkMCIGA1UEAwwbbGRhcHNt
Yi5lb2xlLmUyLnJpZS5nb3V2LmZyMS4wLAYJKoZIhvcNAQkBFh9lb2xlLW11dEBs
aXN0ZXNlb2xlLmFjLWRpam9uLmZyMIIBIjANBgkqhkiG9w0BAQEFAAOCAQ8AMIIB
CgKCAQEAv7pT3VxmoM4OEVxaKHX1oKtsWXQy1meVX24umBoid1QC0ZpsJxhLACRN
tyFi4GwbvLVIwXQtdMW/+iHEf1TnhHuT9Hcf/wpqpjCFVUcFx8VIzICUmMWpE9Yz
hZQExmP9kAYkadzUP1NZjYzwc2B+Yaa3u6TIQzz3J0B14viHWELtJzSqYe4QhKK8
+2kSQGcyE5zSwyD91noqKt5do5rnzndCBR+22EdxfdncEmJ0HM/2M2mErjOpb91B
gJN0tMKWjdHlrGaOmcnmDZNNVTHk8EIMNHaTKxqQzh7DFty2uIG1aNpkPrdrXL8b
fu/KjNQ3vO8i2MdONt9KtzpsnDiSvwIDAQABo3sweTAJBgNVHRMEAjAAMCwGCWCG
SAGG+EIBDQQfFh1PcGVuU1NMIEdlbmVyYXRlZCBDZXJ0aWZpY2F0ZTAdBgNVHQ4E
FgQUoCG+IlKY0LtelGjxfR98FZ5nnPcwHwYDVR0jBBgwFoAUI2p2iV5lPglqKgnx
FNB9fABXLuAwDQYJKoZIhvcNAQELBQADggEBACJxFnTOAA+s7d6R/ZQm3QE+VUZN
QqQQngvceEVsKLMqeA8W+sfwUkBU+8YErYpwwoN2heRx71YCta2jFV9HVGXa8TcJ
SRNpDk5M7e//fgGZvSzEphIhA1BiSx/Lb7Vcc8uvnLJxgvbwwUMHYdRfesQR11JI
+zEwAQx4IRmwJG8CsnYd2GHcefS3IdJ4KpHEakSjqoDp8pLyhIa+w7xm+9D9h8RG
lZKxt3l0aej47InUFFlCTBLfvXRMbmSsIqGfgF/w9e0r58V3Y5JaYXrKze/fQix0
G+ZBuewXYBpdY7X9YuPUXATIGj1BYvS2RFVP17X8bhTqVattRxJsZ72M+9A=
-----END CERTIFICATE-----
