Certificate:
    Data:
        Version: 3 (0x2)
        Serial Number: 119 (0x77)
    Signature Algorithm: sha256WithRSAEncryption
        Issuer: C=FR, ST=bourgogne, L=dijon, O=eole, OU=ci, CN=ACEoleCI
        Validity
            Not Before: Mar 17 14:36:01 2016 GMT
            Not After : Jun  3 14:36:01 2024 GMT
        Subject: CN=WindowsServerAD.etb1.lan
        Subject Public Key Info:
            Public Key Algorithm: rsaEncryption
                Public-Key: (1024 bit)
                Modulus:
                    00:9e:51:25:79:46:3c:e6:95:92:09:36:8d:74:3b:
                    22:f5:d7:43:3e:49:8a:b1:d5:30:41:cb:af:41:01:
                    82:0c:d2:c6:c8:98:21:3a:07:5f:4d:e1:8f:38:fa:
                    fa:c9:0e:74:d3:1e:f6:74:b0:ad:01:f5:47:29:46:
                    20:65:3d:9c:02:19:54:1d:12:72:30:b2:5e:09:67:
                    47:e8:18:d8:47:64:33:fd:c1:ff:85:76:ec:ef:72:
                    42:b1:fd:74:b5:6d:1b:fa:f3:c0:94:46:da:7a:2e:
                    1e:63:2d:ea:e1:53:ce:b3:a5:00:e7:84:37:e5:61:
                    f4:75:9c:a7:4c:1e:e3:0e:b3
                Exponent: 65537 (0x10001)
        X509v3 extensions:
            X509v3 Basic Constraints: 
                CA:FALSE
            X509v3 Subject Key Identifier: 
                C0:17:49:CB:C5:3F:13:85:28:A1:1B:2A:73:4B:82:73:F1:CA:9F:2F
            X509v3 Authority Key Identifier: 
                keyid:38:DF:46:29:38:B2:13:8B:A5:7C:80:4B:5E:AA:24:DB:25:DC:EC:EE

            X509v3 Key Usage: critical
                Digital Signature, Non Repudiation, Key Encipherment
            X509v3 Extended Key Usage: 
                TLS Web Client Authentication, E-mail Protection
    Signature Algorithm: sha256WithRSAEncryption
         89:eb:04:b7:6d:b1:65:56:e6:5e:13:ce:9e:b5:a8:24:06:21:
         a6:a8:91:b2:c5:bc:71:37:42:ab:ca:58:cb:ea:b3:74:cf:e2:
         94:ec:84:78:e0:e2:7b:91:42:e8:22:60:b4:18:b0:af:a5:45:
         3d:42:a7:4f:eb:30:69:24:95:5b:e0:f8:b5:0d:92:2e:e8:c7:
         bd:00:cb:af:d5:af:37:17:49:8a:d1:99:b3:39:9d:c2:49:93:
         70:bc:b4:2a:be:27:b2:1e:e2:56:a7:33:8c:77:b9:16:7b:2e:
         60:85:d8:2d:ac:73:d8:38:db:44:73:32:97:80:c3:e1:a7:67:
         29:99
-----BEGIN CERTIFICATE-----
MIICdTCCAd6gAwIBAgIBdzANBgkqhkiG9w0BAQsFADBgMQswCQYDVQQGEwJGUjES
MBAGA1UECAwJYm91cmdvZ25lMQ4wDAYDVQQHDAVkaWpvbjENMAsGA1UECgwEZW9s
ZTELMAkGA1UECwwCY2kxETAPBgNVBAMMCEFDRW9sZUNJMB4XDTE2MDMxNzE0MzYw
MVoXDTI0MDYwMzE0MzYwMVowIzEhMB8GA1UEAwwYV2luZG93c1NlcnZlckFELmV0
YjEubGFuMIGfMA0GCSqGSIb3DQEBAQUAA4GNADCBiQKBgQCeUSV5RjzmlZIJNo10
OyL110M+SYqx1TBBy69BAYIM0sbImCE6B19N4Y84+vrJDnTTHvZ0sK0B9UcpRiBl
PZwCGVQdEnIwsl4JZ0foGNhHZDP9wf+FduzvckKx/XS1bRv688CURtp6Lh5jLerh
U86zpQDnhDflYfR1nKdMHuMOswIDAQABo3wwejAJBgNVHRMEAjAAMB0GA1UdDgQW
BBTAF0nLxT8ThSihGypzS4Jz8cqfLzAfBgNVHSMEGDAWgBQ430YpOLITi6V8gEte
qiTbJdzs7jAOBgNVHQ8BAf8EBAMCBeAwHQYDVR0lBBYwFAYIKwYBBQUHAwIGCCsG
AQUFBwMEMA0GCSqGSIb3DQEBCwUAA4GBAInrBLdtsWVW5l4Tzp61qCQGIaaokbLF
vHE3QqvKWMvqs3TP4pTshHjg4nuRQugiYLQYsK+lRT1Cp0/rMGkklVvg+LUNki7o
x70Ay6/VrzcXSYrRmbM5ncJJk3C8tCq+J7Ie4lanM4x3uRZ7LmCF2C2sc9g420Rz
MpeAw+GnZymZ
-----END CERTIFICATE-----
