-----BEGIN RSA PRIVATE KEY-----
MIICXQIBAAKBgQDKI7x5oBeXstuF5nFBPTk1ZsqznOrMrSr3ajdc1v6U0qxjkxiR
S0MDQOyzgxMpkSGKnKocigS4jL6qkAV38tq8FqeXTxrSso2OHtuJOWis8hJ5Y/48
V8cBM4nZunmrrHu7ekAuRp/T7DeD+tawTWRRw3cKAlgDhVoW7tmvIIKSVwIDAQAB
AoGAWXCyhoZlqgPDyl2Kozk5xP00l4DJC8NbjZn74SJoBuWozW5aon9QqXHiyhMn
OW80Dib/xhzztczg2ItdQBO+4Ev7c9OhnWJ5t7gD58MJIQ8dlCXfPyeQeiL0SgFP
yhKz7KOLWKX+KRQGupDJDF8K1ThYfNXwAtFxpMFDHCBVnbECQQD+bTjsZcM6eqXZ
Q4tEb4ZIZS5IyR54AuVY48eCCDg2ukH9H+qsh7uVOrYrpoM2wQSFc/N1kjLATbGT
BRjsgShbAkEAy2O9Qu5CFtAO+h2wLBaweAD9vabQlbxuUIBZQXMiQP+c+5lQiEEH
4eRcvfoDhkTEYIzwUe8kd0ATDeV0ODE+tQJBAKn3QzDBZqN5bbPvqGjGbBmO5lWf
bahUnuw79nrKjOsakJzNppMtdcXiW/JbIYsBdMjGRh0D1r2a6YbCv/y258MCQDe0
GFilYmpXD1MHIIHisPAc7WGst0HbOqdHj6pyOvZsS3VI9xpqHRuL7K6HM8HpQZNj
5km6YlVash1DM4JUUmUCQQDn0x1Fjrk3EUsEpL9I/bw8NG7L1MVFI1/cukFZkVVs
8prheuufbIgzDUVAhr1uH7YT/kj8HVkVhdim7Vv6yGyu
-----END RSA PRIVATE KEY-----
Certificate:
    Data:
        Version: 3 (0x2)
        Serial Number: 93 (0x5d)
    Signature Algorithm: sha256WithRSAEncryption
        Issuer: C=FR, ST=bourgogne, L=dijon, O=eole, OU=ci, CN=ACEoleCI
        Validity
            Not Before: Mar 17 14:35:53 2016 GMT
            Not After : Jun  3 14:35:53 2024 GMT
        Subject: CN=eolecitestsadmin.etb1.lan
        Subject Public Key Info:
            Public Key Algorithm: rsaEncryption
                Public-Key: (1024 bit)
                Modulus:
                    00:ca:23:bc:79:a0:17:97:b2:db:85:e6:71:41:3d:
                    39:35:66:ca:b3:9c:ea:cc:ad:2a:f7:6a:37:5c:d6:
                    fe:94:d2:ac:63:93:18:91:4b:43:03:40:ec:b3:83:
                    13:29:91:21:8a:9c:aa:1c:8a:04:b8:8c:be:aa:90:
                    05:77:f2:da:bc:16:a7:97:4f:1a:d2:b2:8d:8e:1e:
                    db:89:39:68:ac:f2:12:79:63:fe:3c:57:c7:01:33:
                    89:d9:ba:79:ab:ac:7b:bb:7a:40:2e:46:9f:d3:ec:
                    37:83:fa:d6:b0:4d:64:51:c3:77:0a:02:58:03:85:
                    5a:16:ee:d9:af:20:82:92:57
                Exponent: 65537 (0x10001)
        X509v3 extensions:
            X509v3 Basic Constraints: 
                CA:FALSE
            X509v3 Subject Key Identifier: 
                EF:95:E7:20:3F:02:43:65:B9:09:06:32:79:79:88:07:6B:EB:72:E3
            X509v3 Authority Key Identifier: 
                keyid:38:DF:46:29:38:B2:13:8B:A5:7C:80:4B:5E:AA:24:DB:25:DC:EC:EE
                DirName:/C=FR/ST=bourgogne/L=dijon/O=eole/OU=ci/CN=ACEoleCI
                serial:81:5A:FE:E5:BA:70:38:01

            X509v3 Key Usage: critical
                Digital Signature, Key Encipherment
    Signature Algorithm: sha256WithRSAEncryption
         49:69:43:3d:cf:0c:57:ff:2c:b3:89:9d:26:29:45:66:d2:38:
         e5:ef:0f:f3:46:05:ff:a5:13:2e:ec:d3:de:54:ce:0d:8b:8d:
         a1:a7:dc:a9:66:95:da:40:27:17:e4:e0:e4:3e:57:e8:6e:f9:
         b8:69:bf:e8:82:f8:ab:60:3c:5f:83:da:c8:90:a7:70:57:89:
         57:37:a5:c1:05:dc:31:6c:f2:d9:5c:7d:21:20:c5:65:76:28:
         ce:37:d6:dc:0d:ad:5e:11:b1:3d:c4:af:73:85:b0:40:c1:da:
         35:34:5b:9c:3b:e2:03:2e:a6:ad:23:17:ee:8d:d9:f5:dc:84:
         6c:04
-----BEGIN CERTIFICATE-----
MIICzTCCAjagAwIBAgIBXTANBgkqhkiG9w0BAQsFADBgMQswCQYDVQQGEwJGUjES
MBAGA1UECAwJYm91cmdvZ25lMQ4wDAYDVQQHDAVkaWpvbjENMAsGA1UECgwEZW9s
ZTELMAkGA1UECwwCY2kxETAPBgNVBAMMCEFDRW9sZUNJMB4XDTE2MDMxNzE0MzU1
M1oXDTI0MDYwMzE0MzU1M1owJDEiMCAGA1UEAwwZZW9sZWNpdGVzdHNhZG1pbi5l
dGIxLmxhbjCBnzANBgkqhkiG9w0BAQEFAAOBjQAwgYkCgYEAyiO8eaAXl7LbheZx
QT05NWbKs5zqzK0q92o3XNb+lNKsY5MYkUtDA0Dss4MTKZEhipyqHIoEuIy+qpAF
d/LavBanl08a0rKNjh7biTlorPISeWP+PFfHATOJ2bp5q6x7u3pALkaf0+w3g/rW
sE1kUcN3CgJYA4VaFu7ZryCCklcCAwEAAaOB0jCBzzAJBgNVHRMEAjAAMB0GA1Ud
DgQWBBTvlecgPwJDZbkJBjJ5eYgHa+ty4zCBkgYDVR0jBIGKMIGHgBQ430YpOLIT
i6V8gEteqiTbJdzs7qFkpGIwYDELMAkGA1UEBhMCRlIxEjAQBgNVBAgMCWJvdXJn
b2duZTEOMAwGA1UEBwwFZGlqb24xDTALBgNVBAoMBGVvbGUxCzAJBgNVBAsMAmNp
MREwDwYDVQQDDAhBQ0VvbGVDSYIJAIFa/uW6cDgBMA4GA1UdDwEB/wQEAwIFoDAN
BgkqhkiG9w0BAQsFAAOBgQBJaUM9zwxX/yyziZ0mKUVm0jjl7w/zRgX/pRMu7NPe
VM4Ni42hp9ypZpXaQCcX5ODkPlfobvm4ab/ogvirYDxfg9rIkKdwV4lXN6XBBdwx
bPLZXH0hIMVldijON9bcDa1eEbE9xK9zhbBAwdo1NFucO+IDLqatIxfujdn13IRs
BA==
-----END CERTIFICATE-----
