Certificate:
    Data:
        Version: 3 (0x2)
        Serial Number: 92 (0x5c)
    Signature Algorithm: sha256WithRSAEncryption
        Issuer: C=FR, ST=bourgogne, L=dijon, O=eole, OU=ci, CN=ACEoleCI
        Validity
            Not Before: Mar 17 14:35:53 2016 GMT
            Not After : Jun  3 14:35:53 2024 GMT
        Subject: CN=eolecitestsadmin.etb1.lan
        Subject Public Key Info:
            Public Key Algorithm: rsaEncryption
                Public-Key: (1024 bit)
                Modulus:
                    00:ca:23:bc:79:a0:17:97:b2:db:85:e6:71:41:3d:
                    39:35:66:ca:b3:9c:ea:cc:ad:2a:f7:6a:37:5c:d6:
                    fe:94:d2:ac:63:93:18:91:4b:43:03:40:ec:b3:83:
                    13:29:91:21:8a:9c:aa:1c:8a:04:b8:8c:be:aa:90:
                    05:77:f2:da:bc:16:a7:97:4f:1a:d2:b2:8d:8e:1e:
                    db:89:39:68:ac:f2:12:79:63:fe:3c:57:c7:01:33:
                    89:d9:ba:79:ab:ac:7b:bb:7a:40:2e:46:9f:d3:ec:
                    37:83:fa:d6:b0:4d:64:51:c3:77:0a:02:58:03:85:
                    5a:16:ee:d9:af:20:82:92:57
                Exponent: 65537 (0x10001)
        X509v3 extensions:
            X509v3 Basic Constraints: 
                CA:FALSE
            X509v3 Subject Key Identifier: 
                EF:95:E7:20:3F:02:43:65:B9:09:06:32:79:79:88:07:6B:EB:72:E3
            X509v3 Authority Key Identifier: 
                keyid:38:DF:46:29:38:B2:13:8B:A5:7C:80:4B:5E:AA:24:DB:25:DC:EC:EE

            X509v3 Key Usage: critical
                Digital Signature, Non Repudiation, Key Encipherment
            X509v3 Extended Key Usage: 
                TLS Web Client Authentication, E-mail Protection
    Signature Algorithm: sha256WithRSAEncryption
         05:4b:68:c0:36:3d:54:b7:85:fe:df:ce:0f:0c:f1:45:18:a7:
         18:fc:7e:36:23:af:2e:f0:1b:2f:13:d3:bc:47:ea:ce:ff:b5:
         2a:59:8a:3a:4c:5f:f8:f7:f4:78:a3:9b:10:39:de:cd:42:6d:
         61:c2:c7:b2:3c:6e:d6:48:a4:4a:9a:9d:40:ae:6b:a5:30:b3:
         3b:56:e9:95:40:b7:aa:cb:44:67:26:af:82:f3:26:7f:6e:9f:
         ee:01:88:9f:d8:91:a9:f5:66:f5:0b:08:6a:cb:1c:4d:63:17:
         74:7d:54:10:57:18:b6:de:fc:f9:c4:f4:9e:b5:ac:7f:bc:53:
         15:32
-----BEGIN CERTIFICATE-----
MIICdjCCAd+gAwIBAgIBXDANBgkqhkiG9w0BAQsFADBgMQswCQYDVQQGEwJGUjES
MBAGA1UECAwJYm91cmdvZ25lMQ4wDAYDVQQHDAVkaWpvbjENMAsGA1UECgwEZW9s
ZTELMAkGA1UECwwCY2kxETAPBgNVBAMMCEFDRW9sZUNJMB4XDTE2MDMxNzE0MzU1
M1oXDTI0MDYwMzE0MzU1M1owJDEiMCAGA1UEAwwZZW9sZWNpdGVzdHNhZG1pbi5l
dGIxLmxhbjCBnzANBgkqhkiG9w0BAQEFAAOBjQAwgYkCgYEAyiO8eaAXl7LbheZx
QT05NWbKs5zqzK0q92o3XNb+lNKsY5MYkUtDA0Dss4MTKZEhipyqHIoEuIy+qpAF
d/LavBanl08a0rKNjh7biTlorPISeWP+PFfHATOJ2bp5q6x7u3pALkaf0+w3g/rW
sE1kUcN3CgJYA4VaFu7ZryCCklcCAwEAAaN8MHowCQYDVR0TBAIwADAdBgNVHQ4E
FgQU75XnID8CQ2W5CQYyeXmIB2vrcuMwHwYDVR0jBBgwFoAUON9GKTiyE4ulfIBL
Xqok2yXc7O4wDgYDVR0PAQH/BAQDAgXgMB0GA1UdJQQWMBQGCCsGAQUFBwMCBggr
BgEFBQcDBDANBgkqhkiG9w0BAQsFAAOBgQAFS2jANj1Ut4X+384PDPFFGKcY/H42
I68u8BsvE9O8R+rO/7UqWYo6TF/49/R4o5sQOd7NQm1hwseyPG7WSKRKmp1Armul
MLM7VumVQLeqy0RnJq+C8yZ/bp/uAYif2JGp9Wb1CwhqyxxNYxd0fVQQVxi23vz5
xPSetax/vFMVMg==
-----END CERTIFICATE-----
