-----BEGIN RSA PRIVATE KEY-----
MIICXQIBAAKBgQDKI7x5oBeXstuF5nFBPTk1ZsqznOrMrSr3ajdc1v6U0qxjkxiR
S0MDQOyzgxMpkSGKnKocigS4jL6qkAV38tq8FqeXTxrSso2OHtuJOWis8hJ5Y/48
V8cBM4nZunmrrHu7ekAuRp/T7DeD+tawTWRRw3cKAlgDhVoW7tmvIIKSVwIDAQAB
AoGAWXCyhoZlqgPDyl2Kozk5xP00l4DJC8NbjZn74SJoBuWozW5aon9QqXHiyhMn
OW80Dib/xhzztczg2ItdQBO+4Ev7c9OhnWJ5t7gD58MJIQ8dlCXfPyeQeiL0SgFP
yhKz7KOLWKX+KRQGupDJDF8K1ThYfNXwAtFxpMFDHCBVnbECQQD+bTjsZcM6eqXZ
Q4tEb4ZIZS5IyR54AuVY48eCCDg2ukH9H+qsh7uVOrYrpoM2wQSFc/N1kjLATbGT
BRjsgShbAkEAy2O9Qu5CFtAO+h2wLBaweAD9vabQlbxuUIBZQXMiQP+c+5lQiEEH
4eRcvfoDhkTEYIzwUe8kd0ATDeV0ODE+tQJBAKn3QzDBZqN5bbPvqGjGbBmO5lWf
bahUnuw79nrKjOsakJzNppMtdcXiW/JbIYsBdMjGRh0D1r2a6YbCv/y258MCQDe0
GFilYmpXD1MHIIHisPAc7WGst0HbOqdHj6pyOvZsS3VI9xpqHRuL7K6HM8HpQZNj
5km6YlVash1DM4JUUmUCQQDn0x1Fjrk3EUsEpL9I/bw8NG7L1MVFI1/cukFZkVVs
8prheuufbIgzDUVAhr1uH7YT/kj8HVkVhdim7Vv6yGyu
-----END RSA PRIVATE KEY-----
Certificate:
    Data:
        Version: 3 (0x2)
        Serial Number: 91 (0x5b)
    Signature Algorithm: sha256WithRSAEncryption
        Issuer: C=FR, ST=bourgogne, L=dijon, O=eole, OU=ci, CN=ACEoleCI
        Validity
            Not Before: Mar 17 14:35:52 2016 GMT
            Not After : Jun  3 14:35:52 2024 GMT
        Subject: CN=eolecitestsadmin.etb1.lan
        Subject Public Key Info:
            Public Key Algorithm: rsaEncryption
                Public-Key: (1024 bit)
                Modulus:
                    00:ca:23:bc:79:a0:17:97:b2:db:85:e6:71:41:3d:
                    39:35:66:ca:b3:9c:ea:cc:ad:2a:f7:6a:37:5c:d6:
                    fe:94:d2:ac:63:93:18:91:4b:43:03:40:ec:b3:83:
                    13:29:91:21:8a:9c:aa:1c:8a:04:b8:8c:be:aa:90:
                    05:77:f2:da:bc:16:a7:97:4f:1a:d2:b2:8d:8e:1e:
                    db:89:39:68:ac:f2:12:79:63:fe:3c:57:c7:01:33:
                    89:d9:ba:79:ab:ac:7b:bb:7a:40:2e:46:9f:d3:ec:
                    37:83:fa:d6:b0:4d:64:51:c3:77:0a:02:58:03:85:
                    5a:16:ee:d9:af:20:82:92:57
                Exponent: 65537 (0x10001)
        X509v3 extensions:
            X509v3 Basic Constraints: 
                CA:FALSE
            X509v3 Subject Key Identifier: 
                EF:95:E7:20:3F:02:43:65:B9:09:06:32:79:79:88:07:6B:EB:72:E3
            X509v3 Authority Key Identifier: 
                keyid:38:DF:46:29:38:B2:13:8B:A5:7C:80:4B:5E:AA:24:DB:25:DC:EC:EE
                DirName:/C=FR/ST=bourgogne/L=dijon/O=eole/OU=ci/CN=ACEoleCI
                serial:81:5A:FE:E5:BA:70:38:01

            X509v3 Key Usage: critical
                Digital Signature, Key Encipherment
            X509v3 Extended Key Usage: 
                TLS Web Server Authentication
    Signature Algorithm: sha256WithRSAEncryption
         1b:49:b6:6a:84:42:17:af:ef:b9:1e:a3:7a:62:7a:98:9d:c6:
         6b:43:e8:55:79:e0:d5:45:a6:62:51:c7:43:87:06:2e:b2:f4:
         94:81:64:f4:38:9d:2e:18:12:d5:f7:fd:be:ed:e2:18:04:ff:
         12:09:9c:48:b3:af:2d:b9:c3:60:39:2b:fd:91:a7:5a:26:1d:
         56:4d:4c:5b:c9:ae:6e:24:11:a3:49:eb:11:70:47:59:57:1d:
         ca:61:b4:29:a5:36:fd:e7:f6:2d:c5:4a:a4:8d:6a:54:e8:d1:
         f0:d0:c5:f1:ca:ce:c0:40:1b:5d:0c:eb:2b:e7:a4:7c:fb:6e:
         71:3c
-----BEGIN CERTIFICATE-----
MIIC4jCCAkugAwIBAgIBWzANBgkqhkiG9w0BAQsFADBgMQswCQYDVQQGEwJGUjES
MBAGA1UECAwJYm91cmdvZ25lMQ4wDAYDVQQHDAVkaWpvbjENMAsGA1UECgwEZW9s
ZTELMAkGA1UECwwCY2kxETAPBgNVBAMMCEFDRW9sZUNJMB4XDTE2MDMxNzE0MzU1
MloXDTI0MDYwMzE0MzU1MlowJDEiMCAGA1UEAwwZZW9sZWNpdGVzdHNhZG1pbi5l
dGIxLmxhbjCBnzANBgkqhkiG9w0BAQEFAAOBjQAwgYkCgYEAyiO8eaAXl7LbheZx
QT05NWbKs5zqzK0q92o3XNb+lNKsY5MYkUtDA0Dss4MTKZEhipyqHIoEuIy+qpAF
d/LavBanl08a0rKNjh7biTlorPISeWP+PFfHATOJ2bp5q6x7u3pALkaf0+w3g/rW
sE1kUcN3CgJYA4VaFu7ZryCCklcCAwEAAaOB5zCB5DAJBgNVHRMEAjAAMB0GA1Ud
DgQWBBTvlecgPwJDZbkJBjJ5eYgHa+ty4zCBkgYDVR0jBIGKMIGHgBQ430YpOLIT
i6V8gEteqiTbJdzs7qFkpGIwYDELMAkGA1UEBhMCRlIxEjAQBgNVBAgMCWJvdXJn
b2duZTEOMAwGA1UEBwwFZGlqb24xDTALBgNVBAoMBGVvbGUxCzAJBgNVBAsMAmNp
MREwDwYDVQQDDAhBQ0VvbGVDSYIJAIFa/uW6cDgBMA4GA1UdDwEB/wQEAwIFoDAT
BgNVHSUEDDAKBggrBgEFBQcDATANBgkqhkiG9w0BAQsFAAOBgQAbSbZqhEIXr++5
HqN6YnqYncZrQ+hVeeDVRaZiUcdDhwYusvSUgWT0OJ0uGBLV9/2+7eIYBP8SCZxI
s68tucNgOSv9kadaJh1WTUxbya5uJBGjSesRcEdZVx3KYbQppTb95/YtxUqkjWpU
6NHw0MXxys7AQBtdDOsr56R8+25xPA==
-----END CERTIFICATE-----
