Certificate:
    Data:
        Version: 3 (0x2)
        Serial Number: 215 (0xd7)
    Signature Algorithm: sha256WithRSAEncryption
        Issuer: C=FR, ST=bourgogne, L=dijon, O=eole, OU=ci, CN=ACEoleCI
        Validity
            Not Before: Mar 17 14:36:25 2016 GMT
            Not After : Jun  3 14:36:25 2024 GMT
        Subject: CN=jenkins2.eole.lan
        Subject Public Key Info:
            Public Key Algorithm: rsaEncryption
                Public-Key: (1024 bit)
                Modulus:
                    00:bb:50:c2:f1:57:a0:a3:11:1f:43:44:b5:9b:92:
                    c9:18:6b:e3:13:85:21:28:cc:b6:9b:89:eb:cd:3b:
                    0b:c7:22:cf:e9:7c:2d:77:0e:51:13:5d:33:e7:08:
                    a0:11:dc:51:7c:11:dd:c0:ff:14:ad:30:f0:5e:a5:
                    5e:9b:73:58:15:8b:23:08:ba:3b:ba:87:c1:42:f9:
                    cd:08:13:a4:50:5c:b0:a0:8b:68:4d:5d:59:1a:a0:
                    38:48:cb:ba:a8:0e:36:ac:fb:cf:22:0b:50:1e:aa:
                    43:c2:e6:c3:9e:87:57:fd:81:b2:0d:b5:e6:31:a6:
                    56:83:17:3c:18:e2:1f:3b:91
                Exponent: 65537 (0x10001)
        X509v3 extensions:
            X509v3 Basic Constraints: 
                CA:FALSE
            X509v3 Subject Key Identifier: 
                AD:6A:77:17:AF:8C:8F:DE:16:64:01:5B:79:64:CA:85:25:EC:51:56
            X509v3 Authority Key Identifier: 
                keyid:38:DF:46:29:38:B2:13:8B:A5:7C:80:4B:5E:AA:24:DB:25:DC:EC:EE

            X509v3 Key Usage: critical
                Digital Signature, Non Repudiation, Key Encipherment
            X509v3 Extended Key Usage: 
                TLS Web Client Authentication, E-mail Protection
    Signature Algorithm: sha256WithRSAEncryption
         82:c5:25:3c:7e:ee:ff:52:d6:71:24:6c:30:c1:18:f0:ea:80:
         72:25:ea:17:c7:87:2b:1b:e4:b6:fa:1b:2e:93:f3:cf:a4:8a:
         f5:94:4a:d1:dd:d6:55:4f:ea:38:d7:14:ca:f7:39:77:1b:5c:
         0c:8e:8d:30:37:ed:49:1b:5f:7e:5d:1b:ee:25:e6:e9:09:75:
         ad:66:bf:a5:fe:fd:ef:e1:5c:e7:67:04:e6:01:1a:a1:b7:2c:
         ec:fd:7d:1c:34:5f:76:49:c3:10:dd:db:05:b4:f7:f8:38:be:
         57:bd:8b:e7:60:57:b0:a3:32:36:ec:c9:6f:f8:6e:fd:cf:36:
         34:e8
-----BEGIN CERTIFICATE-----
MIICbzCCAdigAwIBAgICANcwDQYJKoZIhvcNAQELBQAwYDELMAkGA1UEBhMCRlIx
EjAQBgNVBAgMCWJvdXJnb2duZTEOMAwGA1UEBwwFZGlqb24xDTALBgNVBAoMBGVv
bGUxCzAJBgNVBAsMAmNpMREwDwYDVQQDDAhBQ0VvbGVDSTAeFw0xNjAzMTcxNDM2
MjVaFw0yNDA2MDMxNDM2MjVaMBwxGjAYBgNVBAMMEWplbmtpbnMyLmVvbGUubGFu
MIGfMA0GCSqGSIb3DQEBAQUAA4GNADCBiQKBgQC7UMLxV6CjER9DRLWbkskYa+MT
hSEozLabievNOwvHIs/pfC13DlETXTPnCKAR3FF8Ed3A/xStMPBepV6bc1gViyMI
uju6h8FC+c0IE6RQXLCgi2hNXVkaoDhIy7qoDjas+88iC1AeqkPC5sOeh1f9gbIN
teYxplaDFzwY4h87kQIDAQABo3wwejAJBgNVHRMEAjAAMB0GA1UdDgQWBBStancX
r4yP3hZkAVt5ZMqFJexRVjAfBgNVHSMEGDAWgBQ430YpOLITi6V8gEteqiTbJdzs
7jAOBgNVHQ8BAf8EBAMCBeAwHQYDVR0lBBYwFAYIKwYBBQUHAwIGCCsGAQUFBwME
MA0GCSqGSIb3DQEBCwUAA4GBAILFJTx+7v9S1nEkbDDBGPDqgHIl6hfHhysb5Lb6
Gy6T88+kivWUStHd1lVP6jjXFMr3OXcbXAyOjTA37UkbX35dG+4l5ukJda1mv6X+
/e/hXOdnBOYBGqG3LOz9fRw0X3ZJwxDd2wW09/g4vle9i+dgV7CjMjbsyW/4bv3P
NjTo
-----END CERTIFICATE-----
