-----BEGIN RSA PRIVATE KEY-----
MIICXQIBAAKBgQC7UMLxV6CjER9DRLWbkskYa+MThSEozLabievNOwvHIs/pfC13
DlETXTPnCKAR3FF8Ed3A/xStMPBepV6bc1gViyMIuju6h8FC+c0IE6RQXLCgi2hN
XVkaoDhIy7qoDjas+88iC1AeqkPC5sOeh1f9gbINteYxplaDFzwY4h87kQIDAQAB
AoGAOuvJlm8Q+ZpeMiO/2KMQnJz7Pd2ns5TJcB2vTcxgBRDfQ7uq9YNMX4H23Jqq
91NNUnCwR5A1adE2Gx97pfxfXUTnRXJPkYfynIQZdp6abm7piON+K97DZ70mtDtC
M6nAgmdBhkmP5cWf72PW8+mSget3sAc/ij82fAy+MytlJ+0CQQD0BCdAOG0Np4Bw
aMiEHIkWvGnQMsNH9WYtZo6Y2G5SXZMkzq8u2qKd3b57EDUsX+4Uf+IXrVEVbGQT
edqNEqrbAkEAxIO/veC7hSaoFvI9pb7tSxhwowFkH0IrbqdW510URNFphH8bYv6p
48UdfuhNsZFhhfATKuNJBKR9RylNf/MhAwJBAKPLEenKtnD+6XkK7OW5HdA0IrbN
DEYGFFMPT1KLnOoOw9FmJzNFMPjUuqJyi67Aqdf6y3HnNdEyk657Ede2GxcCQA1Y
sVYRBEtXw8TDMQKnw+/8ufGoL4eb890xCkruXGkMG/F+vHptt1Yb1hP/bP9pU0lI
c9TO2O+yyDtkB7pv5ccCQQCO2SCLXqyTQs0P4/wgWCpwZNFk/sz/k3Z2bfe27F4T
/Oah+APdOL2PRfq3XY0EtrLGuj0j1DASSwSzTjMAvwds
-----END RSA PRIVATE KEY-----
Certificate:
    Data:
        Version: 3 (0x2)
        Serial Number: 214 (0xd6)
    Signature Algorithm: sha256WithRSAEncryption
        Issuer: C=FR, ST=bourgogne, L=dijon, O=eole, OU=ci, CN=ACEoleCI
        Validity
            Not Before: Mar 17 14:36:24 2016 GMT
            Not After : Jun  3 14:36:24 2024 GMT
        Subject: CN=jenkins2.eole.lan
        Subject Public Key Info:
            Public Key Algorithm: rsaEncryption
                Public-Key: (1024 bit)
                Modulus:
                    00:bb:50:c2:f1:57:a0:a3:11:1f:43:44:b5:9b:92:
                    c9:18:6b:e3:13:85:21:28:cc:b6:9b:89:eb:cd:3b:
                    0b:c7:22:cf:e9:7c:2d:77:0e:51:13:5d:33:e7:08:
                    a0:11:dc:51:7c:11:dd:c0:ff:14:ad:30:f0:5e:a5:
                    5e:9b:73:58:15:8b:23:08:ba:3b:ba:87:c1:42:f9:
                    cd:08:13:a4:50:5c:b0:a0:8b:68:4d:5d:59:1a:a0:
                    38:48:cb:ba:a8:0e:36:ac:fb:cf:22:0b:50:1e:aa:
                    43:c2:e6:c3:9e:87:57:fd:81:b2:0d:b5:e6:31:a6:
                    56:83:17:3c:18:e2:1f:3b:91
                Exponent: 65537 (0x10001)
        X509v3 extensions:
            X509v3 Basic Constraints: 
                CA:FALSE
            X509v3 Subject Key Identifier: 
                AD:6A:77:17:AF:8C:8F:DE:16:64:01:5B:79:64:CA:85:25:EC:51:56
            X509v3 Authority Key Identifier: 
                keyid:38:DF:46:29:38:B2:13:8B:A5:7C:80:4B:5E:AA:24:DB:25:DC:EC:EE
                DirName:/C=FR/ST=bourgogne/L=dijon/O=eole/OU=ci/CN=ACEoleCI
                serial:81:5A:FE:E5:BA:70:38:01

            X509v3 Key Usage: critical
                Digital Signature, Key Encipherment
            X509v3 Extended Key Usage: 
                TLS Web Server Authentication
    Signature Algorithm: sha256WithRSAEncryption
         7c:26:22:ab:17:00:5b:45:29:bd:99:f3:f8:55:4d:f2:f6:cf:
         2a:cb:31:33:b4:58:c1:17:21:fa:d3:2b:cb:ec:b9:9e:69:18:
         45:4b:bc:90:cd:5e:61:e4:87:5c:68:ce:71:5c:26:1a:2a:e5:
         aa:ad:f6:a0:a3:da:44:cd:bd:d0:58:eb:d6:20:b9:d0:ff:e3:
         fa:b1:95:9b:e6:ca:08:e7:b3:79:10:48:d1:94:fb:71:6f:53:
         ff:0a:6e:3a:41:2e:5b:a0:db:73:b5:9f:d2:0d:ca:68:bc:56:
         e5:34:5a:a6:9c:ae:90:c7:d0:3d:e2:43:94:06:85:18:ac:d8:
         3f:1e
-----BEGIN CERTIFICATE-----
MIIC2zCCAkSgAwIBAgICANYwDQYJKoZIhvcNAQELBQAwYDELMAkGA1UEBhMCRlIx
EjAQBgNVBAgMCWJvdXJnb2duZTEOMAwGA1UEBwwFZGlqb24xDTALBgNVBAoMBGVv
bGUxCzAJBgNVBAsMAmNpMREwDwYDVQQDDAhBQ0VvbGVDSTAeFw0xNjAzMTcxNDM2
MjRaFw0yNDA2MDMxNDM2MjRaMBwxGjAYBgNVBAMMEWplbmtpbnMyLmVvbGUubGFu
MIGfMA0GCSqGSIb3DQEBAQUAA4GNADCBiQKBgQC7UMLxV6CjER9DRLWbkskYa+MT
hSEozLabievNOwvHIs/pfC13DlETXTPnCKAR3FF8Ed3A/xStMPBepV6bc1gViyMI
uju6h8FC+c0IE6RQXLCgi2hNXVkaoDhIy7qoDjas+88iC1AeqkPC5sOeh1f9gbIN
teYxplaDFzwY4h87kQIDAQABo4HnMIHkMAkGA1UdEwQCMAAwHQYDVR0OBBYEFK1q
dxevjI/eFmQBW3lkyoUl7FFWMIGSBgNVHSMEgYowgYeAFDjfRik4shOLpXyAS16q
JNsl3OzuoWSkYjBgMQswCQYDVQQGEwJGUjESMBAGA1UECAwJYm91cmdvZ25lMQ4w
DAYDVQQHDAVkaWpvbjENMAsGA1UECgwEZW9sZTELMAkGA1UECwwCY2kxETAPBgNV
BAMMCEFDRW9sZUNJggkAgVr+5bpwOAEwDgYDVR0PAQH/BAQDAgWgMBMGA1UdJQQM
MAoGCCsGAQUFBwMBMA0GCSqGSIb3DQEBCwUAA4GBAHwmIqsXAFtFKb2Z8/hVTfL2
zyrLMTO0WMEXIfrTK8vsuZ5pGEVLvJDNXmHkh1xoznFcJhoq5aqt9qCj2kTNvdBY
69YgudD/4/qxlZvmygjns3kQSNGU+3FvU/8KbjpBLlug23O1n9INymi8VuU0Wqac
rpDH0D3iQ5QGhRis2D8e
-----END CERTIFICATE-----
