-----BEGIN RSA PRIVATE KEY-----
MIICXgIBAAKBgQDb3CdH8cIfJR4SZWUHMorsoMUzeaPMYmIojZ4f+G/71EqpzJXc
df8ratMuzdKHysE9BsdQZCITxv15AROzN9QguE7PwD6U6P78BmbaETV5l8gIfGns
i78RZ15wu5vSnMVlZiieDmtC9LB49RLxci1dacULPgBKexIgbO8NLnIgLQIDAQAB
AoGAEsQ17iQqp7HpYTSabQTZat1GN+CYJKf5LPD5oEz6cgpq3ReDay//OduCbypO
YBzkZasgdDI33mxL0npPDisjxgayL1w4t8RPCMFR2CCBK53Lq4xSq7EC5C6tGeaM
k+0JFK/WXn6NVepnAswJajcYr2Goy2Vot2WvwfFBm0hVhRkCQQDy+Jy5pdRS3JX1
9YDtYzh5eITVjQhBdxvAGQ0HIwe3NE0xFQNATTQboNMSI6/ZUDS/2fRpT/57hpvM
E7LlYEK7AkEA56ZIVTbpLWQoW+zAXbLDf+kgQRNCBypXg+IOgnn17pTzjf39PuLR
oOmzedoxjnrty93cbXED21bQ0tndFGe+NwJBAJmKoEf1UnrWqPGYplPdmsewcIkf
KbNtGJ1Jd2EmMu8EXy+ALuDIqQA4nondAXhb5inDC2AtzAy1oOjTHf8z2JcCQQDH
zlV1qvdVf56QK5WBPEAEhECd4M6C/7Kcvs9lG21VbITnZLybEWlfMjTsVZeJHd8e
iS8n9uMsvaVBOUnH3/PhAkEA8rnV/pzXOnO5rP54c5UVu8RwPvzr55EYrtm8Og46
AwmJEfkuvntOpX1oM6lA+Mkd3fXs5ttj8PidtIPCc0NFWQ==
-----END RSA PRIVATE KEY-----
Certificate:
    Data:
        Version: 3 (0x2)
        Serial Number: 113 (0x71)
    Signature Algorithm: sha256WithRSAEncryption
        Issuer: C=FR, ST=bourgogne, L=dijon, O=eole, OU=ci, CN=ACEoleCI
        Validity
            Not Before: Mar 17 14:35:59 2016 GMT
            Not After : Jun  3 14:35:59 2024 GMT
        Subject: CN=pcprofs-dom.etb1.lan
        Subject Public Key Info:
            Public Key Algorithm: rsaEncryption
                Public-Key: (1024 bit)
                Modulus:
                    00:db:dc:27:47:f1:c2:1f:25:1e:12:65:65:07:32:
                    8a:ec:a0:c5:33:79:a3:cc:62:62:28:8d:9e:1f:f8:
                    6f:fb:d4:4a:a9:cc:95:dc:75:ff:2b:6a:d3:2e:cd:
                    d2:87:ca:c1:3d:06:c7:50:64:22:13:c6:fd:79:01:
                    13:b3:37:d4:20:b8:4e:cf:c0:3e:94:e8:fe:fc:06:
                    66:da:11:35:79:97:c8:08:7c:69:ec:8b:bf:11:67:
                    5e:70:bb:9b:d2:9c:c5:65:66:28:9e:0e:6b:42:f4:
                    b0:78:f5:12:f1:72:2d:5d:69:c5:0b:3e:00:4a:7b:
                    12:20:6c:ef:0d:2e:72:20:2d
                Exponent: 65537 (0x10001)
        X509v3 extensions:
            X509v3 Basic Constraints: 
                CA:FALSE
            X509v3 Subject Key Identifier: 
                6A:19:40:3E:F6:0F:C7:8C:5A:1C:15:6E:EA:7A:E9:06:60:02:E8:91
            X509v3 Authority Key Identifier: 
                keyid:38:DF:46:29:38:B2:13:8B:A5:7C:80:4B:5E:AA:24:DB:25:DC:EC:EE

            X509v3 Key Usage: critical
                Digital Signature, Non Repudiation, Key Encipherment
            X509v3 Extended Key Usage: 
                TLS Web Client Authentication, E-mail Protection
    Signature Algorithm: sha256WithRSAEncryption
         54:65:0e:90:e4:cf:06:90:c5:22:6b:90:4d:e3:bb:10:45:de:
         d6:8d:a0:7e:a6:31:2d:d3:14:81:d2:03:55:f9:5a:f2:08:a3:
         18:58:15:5c:ef:ef:78:7c:91:ac:b8:57:ca:01:c6:34:4e:96:
         18:00:1c:d6:d5:59:79:3d:8e:7a:83:1c:73:f1:af:91:10:c9:
         e6:41:16:2d:49:53:b1:81:ab:fa:fc:76:6a:da:6a:e4:27:ba:
         69:80:17:df:49:f4:f9:81:7f:46:f0:54:19:c3:23:67:53:96:
         38:5c:50:25:00:f7:88:af:5b:e2:fc:ce:f9:93:9f:06:44:c7:
         95:f2
-----BEGIN CERTIFICATE-----
MIICcTCCAdqgAwIBAgIBcTANBgkqhkiG9w0BAQsFADBgMQswCQYDVQQGEwJGUjES
MBAGA1UECAwJYm91cmdvZ25lMQ4wDAYDVQQHDAVkaWpvbjENMAsGA1UECgwEZW9s
ZTELMAkGA1UECwwCY2kxETAPBgNVBAMMCEFDRW9sZUNJMB4XDTE2MDMxNzE0MzU1
OVoXDTI0MDYwMzE0MzU1OVowHzEdMBsGA1UEAwwUcGNwcm9mcy1kb20uZXRiMS5s
YW4wgZ8wDQYJKoZIhvcNAQEBBQADgY0AMIGJAoGBANvcJ0fxwh8lHhJlZQcyiuyg
xTN5o8xiYiiNnh/4b/vUSqnMldx1/ytq0y7N0ofKwT0Gx1BkIhPG/XkBE7M31CC4
Ts/APpTo/vwGZtoRNXmXyAh8aeyLvxFnXnC7m9KcxWVmKJ4Oa0L0sHj1EvFyLV1p
xQs+AEp7EiBs7w0uciAtAgMBAAGjfDB6MAkGA1UdEwQCMAAwHQYDVR0OBBYEFGoZ
QD72D8eMWhwVbup66QZgAuiRMB8GA1UdIwQYMBaAFDjfRik4shOLpXyAS16qJNsl
3OzuMA4GA1UdDwEB/wQEAwIF4DAdBgNVHSUEFjAUBggrBgEFBQcDAgYIKwYBBQUH
AwQwDQYJKoZIhvcNAQELBQADgYEAVGUOkOTPBpDFImuQTeO7EEXe1o2gfqYxLdMU
gdIDVfla8gijGFgVXO/veHyRrLhXygHGNE6WGAAc1tVZeT2OeoMcc/GvkRDJ5kEW
LUlTsYGr+vx2atpq5Ce6aYAX30n0+YF/RvBUGcMjZ1OWOFxQJQD3iK9b4vzO+ZOf
BkTHlfI=
-----END CERTIFICATE-----
