Certificate:
    Data:
        Version: 3 (0x2)
        Serial Number: 112 (0x70)
    Signature Algorithm: sha256WithRSAEncryption
        Issuer: C=FR, ST=bourgogne, L=dijon, O=eole, OU=ci, CN=ACEoleCI
        Validity
            Not Before: Mar 17 14:35:59 2016 GMT
            Not After : Jun  3 14:35:59 2024 GMT
        Subject: CN=pcprofs-dom.etb1.lan
        Subject Public Key Info:
            Public Key Algorithm: rsaEncryption
                Public-Key: (1024 bit)
                Modulus:
                    00:db:dc:27:47:f1:c2:1f:25:1e:12:65:65:07:32:
                    8a:ec:a0:c5:33:79:a3:cc:62:62:28:8d:9e:1f:f8:
                    6f:fb:d4:4a:a9:cc:95:dc:75:ff:2b:6a:d3:2e:cd:
                    d2:87:ca:c1:3d:06:c7:50:64:22:13:c6:fd:79:01:
                    13:b3:37:d4:20:b8:4e:cf:c0:3e:94:e8:fe:fc:06:
                    66:da:11:35:79:97:c8:08:7c:69:ec:8b:bf:11:67:
                    5e:70:bb:9b:d2:9c:c5:65:66:28:9e:0e:6b:42:f4:
                    b0:78:f5:12:f1:72:2d:5d:69:c5:0b:3e:00:4a:7b:
                    12:20:6c:ef:0d:2e:72:20:2d
                Exponent: 65537 (0x10001)
        X509v3 extensions:
            X509v3 Basic Constraints: 
                CA:FALSE
            X509v3 Subject Key Identifier: 
                6A:19:40:3E:F6:0F:C7:8C:5A:1C:15:6E:EA:7A:E9:06:60:02:E8:91
            X509v3 Authority Key Identifier: 
                keyid:38:DF:46:29:38:B2:13:8B:A5:7C:80:4B:5E:AA:24:DB:25:DC:EC:EE
                DirName:/C=FR/ST=bourgogne/L=dijon/O=eole/OU=ci/CN=ACEoleCI
                serial:81:5A:FE:E5:BA:70:38:01

            X509v3 Key Usage: critical
                Digital Signature, Key Encipherment
            X509v3 Extended Key Usage: 
                TLS Web Server Authentication
    Signature Algorithm: sha256WithRSAEncryption
         52:67:a5:7a:f9:21:1b:71:e5:0a:49:0f:a8:59:13:f3:39:63:
         f4:40:fd:46:8a:d6:6a:2d:e2:9c:b8:b3:e6:c4:c9:0a:19:9b:
         ae:57:21:40:dc:d9:5b:22:12:c3:a8:28:37:a3:60:81:c2:77:
         43:1a:99:31:fd:8c:ef:ff:ff:29:07:db:02:89:e8:03:28:de:
         f6:72:cc:4e:14:42:50:34:ab:04:45:b7:85:f3:c1:ec:b5:e6:
         d7:9c:60:75:13:43:5e:42:52:f1:96:5d:4a:1f:62:6f:5d:fe:
         e7:cb:6c:20:a3:30:9b:e0:a1:be:85:3b:3b:03:7a:63:75:14:
         8b:1c
-----BEGIN CERTIFICATE-----
MIIC3TCCAkagAwIBAgIBcDANBgkqhkiG9w0BAQsFADBgMQswCQYDVQQGEwJGUjES
MBAGA1UECAwJYm91cmdvZ25lMQ4wDAYDVQQHDAVkaWpvbjENMAsGA1UECgwEZW9s
ZTELMAkGA1UECwwCY2kxETAPBgNVBAMMCEFDRW9sZUNJMB4XDTE2MDMxNzE0MzU1
OVoXDTI0MDYwMzE0MzU1OVowHzEdMBsGA1UEAwwUcGNwcm9mcy1kb20uZXRiMS5s
YW4wgZ8wDQYJKoZIhvcNAQEBBQADgY0AMIGJAoGBANvcJ0fxwh8lHhJlZQcyiuyg
xTN5o8xiYiiNnh/4b/vUSqnMldx1/ytq0y7N0ofKwT0Gx1BkIhPG/XkBE7M31CC4
Ts/APpTo/vwGZtoRNXmXyAh8aeyLvxFnXnC7m9KcxWVmKJ4Oa0L0sHj1EvFyLV1p
xQs+AEp7EiBs7w0uciAtAgMBAAGjgecwgeQwCQYDVR0TBAIwADAdBgNVHQ4EFgQU
ahlAPvYPx4xaHBVu6nrpBmAC6JEwgZIGA1UdIwSBijCBh4AUON9GKTiyE4ulfIBL
Xqok2yXc7O6hZKRiMGAxCzAJBgNVBAYTAkZSMRIwEAYDVQQIDAlib3VyZ29nbmUx
DjAMBgNVBAcMBWRpam9uMQ0wCwYDVQQKDARlb2xlMQswCQYDVQQLDAJjaTERMA8G
A1UEAwwIQUNFb2xlQ0mCCQCBWv7lunA4ATAOBgNVHQ8BAf8EBAMCBaAwEwYDVR0l
BAwwCgYIKwYBBQUHAwEwDQYJKoZIhvcNAQELBQADgYEAUmelevkhG3HlCkkPqFkT
8zlj9ED9RorWai3inLiz5sTJChmbrlchQNzZWyISw6goN6NggcJ3QxqZMf2M7///
KQfbAonoAyje9nLMThRCUDSrBEW3hfPB7LXm15xgdRNDXkJS8ZZdSh9ib13+58ts
IKMwm+ChvoU7OwN6Y3UUixw=
-----END CERTIFICATE-----
