-----BEGIN RSA PRIVATE KEY-----
MIICXAIBAAKBgQCgXC8vRhvUpEvowEi8GCDiMDoNfhHskEV0yLJBBVA5J/WMYVm2
tA6ziBrKGNKfsL9sJU/zHMuRgogzEldWbtyhQbCU7wq3mIl20MIoEi5TVr5i4A+Y
DH2IIiV8LIotUigA55Vx7FDgk5QJBXp3pxSkexT09epgUcebB5MqYns5zQIDAQAB
AoGAMpijcqEGSvOD1+5DhMWAKp3Y00UB1sg2ggCI7acFhuMqwJ4+tjzdnpvFCBsI
6cXUwASN00E0obazzpls4SKdjevQXqgGc/yPUpe/pfPJUOVTAD1b3YtTtXggqj0e
q4rXDmKjQ3gTMNMrMK5wAqFJLZZHdHZyAT9SpG0WmiDvo+kCQQDOk1hrqBAo2/Gw
4LgLxD/RKnkYbR8pNIsbgjUODJjdta8p5MRar7JSsgxgdcv9zou4YxWaZW3IKcvd
OF6NC133AkEAxrop0GbjUdM3VpLmj6WRTDvFU+b5QcGQDnXjFsEFBc8IWrOZMvYs
N/gAPU/t+pcNmadQtnvp4TIz5Rx7w30FWwJAEa7XQM/wIi9BryxtVMSF2ffSyd59
bl+LEN3CgONfKotk5ScqD8E+eIm5OYCb56wIlc4ViVPpY9sAEn3CyjwQ3QJAIAML
C0wXoC2zA1okk80q66nRLqPNUR9aEkpBK4AqS/Y+tUWrDv+Cvf1QJJBEmJJOmYrP
QKYTVbhdjbGZ6jKwcwJBAMAJ8xmUa+WnNKADDaj6WpzFmpZAKkPw57yPd0/q7JmZ
xTqE5rLkKx1qs32yjktzLaJdV2VUVmJ5mL9H1Juoets=
-----END RSA PRIVATE KEY-----
Certificate:
    Data:
        Version: 3 (0x2)
        Serial Number: 159 (0x9f)
    Signature Algorithm: sha256WithRSAEncryption
        Issuer: C=FR, ST=bourgogne, L=dijon, O=eole, OU=ci, CN=ACEoleCI
        Validity
            Not Before: Mar 17 14:36:10 2016 GMT
            Not After : Jun  3 14:36:10 2024 GMT
        Subject: CN=scribe.etb2.lan
        Subject Public Key Info:
            Public Key Algorithm: rsaEncryption
                Public-Key: (1024 bit)
                Modulus:
                    00:a0:5c:2f:2f:46:1b:d4:a4:4b:e8:c0:48:bc:18:
                    20:e2:30:3a:0d:7e:11:ec:90:45:74:c8:b2:41:05:
                    50:39:27:f5:8c:61:59:b6:b4:0e:b3:88:1a:ca:18:
                    d2:9f:b0:bf:6c:25:4f:f3:1c:cb:91:82:88:33:12:
                    57:56:6e:dc:a1:41:b0:94:ef:0a:b7:98:89:76:d0:
                    c2:28:12:2e:53:56:be:62:e0:0f:98:0c:7d:88:22:
                    25:7c:2c:8a:2d:52:28:00:e7:95:71:ec:50:e0:93:
                    94:09:05:7a:77:a7:14:a4:7b:14:f4:f5:ea:60:51:
                    c7:9b:07:93:2a:62:7b:39:cd
                Exponent: 65537 (0x10001)
        X509v3 extensions:
            X509v3 Basic Constraints: 
                CA:FALSE
            X509v3 Subject Key Identifier: 
                8A:D7:89:9E:84:62:E6:56:01:68:B9:E0:F2:2B:19:17:43:F5:36:9A
            X509v3 Authority Key Identifier: 
                keyid:38:DF:46:29:38:B2:13:8B:A5:7C:80:4B:5E:AA:24:DB:25:DC:EC:EE
                DirName:/C=FR/ST=bourgogne/L=dijon/O=eole/OU=ci/CN=ACEoleCI
                serial:81:5A:FE:E5:BA:70:38:01

            X509v3 Key Usage: critical
                Digital Signature, Key Encipherment
    Signature Algorithm: sha256WithRSAEncryption
         35:de:7a:62:ba:8b:8c:b6:1a:49:de:d7:6f:52:85:9d:81:25:
         75:f2:7c:90:a9:59:e5:76:0f:5e:07:06:ae:2b:5d:46:c3:4d:
         22:ae:a9:3e:18:68:51:b7:d3:33:e4:4c:ba:d0:89:44:0a:8b:
         29:7d:f9:7e:73:57:1b:44:bc:0a:c1:69:5b:97:86:f1:cd:6b:
         d1:09:fe:aa:2f:60:18:09:2c:ba:0f:f1:87:46:6a:2b:4c:90:
         58:47:82:99:78:f1:af:e7:e5:81:61:55:b4:3e:d5:77:33:c4:
         fa:49:e7:af:9a:c2:81:bd:60:3d:84:a3:5c:16:90:5d:3e:9a:
         74:d3
-----BEGIN CERTIFICATE-----
MIICxDCCAi2gAwIBAgICAJ8wDQYJKoZIhvcNAQELBQAwYDELMAkGA1UEBhMCRlIx
EjAQBgNVBAgMCWJvdXJnb2duZTEOMAwGA1UEBwwFZGlqb24xDTALBgNVBAoMBGVv
bGUxCzAJBgNVBAsMAmNpMREwDwYDVQQDDAhBQ0VvbGVDSTAeFw0xNjAzMTcxNDM2
MTBaFw0yNDA2MDMxNDM2MTBaMBoxGDAWBgNVBAMMD3NjcmliZS5ldGIyLmxhbjCB
nzANBgkqhkiG9w0BAQEFAAOBjQAwgYkCgYEAoFwvL0Yb1KRL6MBIvBgg4jA6DX4R
7JBFdMiyQQVQOSf1jGFZtrQOs4gayhjSn7C/bCVP8xzLkYKIMxJXVm7coUGwlO8K
t5iJdtDCKBIuU1a+YuAPmAx9iCIlfCyKLVIoAOeVcexQ4JOUCQV6d6cUpHsU9PXq
YFHHmweTKmJ7Oc0CAwEAAaOB0jCBzzAJBgNVHRMEAjAAMB0GA1UdDgQWBBSK14me
hGLmVgFoueDyKxkXQ/U2mjCBkgYDVR0jBIGKMIGHgBQ430YpOLITi6V8gEteqiTb
Jdzs7qFkpGIwYDELMAkGA1UEBhMCRlIxEjAQBgNVBAgMCWJvdXJnb2duZTEOMAwG
A1UEBwwFZGlqb24xDTALBgNVBAoMBGVvbGUxCzAJBgNVBAsMAmNpMREwDwYDVQQD
DAhBQ0VvbGVDSYIJAIFa/uW6cDgBMA4GA1UdDwEB/wQEAwIFoDANBgkqhkiG9w0B
AQsFAAOBgQA13npiuouMthpJ3tdvUoWdgSV18nyQqVnldg9eBwauK11Gw00irqk+
GGhRt9Mz5Ey60IlECospffl+c1cbRLwKwWlbl4bxzWvRCf6qL2AYCSy6D/GHRmor
TJBYR4KZePGv5+WBYVW0PtV3M8T6SeevmsKBvWA9hKNcFpBdPpp00w==
-----END CERTIFICATE-----
