Certificate:
    Data:
        Version: 3 (0x2)
        Serial Number: 158 (0x9e)
    Signature Algorithm: sha256WithRSAEncryption
        Issuer: C=FR, ST=bourgogne, L=dijon, O=eole, OU=ci, CN=ACEoleCI
        Validity
            Not Before: Mar 17 14:36:10 2016 GMT
            Not After : Jun  3 14:36:10 2024 GMT
        Subject: CN=scribe.etb2.lan
        Subject Public Key Info:
            Public Key Algorithm: rsaEncryption
                Public-Key: (1024 bit)
                Modulus:
                    00:a0:5c:2f:2f:46:1b:d4:a4:4b:e8:c0:48:bc:18:
                    20:e2:30:3a:0d:7e:11:ec:90:45:74:c8:b2:41:05:
                    50:39:27:f5:8c:61:59:b6:b4:0e:b3:88:1a:ca:18:
                    d2:9f:b0:bf:6c:25:4f:f3:1c:cb:91:82:88:33:12:
                    57:56:6e:dc:a1:41:b0:94:ef:0a:b7:98:89:76:d0:
                    c2:28:12:2e:53:56:be:62:e0:0f:98:0c:7d:88:22:
                    25:7c:2c:8a:2d:52:28:00:e7:95:71:ec:50:e0:93:
                    94:09:05:7a:77:a7:14:a4:7b:14:f4:f5:ea:60:51:
                    c7:9b:07:93:2a:62:7b:39:cd
                Exponent: 65537 (0x10001)
        X509v3 extensions:
            X509v3 Basic Constraints: 
                CA:FALSE
            X509v3 Subject Key Identifier: 
                8A:D7:89:9E:84:62:E6:56:01:68:B9:E0:F2:2B:19:17:43:F5:36:9A
            X509v3 Authority Key Identifier: 
                keyid:38:DF:46:29:38:B2:13:8B:A5:7C:80:4B:5E:AA:24:DB:25:DC:EC:EE

            X509v3 Key Usage: critical
                Digital Signature, Non Repudiation, Key Encipherment
            X509v3 Extended Key Usage: 
                TLS Web Client Authentication, E-mail Protection
    Signature Algorithm: sha256WithRSAEncryption
         06:d7:77:bc:4b:77:1b:e4:b5:9a:0a:b0:45:c8:7b:53:53:f6:
         da:b2:de:95:7d:9c:54:5a:de:31:3f:ae:f4:f4:04:c3:04:70:
         3e:56:97:0e:9e:ca:8f:49:e2:fd:48:52:46:3c:c6:ea:58:cd:
         0d:35:9c:82:28:29:6c:9c:d5:d0:a5:3b:07:42:4e:4e:39:93:
         bc:f4:aa:86:d4:6e:3e:a4:a7:ba:41:a0:cb:d8:06:c3:d3:85:
         27:2c:c5:d2:66:ec:12:2e:31:7d:3f:db:28:6e:de:92:93:a8:
         ae:32:b2:db:1e:25:49:2a:6a:65:77:73:a0:1e:50:e6:2c:13:
         c7:65
-----BEGIN CERTIFICATE-----
MIICbTCCAdagAwIBAgICAJ4wDQYJKoZIhvcNAQELBQAwYDELMAkGA1UEBhMCRlIx
EjAQBgNVBAgMCWJvdXJnb2duZTEOMAwGA1UEBwwFZGlqb24xDTALBgNVBAoMBGVv
bGUxCzAJBgNVBAsMAmNpMREwDwYDVQQDDAhBQ0VvbGVDSTAeFw0xNjAzMTcxNDM2
MTBaFw0yNDA2MDMxNDM2MTBaMBoxGDAWBgNVBAMMD3NjcmliZS5ldGIyLmxhbjCB
nzANBgkqhkiG9w0BAQEFAAOBjQAwgYkCgYEAoFwvL0Yb1KRL6MBIvBgg4jA6DX4R
7JBFdMiyQQVQOSf1jGFZtrQOs4gayhjSn7C/bCVP8xzLkYKIMxJXVm7coUGwlO8K
t5iJdtDCKBIuU1a+YuAPmAx9iCIlfCyKLVIoAOeVcexQ4JOUCQV6d6cUpHsU9PXq
YFHHmweTKmJ7Oc0CAwEAAaN8MHowCQYDVR0TBAIwADAdBgNVHQ4EFgQUiteJnoRi
5lYBaLng8isZF0P1NpowHwYDVR0jBBgwFoAUON9GKTiyE4ulfIBLXqok2yXc7O4w
DgYDVR0PAQH/BAQDAgXgMB0GA1UdJQQWMBQGCCsGAQUFBwMCBggrBgEFBQcDBDAN
BgkqhkiG9w0BAQsFAAOBgQAG13e8S3cb5LWaCrBFyHtTU/bast6VfZxUWt4xP670
9ATDBHA+VpcOnsqPSeL9SFJGPMbqWM0NNZyCKClsnNXQpTsHQk5OOZO89KqG1G4+
pKe6QaDL2AbD04UnLMXSZuwSLjF9P9sobt6Sk6iuMrLbHiVJKmpld3OgHlDmLBPH
ZQ==
-----END CERTIFICATE-----
