-----BEGIN RSA PRIVATE KEY-----
MIICXAIBAAKBgQCgXC8vRhvUpEvowEi8GCDiMDoNfhHskEV0yLJBBVA5J/WMYVm2
tA6ziBrKGNKfsL9sJU/zHMuRgogzEldWbtyhQbCU7wq3mIl20MIoEi5TVr5i4A+Y
DH2IIiV8LIotUigA55Vx7FDgk5QJBXp3pxSkexT09epgUcebB5MqYns5zQIDAQAB
AoGAMpijcqEGSvOD1+5DhMWAKp3Y00UB1sg2ggCI7acFhuMqwJ4+tjzdnpvFCBsI
6cXUwASN00E0obazzpls4SKdjevQXqgGc/yPUpe/pfPJUOVTAD1b3YtTtXggqj0e
q4rXDmKjQ3gTMNMrMK5wAqFJLZZHdHZyAT9SpG0WmiDvo+kCQQDOk1hrqBAo2/Gw
4LgLxD/RKnkYbR8pNIsbgjUODJjdta8p5MRar7JSsgxgdcv9zou4YxWaZW3IKcvd
OF6NC133AkEAxrop0GbjUdM3VpLmj6WRTDvFU+b5QcGQDnXjFsEFBc8IWrOZMvYs
N/gAPU/t+pcNmadQtnvp4TIz5Rx7w30FWwJAEa7XQM/wIi9BryxtVMSF2ffSyd59
bl+LEN3CgONfKotk5ScqD8E+eIm5OYCb56wIlc4ViVPpY9sAEn3CyjwQ3QJAIAML
C0wXoC2zA1okk80q66nRLqPNUR9aEkpBK4AqS/Y+tUWrDv+Cvf1QJJBEmJJOmYrP
QKYTVbhdjbGZ6jKwcwJBAMAJ8xmUa+WnNKADDaj6WpzFmpZAKkPw57yPd0/q7JmZ
xTqE5rLkKx1qs32yjktzLaJdV2VUVmJ5mL9H1Juoets=
-----END RSA PRIVATE KEY-----
Certificate:
    Data:
        Version: 3 (0x2)
        Serial Number: 157 (0x9d)
    Signature Algorithm: sha256WithRSAEncryption
        Issuer: C=FR, ST=bourgogne, L=dijon, O=eole, OU=ci, CN=ACEoleCI
        Validity
            Not Before: Mar 17 14:36:10 2016 GMT
            Not After : Jun  3 14:36:10 2024 GMT
        Subject: CN=scribe.etb2.lan
        Subject Public Key Info:
            Public Key Algorithm: rsaEncryption
                Public-Key: (1024 bit)
                Modulus:
                    00:a0:5c:2f:2f:46:1b:d4:a4:4b:e8:c0:48:bc:18:
                    20:e2:30:3a:0d:7e:11:ec:90:45:74:c8:b2:41:05:
                    50:39:27:f5:8c:61:59:b6:b4:0e:b3:88:1a:ca:18:
                    d2:9f:b0:bf:6c:25:4f:f3:1c:cb:91:82:88:33:12:
                    57:56:6e:dc:a1:41:b0:94:ef:0a:b7:98:89:76:d0:
                    c2:28:12:2e:53:56:be:62:e0:0f:98:0c:7d:88:22:
                    25:7c:2c:8a:2d:52:28:00:e7:95:71:ec:50:e0:93:
                    94:09:05:7a:77:a7:14:a4:7b:14:f4:f5:ea:60:51:
                    c7:9b:07:93:2a:62:7b:39:cd
                Exponent: 65537 (0x10001)
        X509v3 extensions:
            X509v3 Basic Constraints: 
                CA:FALSE
            X509v3 Subject Key Identifier: 
                8A:D7:89:9E:84:62:E6:56:01:68:B9:E0:F2:2B:19:17:43:F5:36:9A
            X509v3 Authority Key Identifier: 
                keyid:38:DF:46:29:38:B2:13:8B:A5:7C:80:4B:5E:AA:24:DB:25:DC:EC:EE
                DirName:/C=FR/ST=bourgogne/L=dijon/O=eole/OU=ci/CN=ACEoleCI
                serial:81:5A:FE:E5:BA:70:38:01

            X509v3 Key Usage: critical
                Digital Signature, Key Encipherment
            X509v3 Extended Key Usage: 
                TLS Web Server Authentication
    Signature Algorithm: sha256WithRSAEncryption
         59:ca:bc:1c:ba:67:35:a2:ef:f5:7a:07:13:e3:d4:f7:9d:bf:
         7b:2f:b2:22:02:51:f9:06:a3:69:ff:d3:b0:bd:f7:bd:90:77:
         3b:3c:c5:3a:d7:b7:25:2e:71:ab:eb:7a:7b:d7:fc:23:8e:cb:
         3f:87:87:5b:26:8f:9d:e8:cf:70:38:9d:49:c6:b9:a3:e3:b7:
         75:31:86:d7:71:50:c7:89:ba:b4:b4:4d:91:d7:55:f2:7c:bd:
         50:25:2e:0a:a6:c1:50:2a:2f:7b:5c:13:0d:d2:77:4e:a3:0d:
         99:7e:7b:14:0b:2f:96:9b:1d:6c:2c:a0:75:1e:ec:3d:ee:15:
         64:49
-----BEGIN CERTIFICATE-----
MIIC2TCCAkKgAwIBAgICAJ0wDQYJKoZIhvcNAQELBQAwYDELMAkGA1UEBhMCRlIx
EjAQBgNVBAgMCWJvdXJnb2duZTEOMAwGA1UEBwwFZGlqb24xDTALBgNVBAoMBGVv
bGUxCzAJBgNVBAsMAmNpMREwDwYDVQQDDAhBQ0VvbGVDSTAeFw0xNjAzMTcxNDM2
MTBaFw0yNDA2MDMxNDM2MTBaMBoxGDAWBgNVBAMMD3NjcmliZS5ldGIyLmxhbjCB
nzANBgkqhkiG9w0BAQEFAAOBjQAwgYkCgYEAoFwvL0Yb1KRL6MBIvBgg4jA6DX4R
7JBFdMiyQQVQOSf1jGFZtrQOs4gayhjSn7C/bCVP8xzLkYKIMxJXVm7coUGwlO8K
t5iJdtDCKBIuU1a+YuAPmAx9iCIlfCyKLVIoAOeVcexQ4JOUCQV6d6cUpHsU9PXq
YFHHmweTKmJ7Oc0CAwEAAaOB5zCB5DAJBgNVHRMEAjAAMB0GA1UdDgQWBBSK14me
hGLmVgFoueDyKxkXQ/U2mjCBkgYDVR0jBIGKMIGHgBQ430YpOLITi6V8gEteqiTb
Jdzs7qFkpGIwYDELMAkGA1UEBhMCRlIxEjAQBgNVBAgMCWJvdXJnb2duZTEOMAwG
A1UEBwwFZGlqb24xDTALBgNVBAoMBGVvbGUxCzAJBgNVBAsMAmNpMREwDwYDVQQD
DAhBQ0VvbGVDSYIJAIFa/uW6cDgBMA4GA1UdDwEB/wQEAwIFoDATBgNVHSUEDDAK
BggrBgEFBQcDATANBgkqhkiG9w0BAQsFAAOBgQBZyrwcumc1ou/1egcT49T3nb97
L7IiAlH5BqNp/9Owvfe9kHc7PMU617clLnGr63p71/wjjss/h4dbJo+d6M9wOJ1J
xrmj47d1MYbXcVDHibq0tE2R11XyfL1QJS4KpsFQKi97XBMN0ndOow2ZfnsUCy+W
mx1sLKB1Huw97hVkSQ==
-----END CERTIFICATE-----
