-----BEGIN RSA PRIVATE KEY-----
MIICXQIBAAKBgQDIFJnMK5a5noP1Y8KQyGN19KeLrZjYAhggquEqi0CqRyoI+yFD
DRGveTCOG6Urk/Ys0Lf/sBp/LHQaWnrkuCEEWPlIFqAo+zeN46j/3l5FSo0j7JJB
1gpeIEnOe6ok/Wi4W0AeolkIYeLCVg2t+0+twtn2iAr1Ux46AMNtB6YQ2QIDAQAB
AoGAMyCoiHbfBkHOgKdkcbDzUZIaOmQ6+X/XgImKDmAVPy3+PNtHjaXKTifO05GW
7ILb1mnjivAKZVMLvCxA2S+AJ/LmVtcjLXQe1C7jcJL/PjZoJPiFJlxckBB5zOlU
IXGkQ/f0ttO/8qMHrPS8KjwHvZidUSydE090fGX+NoaFxo0CQQD8VXtgnG2ViEZt
EdIdK/veNXQi58+325mdk9heORm/j7UC+6JyyBC541Ozrq6TjukFOLMJjpq+ninp
pnCS39G7AkEAyvzFHydTJ719pGy4t0dFj6YCDG9CS2KwURfs7QtgyY3HniVpTNPm
eYmyd/ry/WQjnhSOadSC3eCwnrGLxPokewJATM8EcEMNhF/n+BldmO2jjF8/C8T+
UJvy5al0SjIdaVcoJVFNgJzvonXVK7O3hkkRGzrIHNeguPdSEMJOMBcbMwJBAJib
VruoPf03mhke3/RysdpgbVPZ5ZZ1eKdO/IHuNvLxE61S5QqsmK6xFirb0Qkt2xVC
0RrBeS3EeiSkyLbrdLcCQQC/6araXsSQ0sPN0OcHnu0zH8SIJY+o7x0Pg/aCKNas
ENcoamTKRAjvxn4twQgYqSjCoZLnum8RsyQ7IgZC8q9R
-----END RSA PRIVATE KEY-----
Certificate:
    Data:
        Version: 3 (0x2)
        Serial Number: 169 (0xa9)
    Signature Algorithm: sha256WithRSAEncryption
        Issuer: C=FR, ST=bourgogne, L=dijon, O=eole, OU=ci, CN=ACEoleCI
        Validity
            Not Before: Mar 17 14:36:13 2016 GMT
            Not After : Jun  3 14:36:13 2024 GMT
        Subject: CN=pceleve.etb3.lan
        Subject Public Key Info:
            Public Key Algorithm: rsaEncryption
                Public-Key: (1024 bit)
                Modulus:
                    00:c8:14:99:cc:2b:96:b9:9e:83:f5:63:c2:90:c8:
                    63:75:f4:a7:8b:ad:98:d8:02:18:20:aa:e1:2a:8b:
                    40:aa:47:2a:08:fb:21:43:0d:11:af:79:30:8e:1b:
                    a5:2b:93:f6:2c:d0:b7:ff:b0:1a:7f:2c:74:1a:5a:
                    7a:e4:b8:21:04:58:f9:48:16:a0:28:fb:37:8d:e3:
                    a8:ff:de:5e:45:4a:8d:23:ec:92:41:d6:0a:5e:20:
                    49:ce:7b:aa:24:fd:68:b8:5b:40:1e:a2:59:08:61:
                    e2:c2:56:0d:ad:fb:4f:ad:c2:d9:f6:88:0a:f5:53:
                    1e:3a:00:c3:6d:07:a6:10:d9
                Exponent: 65537 (0x10001)
        X509v3 extensions:
            X509v3 Basic Constraints: 
                CA:FALSE
            X509v3 Subject Key Identifier: 
                7D:34:93:6C:3F:9C:D5:70:30:91:E1:F5:42:38:BB:80:BA:A5:BB:6B
            X509v3 Authority Key Identifier: 
                keyid:38:DF:46:29:38:B2:13:8B:A5:7C:80:4B:5E:AA:24:DB:25:DC:EC:EE
                DirName:/C=FR/ST=bourgogne/L=dijon/O=eole/OU=ci/CN=ACEoleCI
                serial:81:5A:FE:E5:BA:70:38:01

            X509v3 Key Usage: critical
                Digital Signature, Key Encipherment
            X509v3 Extended Key Usage: 
                TLS Web Server Authentication
    Signature Algorithm: sha256WithRSAEncryption
         9a:4b:f3:74:5a:17:a3:1c:3a:d1:4d:60:66:eb:c6:6b:6b:06:
         55:f8:d8:e4:96:66:d8:85:44:40:08:a0:00:be:98:89:39:47:
         81:01:4a:04:a4:c5:da:b1:4f:da:89:8c:35:d6:97:48:3e:00:
         e8:49:45:b5:00:fd:2f:70:49:e8:e6:13:b1:de:ca:89:fa:01:
         cb:82:4e:ce:e0:e5:1b:a6:f5:d9:8b:c6:de:a8:69:e5:f6:7c:
         ac:d2:7a:dc:4c:16:f5:bc:6c:3a:2a:ef:de:0d:c6:6a:5d:22:
         30:4f:b3:60:02:61:9d:6b:a7:66:c7:e2:f3:3e:45:7e:9e:08:
         ed:37
-----BEGIN CERTIFICATE-----
MIIC2jCCAkOgAwIBAgICAKkwDQYJKoZIhvcNAQELBQAwYDELMAkGA1UEBhMCRlIx
EjAQBgNVBAgMCWJvdXJnb2duZTEOMAwGA1UEBwwFZGlqb24xDTALBgNVBAoMBGVv
bGUxCzAJBgNVBAsMAmNpMREwDwYDVQQDDAhBQ0VvbGVDSTAeFw0xNjAzMTcxNDM2
MTNaFw0yNDA2MDMxNDM2MTNaMBsxGTAXBgNVBAMMEHBjZWxldmUuZXRiMy5sYW4w
gZ8wDQYJKoZIhvcNAQEBBQADgY0AMIGJAoGBAMgUmcwrlrmeg/VjwpDIY3X0p4ut
mNgCGCCq4SqLQKpHKgj7IUMNEa95MI4bpSuT9izQt/+wGn8sdBpaeuS4IQRY+UgW
oCj7N43jqP/eXkVKjSPskkHWCl4gSc57qiT9aLhbQB6iWQhh4sJWDa37T63C2faI
CvVTHjoAw20HphDZAgMBAAGjgecwgeQwCQYDVR0TBAIwADAdBgNVHQ4EFgQUfTST
bD+c1XAwkeH1Qji7gLqlu2swgZIGA1UdIwSBijCBh4AUON9GKTiyE4ulfIBLXqok
2yXc7O6hZKRiMGAxCzAJBgNVBAYTAkZSMRIwEAYDVQQIDAlib3VyZ29nbmUxDjAM
BgNVBAcMBWRpam9uMQ0wCwYDVQQKDARlb2xlMQswCQYDVQQLDAJjaTERMA8GA1UE
AwwIQUNFb2xlQ0mCCQCBWv7lunA4ATAOBgNVHQ8BAf8EBAMCBaAwEwYDVR0lBAww
CgYIKwYBBQUHAwEwDQYJKoZIhvcNAQELBQADgYEAmkvzdFoXoxw60U1gZuvGa2sG
VfjY5JZm2IVEQAigAL6YiTlHgQFKBKTF2rFP2omMNdaXSD4A6ElFtQD9L3BJ6OYT
sd7KifoBy4JOzuDlG6b12YvG3qhp5fZ8rNJ63EwW9bxsOirv3g3Gal0iME+zYAJh
nWunZsfi8z5Ffp4I7Tc=
-----END CERTIFICATE-----
