-----BEGIN RSA PRIVATE KEY-----
MIICXQIBAAKBgQDIFJnMK5a5noP1Y8KQyGN19KeLrZjYAhggquEqi0CqRyoI+yFD
DRGveTCOG6Urk/Ys0Lf/sBp/LHQaWnrkuCEEWPlIFqAo+zeN46j/3l5FSo0j7JJB
1gpeIEnOe6ok/Wi4W0AeolkIYeLCVg2t+0+twtn2iAr1Ux46AMNtB6YQ2QIDAQAB
AoGAMyCoiHbfBkHOgKdkcbDzUZIaOmQ6+X/XgImKDmAVPy3+PNtHjaXKTifO05GW
7ILb1mnjivAKZVMLvCxA2S+AJ/LmVtcjLXQe1C7jcJL/PjZoJPiFJlxckBB5zOlU
IXGkQ/f0ttO/8qMHrPS8KjwHvZidUSydE090fGX+NoaFxo0CQQD8VXtgnG2ViEZt
EdIdK/veNXQi58+325mdk9heORm/j7UC+6JyyBC541Ozrq6TjukFOLMJjpq+ninp
pnCS39G7AkEAyvzFHydTJ719pGy4t0dFj6YCDG9CS2KwURfs7QtgyY3HniVpTNPm
eYmyd/ry/WQjnhSOadSC3eCwnrGLxPokewJATM8EcEMNhF/n+BldmO2jjF8/C8T+
UJvy5al0SjIdaVcoJVFNgJzvonXVK7O3hkkRGzrIHNeguPdSEMJOMBcbMwJBAJib
VruoPf03mhke3/RysdpgbVPZ5ZZ1eKdO/IHuNvLxE61S5QqsmK6xFirb0Qkt2xVC
0RrBeS3EeiSkyLbrdLcCQQC/6araXsSQ0sPN0OcHnu0zH8SIJY+o7x0Pg/aCKNas
ENcoamTKRAjvxn4twQgYqSjCoZLnum8RsyQ7IgZC8q9R
-----END RSA PRIVATE KEY-----
Certificate:
    Data:
        Version: 3 (0x2)
        Serial Number: 171 (0xab)
    Signature Algorithm: sha256WithRSAEncryption
        Issuer: C=FR, ST=bourgogne, L=dijon, O=eole, OU=ci, CN=ACEoleCI
        Validity
            Not Before: Mar 17 14:36:13 2016 GMT
            Not After : Jun  3 14:36:13 2024 GMT
        Subject: CN=pceleve.etb3.lan
        Subject Public Key Info:
            Public Key Algorithm: rsaEncryption
                Public-Key: (1024 bit)
                Modulus:
                    00:c8:14:99:cc:2b:96:b9:9e:83:f5:63:c2:90:c8:
                    63:75:f4:a7:8b:ad:98:d8:02:18:20:aa:e1:2a:8b:
                    40:aa:47:2a:08:fb:21:43:0d:11:af:79:30:8e:1b:
                    a5:2b:93:f6:2c:d0:b7:ff:b0:1a:7f:2c:74:1a:5a:
                    7a:e4:b8:21:04:58:f9:48:16:a0:28:fb:37:8d:e3:
                    a8:ff:de:5e:45:4a:8d:23:ec:92:41:d6:0a:5e:20:
                    49:ce:7b:aa:24:fd:68:b8:5b:40:1e:a2:59:08:61:
                    e2:c2:56:0d:ad:fb:4f:ad:c2:d9:f6:88:0a:f5:53:
                    1e:3a:00:c3:6d:07:a6:10:d9
                Exponent: 65537 (0x10001)
        X509v3 extensions:
            X509v3 Basic Constraints: 
                CA:FALSE
            X509v3 Subject Key Identifier: 
                7D:34:93:6C:3F:9C:D5:70:30:91:E1:F5:42:38:BB:80:BA:A5:BB:6B
            X509v3 Authority Key Identifier: 
                keyid:38:DF:46:29:38:B2:13:8B:A5:7C:80:4B:5E:AA:24:DB:25:DC:EC:EE
                DirName:/C=FR/ST=bourgogne/L=dijon/O=eole/OU=ci/CN=ACEoleCI
                serial:81:5A:FE:E5:BA:70:38:01

            X509v3 Key Usage: critical
                Digital Signature, Key Encipherment
    Signature Algorithm: sha256WithRSAEncryption
         47:d4:02:1f:8b:a7:1f:b8:5c:5e:90:49:f8:96:fd:e8:15:da:
         eb:b8:11:88:69:15:1a:e2:33:63:52:46:da:df:dc:b9:5b:20:
         cf:ff:85:b4:ad:7a:1f:82:11:0d:4f:fa:a9:b3:fb:40:37:64:
         76:4e:b2:fa:59:ec:52:9b:4a:33:73:c8:74:16:5d:e7:ae:c0:
         e8:eb:11:92:31:b8:01:fa:e9:da:d8:88:b8:56:32:28:7c:fd:
         4c:46:62:41:2b:3a:75:bd:ac:09:2d:25:9a:8e:0b:dc:38:a0:
         ec:f4:e5:92:e9:80:90:2c:ca:b9:8c:24:73:d9:ac:08:9a:36:
         61:c4
-----BEGIN CERTIFICATE-----
MIICxTCCAi6gAwIBAgICAKswDQYJKoZIhvcNAQELBQAwYDELMAkGA1UEBhMCRlIx
EjAQBgNVBAgMCWJvdXJnb2duZTEOMAwGA1UEBwwFZGlqb24xDTALBgNVBAoMBGVv
bGUxCzAJBgNVBAsMAmNpMREwDwYDVQQDDAhBQ0VvbGVDSTAeFw0xNjAzMTcxNDM2
MTNaFw0yNDA2MDMxNDM2MTNaMBsxGTAXBgNVBAMMEHBjZWxldmUuZXRiMy5sYW4w
gZ8wDQYJKoZIhvcNAQEBBQADgY0AMIGJAoGBAMgUmcwrlrmeg/VjwpDIY3X0p4ut
mNgCGCCq4SqLQKpHKgj7IUMNEa95MI4bpSuT9izQt/+wGn8sdBpaeuS4IQRY+UgW
oCj7N43jqP/eXkVKjSPskkHWCl4gSc57qiT9aLhbQB6iWQhh4sJWDa37T63C2faI
CvVTHjoAw20HphDZAgMBAAGjgdIwgc8wCQYDVR0TBAIwADAdBgNVHQ4EFgQUfTST
bD+c1XAwkeH1Qji7gLqlu2swgZIGA1UdIwSBijCBh4AUON9GKTiyE4ulfIBLXqok
2yXc7O6hZKRiMGAxCzAJBgNVBAYTAkZSMRIwEAYDVQQIDAlib3VyZ29nbmUxDjAM
BgNVBAcMBWRpam9uMQ0wCwYDVQQKDARlb2xlMQswCQYDVQQLDAJjaTERMA8GA1UE
AwwIQUNFb2xlQ0mCCQCBWv7lunA4ATAOBgNVHQ8BAf8EBAMCBaAwDQYJKoZIhvcN
AQELBQADgYEAR9QCH4unH7hcXpBJ+Jb96BXa67gRiGkVGuIzY1JG2t/cuVsgz/+F
tK16H4IRDU/6qbP7QDdkdk6y+lnsUptKM3PIdBZd567A6OsRkjG4Afrp2tiIuFYy
KHz9TEZiQSs6db2sCS0lmo4L3Dig7PTlkumAkCzKuYwkc9msCJo2YcQ=
-----END CERTIFICATE-----
