-----BEGIN RSA PRIVATE KEY-----
MIICXgIBAAKBgQDmOsLmSlh/s2aH+Pt9GrsXJeGrTAZZFRAxsRPpcAQpRXvtN0tS
fViLtAYGGLEoNewk4PLgdiMf3bqF60Qlpvbf0fKT2XRQHSfxJjNo0yTUxA+uLLSF
m3ThbJmd8vCZ3hvN3sdiu5vo2iLjCkOtjPBvfaDiA4xV27pFUzUewQyBawIDAQAB
AoGBAN1t9rX3G1b2/M4aMgcJBpgk3v8Zh6F2GLUyUqxaCCaJpb9pRxB3bgovgvuq
E/lQo2Z01CP+e5nSb+sNc+WiyBx5dEKAz4Y6b+ElkV21xD7zLHAk3IAN3nA8KZY/
DEYqoj2rOia7VHzX6E2zf+y2mMoahA1wQDs8aJUWld/efJvBAkEA+PMfLnaAKVJk
4254Mj4AilizNsppkigusjTyWTVWIq29is7qEf/guUcAb+7Frr9wC5jvyq7rSwwP
12/LUDa9bQJBAOy/6z22639Lis8fQLkyg8+/FvaDUbPabvkP001ubwPiWXGrIj7c
sGI19gy+Xz9Z1jNMLan6H+GJQpS2UjiKqzcCQQDkbvJlyAbB5AD/UBaqw4nraIjJ
9eH5YzW2AC+A/BgVqicKf+L4sTqbyDL2grqSJsfBXIxsByWQr3i5zrNY32HhAkEA
wnKiwI5zf5rJCHLP0wwVTNTTBGc4/LJEgRWpZCh2z8bh1cVMHDtgN1nAnBjj3AFq
N7myq6/+7VuyLrhMcZobIwJAFwxYqTkCpE8MqUT1xoLazZixM2sXrpd5r1WTQuQ0
tZ//uLacBxtDGsKyNLKq/Ve33wlyDj4upK0I9V39IZs8Dg==
-----END RSA PRIVATE KEY-----
Certificate:
    Data:
        Version: 3 (0x2)
        Serial Number: 76 (0x4c)
    Signature Algorithm: sha256WithRSAEncryption
        Issuer: C=FR, ST=bourgogne, L=dijon, O=eole, OU=ci, CN=ACEoleCI
        Validity
            Not Before: Mar 17 14:35:48 2016 GMT
            Not After : Jun  3 14:35:48 2024 GMT
        Subject: CN=WindowsServerAD.ac-test.lan
        Subject Public Key Info:
            Public Key Algorithm: rsaEncryption
                Public-Key: (1024 bit)
                Modulus:
                    00:e6:3a:c2:e6:4a:58:7f:b3:66:87:f8:fb:7d:1a:
                    bb:17:25:e1:ab:4c:06:59:15:10:31:b1:13:e9:70:
                    04:29:45:7b:ed:37:4b:52:7d:58:8b:b4:06:06:18:
                    b1:28:35:ec:24:e0:f2:e0:76:23:1f:dd:ba:85:eb:
                    44:25:a6:f6:df:d1:f2:93:d9:74:50:1d:27:f1:26:
                    33:68:d3:24:d4:c4:0f:ae:2c:b4:85:9b:74:e1:6c:
                    99:9d:f2:f0:99:de:1b:cd:de:c7:62:bb:9b:e8:da:
                    22:e3:0a:43:ad:8c:f0:6f:7d:a0:e2:03:8c:55:db:
                    ba:45:53:35:1e:c1:0c:81:6b
                Exponent: 65537 (0x10001)
        X509v3 extensions:
            X509v3 Basic Constraints: 
                CA:FALSE
            X509v3 Subject Key Identifier: 
                DC:99:F9:D6:13:5E:4B:42:FD:F1:6D:94:93:72:E2:98:00:9F:EC:21
            X509v3 Authority Key Identifier: 
                keyid:38:DF:46:29:38:B2:13:8B:A5:7C:80:4B:5E:AA:24:DB:25:DC:EC:EE
                DirName:/C=FR/ST=bourgogne/L=dijon/O=eole/OU=ci/CN=ACEoleCI
                serial:81:5A:FE:E5:BA:70:38:01

            X509v3 Key Usage: critical
                Digital Signature, Key Encipherment
            X509v3 Extended Key Usage: 
                TLS Web Server Authentication
    Signature Algorithm: sha256WithRSAEncryption
         8e:99:39:48:24:e3:55:c5:9f:74:d5:28:ed:9e:d3:d3:5b:0a:
         9f:61:66:81:e0:f1:41:16:0e:93:64:80:47:0b:db:2c:94:f5:
         8c:eb:58:b4:36:6d:dd:cb:20:8d:53:04:39:43:f1:2d:1c:2a:
         9c:74:92:57:cc:53:05:d2:d3:aa:4b:72:0b:f9:52:03:dd:05:
         58:4a:3d:ca:cd:40:21:6d:e3:4b:b6:ac:36:62:71:f6:51:8e:
         35:a4:61:5c:e2:b4:26:46:47:01:5a:b7:be:4b:e7:23:e4:ad:
         f2:bf:64:73:fa:9d:40:13:46:e9:1f:fd:f9:90:9f:22:79:c5:
         e7:95
-----BEGIN CERTIFICATE-----
MIIC5DCCAk2gAwIBAgIBTDANBgkqhkiG9w0BAQsFADBgMQswCQYDVQQGEwJGUjES
MBAGA1UECAwJYm91cmdvZ25lMQ4wDAYDVQQHDAVkaWpvbjENMAsGA1UECgwEZW9s
ZTELMAkGA1UECwwCY2kxETAPBgNVBAMMCEFDRW9sZUNJMB4XDTE2MDMxNzE0MzU0
OFoXDTI0MDYwMzE0MzU0OFowJjEkMCIGA1UEAwwbV2luZG93c1NlcnZlckFELmFj
LXRlc3QubGFuMIGfMA0GCSqGSIb3DQEBAQUAA4GNADCBiQKBgQDmOsLmSlh/s2aH
+Pt9GrsXJeGrTAZZFRAxsRPpcAQpRXvtN0tSfViLtAYGGLEoNewk4PLgdiMf3bqF
60Qlpvbf0fKT2XRQHSfxJjNo0yTUxA+uLLSFm3ThbJmd8vCZ3hvN3sdiu5vo2iLj
CkOtjPBvfaDiA4xV27pFUzUewQyBawIDAQABo4HnMIHkMAkGA1UdEwQCMAAwHQYD
VR0OBBYEFNyZ+dYTXktC/fFtlJNy4pgAn+whMIGSBgNVHSMEgYowgYeAFDjfRik4
shOLpXyAS16qJNsl3OzuoWSkYjBgMQswCQYDVQQGEwJGUjESMBAGA1UECAwJYm91
cmdvZ25lMQ4wDAYDVQQHDAVkaWpvbjENMAsGA1UECgwEZW9sZTELMAkGA1UECwwC
Y2kxETAPBgNVBAMMCEFDRW9sZUNJggkAgVr+5bpwOAEwDgYDVR0PAQH/BAQDAgWg
MBMGA1UdJQQMMAoGCCsGAQUFBwMBMA0GCSqGSIb3DQEBCwUAA4GBAI6ZOUgk41XF
n3TVKO2e09NbCp9hZoHg8UEWDpNkgEcL2yyU9YzrWLQ2bd3LII1TBDlD8S0cKpx0
klfMUwXS06pLcgv5UgPdBVhKPcrNQCFt40u2rDZicfZRjjWkYVzitCZGRwFat75L
5yPkrfK/ZHP6nUATRukf/fmQnyJ5xeeV
-----END CERTIFICATE-----
