-----BEGIN RSA PRIVATE KEY-----
MIICXgIBAAKBgQDmOsLmSlh/s2aH+Pt9GrsXJeGrTAZZFRAxsRPpcAQpRXvtN0tS
fViLtAYGGLEoNewk4PLgdiMf3bqF60Qlpvbf0fKT2XRQHSfxJjNo0yTUxA+uLLSF
m3ThbJmd8vCZ3hvN3sdiu5vo2iLjCkOtjPBvfaDiA4xV27pFUzUewQyBawIDAQAB
AoGBAN1t9rX3G1b2/M4aMgcJBpgk3v8Zh6F2GLUyUqxaCCaJpb9pRxB3bgovgvuq
E/lQo2Z01CP+e5nSb+sNc+WiyBx5dEKAz4Y6b+ElkV21xD7zLHAk3IAN3nA8KZY/
DEYqoj2rOia7VHzX6E2zf+y2mMoahA1wQDs8aJUWld/efJvBAkEA+PMfLnaAKVJk
4254Mj4AilizNsppkigusjTyWTVWIq29is7qEf/guUcAb+7Frr9wC5jvyq7rSwwP
12/LUDa9bQJBAOy/6z22639Lis8fQLkyg8+/FvaDUbPabvkP001ubwPiWXGrIj7c
sGI19gy+Xz9Z1jNMLan6H+GJQpS2UjiKqzcCQQDkbvJlyAbB5AD/UBaqw4nraIjJ
9eH5YzW2AC+A/BgVqicKf+L4sTqbyDL2grqSJsfBXIxsByWQr3i5zrNY32HhAkEA
wnKiwI5zf5rJCHLP0wwVTNTTBGc4/LJEgRWpZCh2z8bh1cVMHDtgN1nAnBjj3AFq
N7myq6/+7VuyLrhMcZobIwJAFwxYqTkCpE8MqUT1xoLazZixM2sXrpd5r1WTQuQ0
tZ//uLacBxtDGsKyNLKq/Ve33wlyDj4upK0I9V39IZs8Dg==
-----END RSA PRIVATE KEY-----
Certificate:
    Data:
        Version: 3 (0x2)
        Serial Number: 77 (0x4d)
    Signature Algorithm: sha256WithRSAEncryption
        Issuer: C=FR, ST=bourgogne, L=dijon, O=eole, OU=ci, CN=ACEoleCI
        Validity
            Not Before: Mar 17 14:35:48 2016 GMT
            Not After : Jun  3 14:35:48 2024 GMT
        Subject: CN=WindowsServerAD.ac-test.lan
        Subject Public Key Info:
            Public Key Algorithm: rsaEncryption
                Public-Key: (1024 bit)
                Modulus:
                    00:e6:3a:c2:e6:4a:58:7f:b3:66:87:f8:fb:7d:1a:
                    bb:17:25:e1:ab:4c:06:59:15:10:31:b1:13:e9:70:
                    04:29:45:7b:ed:37:4b:52:7d:58:8b:b4:06:06:18:
                    b1:28:35:ec:24:e0:f2:e0:76:23:1f:dd:ba:85:eb:
                    44:25:a6:f6:df:d1:f2:93:d9:74:50:1d:27:f1:26:
                    33:68:d3:24:d4:c4:0f:ae:2c:b4:85:9b:74:e1:6c:
                    99:9d:f2:f0:99:de:1b:cd:de:c7:62:bb:9b:e8:da:
                    22:e3:0a:43:ad:8c:f0:6f:7d:a0:e2:03:8c:55:db:
                    ba:45:53:35:1e:c1:0c:81:6b
                Exponent: 65537 (0x10001)
        X509v3 extensions:
            X509v3 Basic Constraints: 
                CA:FALSE
            X509v3 Subject Key Identifier: 
                DC:99:F9:D6:13:5E:4B:42:FD:F1:6D:94:93:72:E2:98:00:9F:EC:21
            X509v3 Authority Key Identifier: 
                keyid:38:DF:46:29:38:B2:13:8B:A5:7C:80:4B:5E:AA:24:DB:25:DC:EC:EE

            X509v3 Key Usage: critical
                Digital Signature, Non Repudiation, Key Encipherment
            X509v3 Extended Key Usage: 
                TLS Web Client Authentication, E-mail Protection
    Signature Algorithm: sha256WithRSAEncryption
         6b:3f:15:bc:41:31:38:03:47:83:67:43:cd:3c:01:fc:d4:28:
         3a:1e:f1:df:28:cd:7d:fb:05:d5:94:97:c4:af:95:3f:ec:9d:
         45:7b:99:1f:0d:f3:b8:b6:bf:7f:e6:42:35:81:cf:2d:1b:79:
         39:97:1e:85:21:3a:9e:e9:c8:1b:b4:ed:bc:ac:70:8e:46:ff:
         ba:45:d4:2c:9c:bd:56:09:6c:c8:b9:2d:3a:72:6b:a7:d5:8a:
         1d:3f:e8:75:4e:95:1a:d3:33:78:07:5f:01:a6:c5:d4:e7:b5:
         44:75:eb:be:01:7c:05:44:ba:a8:39:98:7c:a0:a2:b8:ae:64:
         02:00
-----BEGIN CERTIFICATE-----
MIICeDCCAeGgAwIBAgIBTTANBgkqhkiG9w0BAQsFADBgMQswCQYDVQQGEwJGUjES
MBAGA1UECAwJYm91cmdvZ25lMQ4wDAYDVQQHDAVkaWpvbjENMAsGA1UECgwEZW9s
ZTELMAkGA1UECwwCY2kxETAPBgNVBAMMCEFDRW9sZUNJMB4XDTE2MDMxNzE0MzU0
OFoXDTI0MDYwMzE0MzU0OFowJjEkMCIGA1UEAwwbV2luZG93c1NlcnZlckFELmFj
LXRlc3QubGFuMIGfMA0GCSqGSIb3DQEBAQUAA4GNADCBiQKBgQDmOsLmSlh/s2aH
+Pt9GrsXJeGrTAZZFRAxsRPpcAQpRXvtN0tSfViLtAYGGLEoNewk4PLgdiMf3bqF
60Qlpvbf0fKT2XRQHSfxJjNo0yTUxA+uLLSFm3ThbJmd8vCZ3hvN3sdiu5vo2iLj
CkOtjPBvfaDiA4xV27pFUzUewQyBawIDAQABo3wwejAJBgNVHRMEAjAAMB0GA1Ud
DgQWBBTcmfnWE15LQv3xbZSTcuKYAJ/sITAfBgNVHSMEGDAWgBQ430YpOLITi6V8
gEteqiTbJdzs7jAOBgNVHQ8BAf8EBAMCBeAwHQYDVR0lBBYwFAYIKwYBBQUHAwIG
CCsGAQUFBwMEMA0GCSqGSIb3DQEBCwUAA4GBAGs/FbxBMTgDR4NnQ808AfzUKDoe
8d8ozX37BdWUl8SvlT/snUV7mR8N87i2v3/mQjWBzy0beTmXHoUhOp7pyBu07bys
cI5G/7pF1CycvVYJbMi5LTpya6fVih0/6HVOlRrTM3gHXwGmxdTntUR1674BfAVE
uqg5mHygoriuZAIA
-----END CERTIFICATE-----
