Certificate:
    Data:
        Version: 3 (0x2)
        Serial Number: 155 (0x9b)
    Signature Algorithm: sha256WithRSAEncryption
        Issuer: C=FR, ST=bourgogne, L=dijon, O=eole, OU=ci, CN=ACEoleCI
        Validity
            Not Before: Mar 17 14:36:10 2016 GMT
            Not After : Jun  3 14:36:10 2024 GMT
        Subject: CN=pcprofs.etb2.lan
        Subject Public Key Info:
            Public Key Algorithm: rsaEncryption
                Public-Key: (1024 bit)
                Modulus:
                    00:f8:26:d8:b3:f5:47:e1:83:3f:70:85:9e:28:79:
                    ba:b9:ba:e1:95:66:28:d3:31:af:f2:89:25:9e:46:
                    a1:e5:69:29:b1:19:38:ca:a7:8b:d3:fb:f4:15:dc:
                    47:d9:a2:9e:5e:ba:03:50:6e:8a:fd:67:a4:e9:03:
                    17:2b:18:c6:9a:79:62:f8:25:1c:5c:20:87:7d:79:
                    ad:c9:d6:89:e8:bb:ae:e8:25:a1:fb:3b:6e:17:8c:
                    e7:07:76:11:ad:bb:1b:2a:9e:13:70:6a:69:46:8a:
                    a6:cd:44:cf:2a:45:57:96:48:ec:55:ca:f5:e0:e9:
                    84:46:9d:54:41:66:4c:22:33
                Exponent: 65537 (0x10001)
        X509v3 extensions:
            X509v3 Basic Constraints: 
                CA:FALSE
            X509v3 Subject Key Identifier: 
                84:CA:CF:62:B8:23:3F:B4:C8:7B:45:44:C4:94:AE:4D:D4:D9:C1:4F
            X509v3 Authority Key Identifier: 
                keyid:38:DF:46:29:38:B2:13:8B:A5:7C:80:4B:5E:AA:24:DB:25:DC:EC:EE

            X509v3 Key Usage: critical
                Digital Signature, Non Repudiation, Key Encipherment
            X509v3 Extended Key Usage: 
                TLS Web Client Authentication, E-mail Protection
    Signature Algorithm: sha256WithRSAEncryption
         67:08:09:6f:cb:e1:7f:90:89:28:d8:14:67:fc:0b:82:88:bb:
         a9:4a:6c:ad:66:16:9f:4a:14:bf:ec:17:e2:e3:ac:84:21:9f:
         60:6a:0f:51:63:20:1b:5b:56:f2:f6:65:ba:0b:55:ac:f0:85:
         c7:cb:5f:ab:6d:4a:e8:06:9b:be:38:c1:f8:dc:c5:fb:ff:4d:
         3a:df:92:ef:cf:27:2f:d4:44:54:09:c4:68:61:d9:17:e5:c8:
         56:44:92:e9:88:7d:fb:ba:55:f6:5d:5b:1c:d4:ad:17:16:33:
         ee:66:b8:41:78:26:de:77:aa:19:99:5b:ec:9f:c3:e4:b0:dc:
         04:4d
-----BEGIN CERTIFICATE-----
MIICbjCCAdegAwIBAgICAJswDQYJKoZIhvcNAQELBQAwYDELMAkGA1UEBhMCRlIx
EjAQBgNVBAgMCWJvdXJnb2duZTEOMAwGA1UEBwwFZGlqb24xDTALBgNVBAoMBGVv
bGUxCzAJBgNVBAsMAmNpMREwDwYDVQQDDAhBQ0VvbGVDSTAeFw0xNjAzMTcxNDM2
MTBaFw0yNDA2MDMxNDM2MTBaMBsxGTAXBgNVBAMMEHBjcHJvZnMuZXRiMi5sYW4w
gZ8wDQYJKoZIhvcNAQEBBQADgY0AMIGJAoGBAPgm2LP1R+GDP3CFnih5urm64ZVm
KNMxr/KJJZ5GoeVpKbEZOMqni9P79BXcR9minl66A1Buiv1npOkDFysYxpp5Yvgl
HFwgh315rcnWiei7ruglofs7bheM5wd2Ea27GyqeE3BqaUaKps1EzypFV5ZI7FXK
9eDphEadVEFmTCIzAgMBAAGjfDB6MAkGA1UdEwQCMAAwHQYDVR0OBBYEFITKz2K4
Iz+0yHtFRMSUrk3U2cFPMB8GA1UdIwQYMBaAFDjfRik4shOLpXyAS16qJNsl3Ozu
MA4GA1UdDwEB/wQEAwIF4DAdBgNVHSUEFjAUBggrBgEFBQcDAgYIKwYBBQUHAwQw
DQYJKoZIhvcNAQELBQADgYEAZwgJb8vhf5CJKNgUZ/wLgoi7qUpsrWYWn0oUv+wX
4uOshCGfYGoPUWMgG1tW8vZlugtVrPCFx8tfq21K6AabvjjB+NzF+/9NOt+S788n
L9REVAnEaGHZF+XIVkSS6Yh9+7pV9l1bHNStFxYz7ma4QXgm3neqGZlb7J/D5LDc
BE0=
-----END CERTIFICATE-----
