Certificate:
    Data:
        Version: 3 (0x2)
        Serial Number: 154 (0x9a)
    Signature Algorithm: sha256WithRSAEncryption
        Issuer: C=FR, ST=bourgogne, L=dijon, O=eole, OU=ci, CN=ACEoleCI
        Validity
            Not Before: Mar 17 14:36:10 2016 GMT
            Not After : Jun  3 14:36:10 2024 GMT
        Subject: CN=pcprofs.etb2.lan
        Subject Public Key Info:
            Public Key Algorithm: rsaEncryption
                Public-Key: (1024 bit)
                Modulus:
                    00:f8:26:d8:b3:f5:47:e1:83:3f:70:85:9e:28:79:
                    ba:b9:ba:e1:95:66:28:d3:31:af:f2:89:25:9e:46:
                    a1:e5:69:29:b1:19:38:ca:a7:8b:d3:fb:f4:15:dc:
                    47:d9:a2:9e:5e:ba:03:50:6e:8a:fd:67:a4:e9:03:
                    17:2b:18:c6:9a:79:62:f8:25:1c:5c:20:87:7d:79:
                    ad:c9:d6:89:e8:bb:ae:e8:25:a1:fb:3b:6e:17:8c:
                    e7:07:76:11:ad:bb:1b:2a:9e:13:70:6a:69:46:8a:
                    a6:cd:44:cf:2a:45:57:96:48:ec:55:ca:f5:e0:e9:
                    84:46:9d:54:41:66:4c:22:33
                Exponent: 65537 (0x10001)
        X509v3 extensions:
            X509v3 Basic Constraints: 
                CA:FALSE
            X509v3 Subject Key Identifier: 
                84:CA:CF:62:B8:23:3F:B4:C8:7B:45:44:C4:94:AE:4D:D4:D9:C1:4F
            X509v3 Authority Key Identifier: 
                keyid:38:DF:46:29:38:B2:13:8B:A5:7C:80:4B:5E:AA:24:DB:25:DC:EC:EE
                DirName:/C=FR/ST=bourgogne/L=dijon/O=eole/OU=ci/CN=ACEoleCI
                serial:81:5A:FE:E5:BA:70:38:01

            X509v3 Key Usage: critical
                Digital Signature, Key Encipherment
            X509v3 Extended Key Usage: 
                TLS Web Server Authentication
    Signature Algorithm: sha256WithRSAEncryption
         6c:d1:20:27:4d:5f:04:d8:84:97:f0:34:d0:3b:94:de:76:e0:
         29:2c:57:ef:d5:16:72:67:f0:f7:2b:eb:f1:74:c2:0a:18:0d:
         28:a8:f6:12:83:44:96:cd:d9:f9:54:c7:87:54:34:12:30:24:
         ec:d4:f8:96:46:3d:34:cf:0a:33:b7:c1:ee:c4:23:bc:1b:08:
         18:e6:3b:1f:53:d2:b7:19:e6:41:6a:28:9a:c9:5c:f2:4e:09:
         09:c0:7c:6f:3a:70:0e:7d:9b:3e:2d:22:f6:93:eb:4f:a7:ba:
         9e:bc:2e:c0:fc:ae:ef:23:f1:df:e3:df:e3:15:75:13:21:d0:
         2f:68
-----BEGIN CERTIFICATE-----
MIIC2jCCAkOgAwIBAgICAJowDQYJKoZIhvcNAQELBQAwYDELMAkGA1UEBhMCRlIx
EjAQBgNVBAgMCWJvdXJnb2duZTEOMAwGA1UEBwwFZGlqb24xDTALBgNVBAoMBGVv
bGUxCzAJBgNVBAsMAmNpMREwDwYDVQQDDAhBQ0VvbGVDSTAeFw0xNjAzMTcxNDM2
MTBaFw0yNDA2MDMxNDM2MTBaMBsxGTAXBgNVBAMMEHBjcHJvZnMuZXRiMi5sYW4w
gZ8wDQYJKoZIhvcNAQEBBQADgY0AMIGJAoGBAPgm2LP1R+GDP3CFnih5urm64ZVm
KNMxr/KJJZ5GoeVpKbEZOMqni9P79BXcR9minl66A1Buiv1npOkDFysYxpp5Yvgl
HFwgh315rcnWiei7ruglofs7bheM5wd2Ea27GyqeE3BqaUaKps1EzypFV5ZI7FXK
9eDphEadVEFmTCIzAgMBAAGjgecwgeQwCQYDVR0TBAIwADAdBgNVHQ4EFgQUhMrP
YrgjP7TIe0VExJSuTdTZwU8wgZIGA1UdIwSBijCBh4AUON9GKTiyE4ulfIBLXqok
2yXc7O6hZKRiMGAxCzAJBgNVBAYTAkZSMRIwEAYDVQQIDAlib3VyZ29nbmUxDjAM
BgNVBAcMBWRpam9uMQ0wCwYDVQQKDARlb2xlMQswCQYDVQQLDAJjaTERMA8GA1UE
AwwIQUNFb2xlQ0mCCQCBWv7lunA4ATAOBgNVHQ8BAf8EBAMCBaAwEwYDVR0lBAww
CgYIKwYBBQUHAwEwDQYJKoZIhvcNAQELBQADgYEAbNEgJ01fBNiEl/A00DuU3nbg
KSxX79UWcmfw9yvr8XTCChgNKKj2EoNEls3Z+VTHh1Q0EjAk7NT4lkY9NM8KM7fB
7sQjvBsIGOY7H1PStxnmQWoomslc8k4JCcB8bzpwDn2bPi0i9pPrT6e6nrwuwPyu
7yPx3+Pf4xV1EyHQL2g=
-----END CERTIFICATE-----
