Certificate:
    Data:
        Version: 3 (0x2)
        Serial Number: 137 (0x89)
    Signature Algorithm: sha256WithRSAEncryption
        Issuer: C=FR, ST=bourgogne, L=dijon, O=eole, OU=ci, CN=ACEoleCI
        Validity
            Not Before: Mar 17 14:36:06 2016 GMT
            Not After : Jun  3 14:36:06 2024 GMT
        Subject: CN=eolecitestsadmin.etb2.lan
        Subject Public Key Info:
            Public Key Algorithm: rsaEncryption
                Public-Key: (1024 bit)
                Modulus:
                    00:b9:0e:18:e3:cf:ed:2a:d6:1a:fc:59:bf:12:ce:
                    fa:00:ad:de:72:ff:25:2a:ea:a1:4f:c0:55:36:0b:
                    51:7f:f6:62:8d:e3:d8:02:52:5e:e5:4a:58:d8:5d:
                    d1:31:7d:e3:37:af:3c:dd:a3:fa:3e:1b:c2:e8:7e:
                    b4:5c:78:c0:27:a0:28:15:20:3f:bd:28:47:85:17:
                    fe:b1:b7:ea:17:5a:ba:5f:c8:b5:21:90:5a:12:58:
                    f8:0c:05:4a:23:df:f8:29:dc:28:b7:a2:6b:a5:90:
                    22:1c:60:59:8c:c2:99:82:04:9f:2d:94:3e:c5:44:
                    c1:70:e6:2a:4a:e7:76:e2:f1
                Exponent: 65537 (0x10001)
        X509v3 extensions:
            X509v3 Basic Constraints: 
                CA:FALSE
            X509v3 Subject Key Identifier: 
                2F:36:A1:49:1A:CA:35:29:63:27:75:1F:26:61:02:48:5A:2D:58:6E
            X509v3 Authority Key Identifier: 
                keyid:38:DF:46:29:38:B2:13:8B:A5:7C:80:4B:5E:AA:24:DB:25:DC:EC:EE

            X509v3 Key Usage: critical
                Digital Signature, Non Repudiation, Key Encipherment
            X509v3 Extended Key Usage: 
                TLS Web Client Authentication, E-mail Protection
    Signature Algorithm: sha256WithRSAEncryption
         9d:2a:c9:52:38:57:a3:70:11:17:3f:79:88:b3:a9:d4:5e:32:
         fc:a8:03:5a:50:f6:29:6b:98:cd:92:20:6a:c6:01:a3:3f:a4:
         27:c4:4e:25:92:65:80:72:05:ec:f1:85:be:33:cd:ce:46:f9:
         62:d0:d0:66:96:92:97:58:d0:3a:0e:83:f8:98:fa:77:aa:30:
         92:88:48:81:25:40:86:5e:03:b8:0d:bf:23:3a:92:f7:e1:f4:
         ff:fd:07:58:a0:96:c5:66:a9:bf:f8:b8:57:64:eb:64:23:9a:
         2f:69:f8:a9:db:97:cb:6d:51:b6:09:84:35:40:38:da:a9:2b:
         0b:ff
-----BEGIN CERTIFICATE-----
MIICdzCCAeCgAwIBAgICAIkwDQYJKoZIhvcNAQELBQAwYDELMAkGA1UEBhMCRlIx
EjAQBgNVBAgMCWJvdXJnb2duZTEOMAwGA1UEBwwFZGlqb24xDTALBgNVBAoMBGVv
bGUxCzAJBgNVBAsMAmNpMREwDwYDVQQDDAhBQ0VvbGVDSTAeFw0xNjAzMTcxNDM2
MDZaFw0yNDA2MDMxNDM2MDZaMCQxIjAgBgNVBAMMGWVvbGVjaXRlc3RzYWRtaW4u
ZXRiMi5sYW4wgZ8wDQYJKoZIhvcNAQEBBQADgY0AMIGJAoGBALkOGOPP7SrWGvxZ
vxLO+gCt3nL/JSrqoU/AVTYLUX/2Yo3j2AJSXuVKWNhd0TF94zevPN2j+j4bwuh+
tFx4wCegKBUgP70oR4UX/rG36hdaul/ItSGQWhJY+AwFSiPf+CncKLeia6WQIhxg
WYzCmYIEny2UPsVEwXDmKkrnduLxAgMBAAGjfDB6MAkGA1UdEwQCMAAwHQYDVR0O
BBYEFC82oUkayjUpYyd1HyZhAkhaLVhuMB8GA1UdIwQYMBaAFDjfRik4shOLpXyA
S16qJNsl3OzuMA4GA1UdDwEB/wQEAwIF4DAdBgNVHSUEFjAUBggrBgEFBQcDAgYI
KwYBBQUHAwQwDQYJKoZIhvcNAQELBQADgYEAnSrJUjhXo3ARFz95iLOp1F4y/KgD
WlD2KWuYzZIgasYBoz+kJ8ROJZJlgHIF7PGFvjPNzkb5YtDQZpaSl1jQOg6D+Jj6
d6owkohIgSVAhl4DuA2/IzqS9+H0//0HWKCWxWapv/i4V2TrZCOaL2n4qduXy21R
tgmENUA42qkrC/8=
-----END CERTIFICATE-----
