Certificate:
    Data:
        Version: 3 (0x2)
        Serial Number: 138 (0x8a)
    Signature Algorithm: sha256WithRSAEncryption
        Issuer: C=FR, ST=bourgogne, L=dijon, O=eole, OU=ci, CN=ACEoleCI
        Validity
            Not Before: Mar 17 14:36:06 2016 GMT
            Not After : Jun  3 14:36:06 2024 GMT
        Subject: CN=eolecitestsadmin.etb2.lan
        Subject Public Key Info:
            Public Key Algorithm: rsaEncryption
                Public-Key: (1024 bit)
                Modulus:
                    00:b9:0e:18:e3:cf:ed:2a:d6:1a:fc:59:bf:12:ce:
                    fa:00:ad:de:72:ff:25:2a:ea:a1:4f:c0:55:36:0b:
                    51:7f:f6:62:8d:e3:d8:02:52:5e:e5:4a:58:d8:5d:
                    d1:31:7d:e3:37:af:3c:dd:a3:fa:3e:1b:c2:e8:7e:
                    b4:5c:78:c0:27:a0:28:15:20:3f:bd:28:47:85:17:
                    fe:b1:b7:ea:17:5a:ba:5f:c8:b5:21:90:5a:12:58:
                    f8:0c:05:4a:23:df:f8:29:dc:28:b7:a2:6b:a5:90:
                    22:1c:60:59:8c:c2:99:82:04:9f:2d:94:3e:c5:44:
                    c1:70:e6:2a:4a:e7:76:e2:f1
                Exponent: 65537 (0x10001)
        X509v3 extensions:
            X509v3 Basic Constraints: 
                CA:FALSE
            X509v3 Subject Key Identifier: 
                2F:36:A1:49:1A:CA:35:29:63:27:75:1F:26:61:02:48:5A:2D:58:6E
            X509v3 Authority Key Identifier: 
                keyid:38:DF:46:29:38:B2:13:8B:A5:7C:80:4B:5E:AA:24:DB:25:DC:EC:EE
                DirName:/C=FR/ST=bourgogne/L=dijon/O=eole/OU=ci/CN=ACEoleCI
                serial:81:5A:FE:E5:BA:70:38:01

            X509v3 Key Usage: critical
                Digital Signature, Key Encipherment
    Signature Algorithm: sha256WithRSAEncryption
         1e:3b:b9:a3:68:c3:e0:0f:04:e2:fb:8d:de:6c:aa:2c:c2:a2:
         b3:59:36:07:fd:df:45:a7:56:c3:fd:90:79:8d:9e:84:80:12:
         79:ed:c4:4e:6e:f3:da:69:6c:21:f1:96:d2:b3:f5:4d:c7:6a:
         70:45:28:58:a3:2c:46:c4:07:f0:2e:d0:b7:0f:66:53:99:e8:
         ec:d9:2e:c0:87:af:db:01:29:30:c2:28:d6:c2:e8:29:cf:fd:
         84:6c:1a:37:c7:6f:4b:88:19:41:b5:97:dc:87:c3:43:51:5c:
         9b:6f:3f:b3:12:23:fa:43:dc:8e:0f:43:c4:42:2d:4d:88:4b:
         f9:2b
-----BEGIN CERTIFICATE-----
MIICzjCCAjegAwIBAgICAIowDQYJKoZIhvcNAQELBQAwYDELMAkGA1UEBhMCRlIx
EjAQBgNVBAgMCWJvdXJnb2duZTEOMAwGA1UEBwwFZGlqb24xDTALBgNVBAoMBGVv
bGUxCzAJBgNVBAsMAmNpMREwDwYDVQQDDAhBQ0VvbGVDSTAeFw0xNjAzMTcxNDM2
MDZaFw0yNDA2MDMxNDM2MDZaMCQxIjAgBgNVBAMMGWVvbGVjaXRlc3RzYWRtaW4u
ZXRiMi5sYW4wgZ8wDQYJKoZIhvcNAQEBBQADgY0AMIGJAoGBALkOGOPP7SrWGvxZ
vxLO+gCt3nL/JSrqoU/AVTYLUX/2Yo3j2AJSXuVKWNhd0TF94zevPN2j+j4bwuh+
tFx4wCegKBUgP70oR4UX/rG36hdaul/ItSGQWhJY+AwFSiPf+CncKLeia6WQIhxg
WYzCmYIEny2UPsVEwXDmKkrnduLxAgMBAAGjgdIwgc8wCQYDVR0TBAIwADAdBgNV
HQ4EFgQULzahSRrKNSljJ3UfJmECSFotWG4wgZIGA1UdIwSBijCBh4AUON9GKTiy
E4ulfIBLXqok2yXc7O6hZKRiMGAxCzAJBgNVBAYTAkZSMRIwEAYDVQQIDAlib3Vy
Z29nbmUxDjAMBgNVBAcMBWRpam9uMQ0wCwYDVQQKDARlb2xlMQswCQYDVQQLDAJj
aTERMA8GA1UEAwwIQUNFb2xlQ0mCCQCBWv7lunA4ATAOBgNVHQ8BAf8EBAMCBaAw
DQYJKoZIhvcNAQELBQADgYEAHju5o2jD4A8E4vuN3myqLMKis1k2B/3fRadWw/2Q
eY2ehIASee3ETm7z2mlsIfGW0rP1TcdqcEUoWKMsRsQH8C7Qtw9mU5no7NkuwIev
2wEpMMIo1sLoKc/9hGwaN8dvS4gZQbWX3IfDQ1Fcm28/sxIj+kPcjg9DxEItTYhL
+Ss=
-----END CERTIFICATE-----
