-----BEGIN RSA PRIVATE KEY-----
MIICXQIBAAKBgQC5Dhjjz+0q1hr8Wb8SzvoArd5y/yUq6qFPwFU2C1F/9mKN49gC
Ul7lSljYXdExfeM3rzzdo/o+G8LofrRceMAnoCgVID+9KEeFF/6xt+oXWrpfyLUh
kFoSWPgMBUoj3/gp3Ci3omulkCIcYFmMwpmCBJ8tlD7FRMFw5ipK53bi8QIDAQAB
AoGBAJzDwnYKiGFHayjnZiQqzkKRB+bnGbdXeDu1NPpJcEs0j5yfrTeaS+V1q/nu
z+5bNIbRnoAsDytaHS0TWPsVF8GHBs+WDlIJTJ2Y0yr8IE2sPW0kDmpwXmFXaVmZ
yGSO3GOnIbfI6I1YhrkIKpPHoi3CkQvEEqa62V6eEgY5ZHshAkEA8S2ORNDBe7Md
03tLwmYOwoWrcyqSykDcYe6TzabtAnS6xujAt6tgRCLF/Gc/a9hUJJE0/0AZoefl
y01bGThYTQJBAMRtj+Zx/5Ovlh6BQnTqPDyPOTg+hv7wyCgkZzAYAyjfhlf8Hx0j
yWHHru3SGSrwoWFYuZRrzXvpvXX+g3cshzUCQA0xYcPv63WZ0brc1sMWlB4d88gD
/y2jKKsOwvUP+Y0V15XD667gaA6yHER3XWfH2Kp7avu/hOdvaQma/K2/gE0CQQCp
wLmUgL5LpnnIoRKKsYcfGvNrPPYzSmjf8B3Q/V91qj6SuQs2hp/ZxdTSKDih2FTP
KPswXj21sZmPaEW67xtlAkB5v+5GAd/qd8btXYXzC10b8eJtNHDMRwYTbA8qzb5m
EAF/NMgqIeqKYmxUOBfhSwwtV37Hmw8xfgI7dMr2ReD4
-----END RSA PRIVATE KEY-----
Certificate:
    Data:
        Version: 3 (0x2)
        Serial Number: 136 (0x88)
    Signature Algorithm: sha256WithRSAEncryption
        Issuer: C=FR, ST=bourgogne, L=dijon, O=eole, OU=ci, CN=ACEoleCI
        Validity
            Not Before: Mar 17 14:36:06 2016 GMT
            Not After : Jun  3 14:36:06 2024 GMT
        Subject: CN=eolecitestsadmin.etb2.lan
        Subject Public Key Info:
            Public Key Algorithm: rsaEncryption
                Public-Key: (1024 bit)
                Modulus:
                    00:b9:0e:18:e3:cf:ed:2a:d6:1a:fc:59:bf:12:ce:
                    fa:00:ad:de:72:ff:25:2a:ea:a1:4f:c0:55:36:0b:
                    51:7f:f6:62:8d:e3:d8:02:52:5e:e5:4a:58:d8:5d:
                    d1:31:7d:e3:37:af:3c:dd:a3:fa:3e:1b:c2:e8:7e:
                    b4:5c:78:c0:27:a0:28:15:20:3f:bd:28:47:85:17:
                    fe:b1:b7:ea:17:5a:ba:5f:c8:b5:21:90:5a:12:58:
                    f8:0c:05:4a:23:df:f8:29:dc:28:b7:a2:6b:a5:90:
                    22:1c:60:59:8c:c2:99:82:04:9f:2d:94:3e:c5:44:
                    c1:70:e6:2a:4a:e7:76:e2:f1
                Exponent: 65537 (0x10001)
        X509v3 extensions:
            X509v3 Basic Constraints: 
                CA:FALSE
            X509v3 Subject Key Identifier: 
                2F:36:A1:49:1A:CA:35:29:63:27:75:1F:26:61:02:48:5A:2D:58:6E
            X509v3 Authority Key Identifier: 
                keyid:38:DF:46:29:38:B2:13:8B:A5:7C:80:4B:5E:AA:24:DB:25:DC:EC:EE
                DirName:/C=FR/ST=bourgogne/L=dijon/O=eole/OU=ci/CN=ACEoleCI
                serial:81:5A:FE:E5:BA:70:38:01

            X509v3 Key Usage: critical
                Digital Signature, Key Encipherment
            X509v3 Extended Key Usage: 
                TLS Web Server Authentication
    Signature Algorithm: sha256WithRSAEncryption
         8f:48:b6:95:ee:1f:9d:ea:15:9c:08:38:33:c8:85:f6:c5:87:
         b4:69:e2:04:16:48:87:d1:e0:d6:10:a9:32:76:dd:d9:b7:be:
         6b:11:3c:cd:e0:3a:5b:e0:ba:0c:7f:5e:89:79:29:97:5d:9f:
         e4:7b:87:3f:62:f8:1f:15:e3:bd:3c:c6:1a:cd:21:45:7d:79:
         ed:91:ab:e5:45:8e:be:80:9e:ea:03:53:a5:2b:4f:1d:ec:c6:
         ec:17:71:a4:e7:f8:6f:5d:aa:85:af:dd:71:97:79:51:fe:79:
         ba:37:7e:cb:2e:b4:63:fa:ed:ce:c1:3f:73:12:1d:d0:6a:03:
         b5:23
-----BEGIN CERTIFICATE-----
MIIC4zCCAkygAwIBAgICAIgwDQYJKoZIhvcNAQELBQAwYDELMAkGA1UEBhMCRlIx
EjAQBgNVBAgMCWJvdXJnb2duZTEOMAwGA1UEBwwFZGlqb24xDTALBgNVBAoMBGVv
bGUxCzAJBgNVBAsMAmNpMREwDwYDVQQDDAhBQ0VvbGVDSTAeFw0xNjAzMTcxNDM2
MDZaFw0yNDA2MDMxNDM2MDZaMCQxIjAgBgNVBAMMGWVvbGVjaXRlc3RzYWRtaW4u
ZXRiMi5sYW4wgZ8wDQYJKoZIhvcNAQEBBQADgY0AMIGJAoGBALkOGOPP7SrWGvxZ
vxLO+gCt3nL/JSrqoU/AVTYLUX/2Yo3j2AJSXuVKWNhd0TF94zevPN2j+j4bwuh+
tFx4wCegKBUgP70oR4UX/rG36hdaul/ItSGQWhJY+AwFSiPf+CncKLeia6WQIhxg
WYzCmYIEny2UPsVEwXDmKkrnduLxAgMBAAGjgecwgeQwCQYDVR0TBAIwADAdBgNV
HQ4EFgQULzahSRrKNSljJ3UfJmECSFotWG4wgZIGA1UdIwSBijCBh4AUON9GKTiy
E4ulfIBLXqok2yXc7O6hZKRiMGAxCzAJBgNVBAYTAkZSMRIwEAYDVQQIDAlib3Vy
Z29nbmUxDjAMBgNVBAcMBWRpam9uMQ0wCwYDVQQKDARlb2xlMQswCQYDVQQLDAJj
aTERMA8GA1UEAwwIQUNFb2xlQ0mCCQCBWv7lunA4ATAOBgNVHQ8BAf8EBAMCBaAw
EwYDVR0lBAwwCgYIKwYBBQUHAwEwDQYJKoZIhvcNAQELBQADgYEAj0i2le4fneoV
nAg4M8iF9sWHtGniBBZIh9Hg1hCpMnbd2be+axE8zeA6W+C6DH9eiXkpl12f5HuH
P2L4HxXjvTzGGs0hRX157ZGr5UWOvoCe6gNTpStPHezG7BdxpOf4b12qha/dcZd5
Uf55ujd+yy60Y/rtzsE/cxId0GoDtSM=
-----END CERTIFICATE-----
