-----BEGIN RSA PRIVATE KEY-----
MIICXQIBAAKBgQDHPJvoK/diy07q63NyhhUcQbxYhc36Rke0czR6PFf9PlO3TTwm
jmlWxjcUOtFGFNUjZXTgOOhKINtUU3Ufdz3Yb0Sb9D9oUg9f8mgRSb0hBp9mi0tg
b/dqap6YMQ8sQVJB3tKgKz6E9rVYBzr/yBPmcoRHqSHNxfg8GPCgoEFTZwIDAQAB
AoGBAJzQ0KnSCTpCaZAv2ENY077U4qkOUAxgSsn2L2TSoDLcXsoUyXZTewfopauP
i+5MMWJV1cMyJ2tJJzjdI3+rvAl77oVaaZRfDWoiHEJFqYd3iUOD6hUOgw33h6gF
of3kUvcRSEXy+dsWty80lSDhalU50ZfM08jknf0lWJU5b4gRAkEA/LUwSZJQKnLt
aoGmjxAj0T6ly06NbztZNJDfzk7fM25lPHHTQ50TIHWJBYfFGw8OmTArkcs6J1St
r/r/h9HMyQJBAMnVFodmfloiXqHQcwcLoqznuRioBM1odI4aEfMG4BzUPJ11Tkz1
aUcwJCagkQWwhpN96zwKbDZjqlgoEvaspq8CQBV5TBYkYb2JsJUJWV70zyZbvXju
PuSB1Y269dmxKBRVwDKHtZ0cPuDWPAOFSwGGoQXxavJjo5huAKhgmtAuyskCQDFV
T3trFwlLC1x8ChG3y1x+C2U2dG4M0SiGwMppbNA/JE3MhYYUGlaXMs7qQmhknJBi
n+P+HDMzK0j/CpuW2esCQQDW9UysbkKeyvuoQBNId46/gGqjG3Tv9f68hP3/rrtX
uZVlBfclYy8L7VDPInVeV95csBt2o2+jWH5TVSs46s63
-----END RSA PRIVATE KEY-----
Certificate:
    Data:
        Version: 3 (0x2)
        Serial Number: 48 (0x30)
    Signature Algorithm: sha256WithRSAEncryption
        Issuer: C=FR, ST=bourgogne, L=dijon, O=eole, OU=ci, CN=ACEoleCI
        Validity
            Not Before: Mar 17 14:35:41 2016 GMT
            Not After : Jun  3 14:35:41 2024 GMT
        Subject: CN=horus.ac-test.lan
        Subject Public Key Info:
            Public Key Algorithm: rsaEncryption
                Public-Key: (1024 bit)
                Modulus:
                    00:c7:3c:9b:e8:2b:f7:62:cb:4e:ea:eb:73:72:86:
                    15:1c:41:bc:58:85:cd:fa:46:47:b4:73:34:7a:3c:
                    57:fd:3e:53:b7:4d:3c:26:8e:69:56:c6:37:14:3a:
                    d1:46:14:d5:23:65:74:e0:38:e8:4a:20:db:54:53:
                    75:1f:77:3d:d8:6f:44:9b:f4:3f:68:52:0f:5f:f2:
                    68:11:49:bd:21:06:9f:66:8b:4b:60:6f:f7:6a:6a:
                    9e:98:31:0f:2c:41:52:41:de:d2:a0:2b:3e:84:f6:
                    b5:58:07:3a:ff:c8:13:e6:72:84:47:a9:21:cd:c5:
                    f8:3c:18:f0:a0:a0:41:53:67
                Exponent: 65537 (0x10001)
        X509v3 extensions:
            X509v3 Basic Constraints: 
                CA:FALSE
            X509v3 Subject Key Identifier: 
                2C:08:09:F9:1A:66:21:A8:81:4C:C3:88:80:D7:A0:EE:0C:67:F0:2D
            X509v3 Authority Key Identifier: 
                keyid:38:DF:46:29:38:B2:13:8B:A5:7C:80:4B:5E:AA:24:DB:25:DC:EC:EE
                DirName:/C=FR/ST=bourgogne/L=dijon/O=eole/OU=ci/CN=ACEoleCI
                serial:81:5A:FE:E5:BA:70:38:01

            X509v3 Key Usage: critical
                Digital Signature, Key Encipherment
    Signature Algorithm: sha256WithRSAEncryption
         53:23:29:8f:6f:65:63:0b:e9:19:78:a3:5f:20:47:96:a6:89:
         d4:e9:12:8b:e9:5b:a8:6a:20:f8:a0:2b:1f:94:65:04:59:52:
         72:59:b1:9a:3b:0a:b0:35:1f:2a:77:03:1c:84:12:53:b1:88:
         db:ee:d4:9c:e5:67:20:c8:f6:34:b2:ee:00:b9:7d:d2:57:0f:
         31:21:ed:1f:a9:73:55:e1:0b:01:36:b0:2e:e4:51:aa:d2:44:
         23:bd:fd:64:e6:62:46:1e:15:85:61:34:0a:3c:d8:ef:f2:fd:
         7e:c0:04:28:ef:fe:e7:14:25:bd:07:85:2d:eb:7f:45:ed:74:
         78:d8
-----BEGIN CERTIFICATE-----
MIICxTCCAi6gAwIBAgIBMDANBgkqhkiG9w0BAQsFADBgMQswCQYDVQQGEwJGUjES
MBAGA1UECAwJYm91cmdvZ25lMQ4wDAYDVQQHDAVkaWpvbjENMAsGA1UECgwEZW9s
ZTELMAkGA1UECwwCY2kxETAPBgNVBAMMCEFDRW9sZUNJMB4XDTE2MDMxNzE0MzU0
MVoXDTI0MDYwMzE0MzU0MVowHDEaMBgGA1UEAwwRaG9ydXMuYWMtdGVzdC5sYW4w
gZ8wDQYJKoZIhvcNAQEBBQADgY0AMIGJAoGBAMc8m+gr92LLTurrc3KGFRxBvFiF
zfpGR7RzNHo8V/0+U7dNPCaOaVbGNxQ60UYU1SNldOA46Eog21RTdR93PdhvRJv0
P2hSD1/yaBFJvSEGn2aLS2Bv92pqnpgxDyxBUkHe0qArPoT2tVgHOv/IE+ZyhEep
Ic3F+DwY8KCgQVNnAgMBAAGjgdIwgc8wCQYDVR0TBAIwADAdBgNVHQ4EFgQULAgJ
+RpmIaiBTMOIgNeg7gxn8C0wgZIGA1UdIwSBijCBh4AUON9GKTiyE4ulfIBLXqok
2yXc7O6hZKRiMGAxCzAJBgNVBAYTAkZSMRIwEAYDVQQIDAlib3VyZ29nbmUxDjAM
BgNVBAcMBWRpam9uMQ0wCwYDVQQKDARlb2xlMQswCQYDVQQLDAJjaTERMA8GA1UE
AwwIQUNFb2xlQ0mCCQCBWv7lunA4ATAOBgNVHQ8BAf8EBAMCBaAwDQYJKoZIhvcN
AQELBQADgYEAUyMpj29lYwvpGXijXyBHlqaJ1OkSi+lbqGog+KArH5RlBFlSclmx
mjsKsDUfKncDHIQSU7GI2+7UnOVnIMj2NLLuALl90lcPMSHtH6lzVeELATawLuRR
qtJEI739ZOZiRh4VhWE0CjzY7/L9fsAEKO/+5xQlvQeFLet/Re10eNg=
-----END CERTIFICATE-----
