Certificate:
    Data:
        Version: 3 (0x2)
        Serial Number: 46 (0x2e)
    Signature Algorithm: sha256WithRSAEncryption
        Issuer: C=FR, ST=bourgogne, L=dijon, O=eole, OU=ci, CN=ACEoleCI
        Validity
            Not Before: Mar 17 14:35:41 2016 GMT
            Not After : Jun  3 14:35:41 2024 GMT
        Subject: CN=horus.ac-test.lan
        Subject Public Key Info:
            Public Key Algorithm: rsaEncryption
                Public-Key: (1024 bit)
                Modulus:
                    00:c7:3c:9b:e8:2b:f7:62:cb:4e:ea:eb:73:72:86:
                    15:1c:41:bc:58:85:cd:fa:46:47:b4:73:34:7a:3c:
                    57:fd:3e:53:b7:4d:3c:26:8e:69:56:c6:37:14:3a:
                    d1:46:14:d5:23:65:74:e0:38:e8:4a:20:db:54:53:
                    75:1f:77:3d:d8:6f:44:9b:f4:3f:68:52:0f:5f:f2:
                    68:11:49:bd:21:06:9f:66:8b:4b:60:6f:f7:6a:6a:
                    9e:98:31:0f:2c:41:52:41:de:d2:a0:2b:3e:84:f6:
                    b5:58:07:3a:ff:c8:13:e6:72:84:47:a9:21:cd:c5:
                    f8:3c:18:f0:a0:a0:41:53:67
                Exponent: 65537 (0x10001)
        X509v3 extensions:
            X509v3 Basic Constraints: 
                CA:FALSE
            X509v3 Subject Key Identifier: 
                2C:08:09:F9:1A:66:21:A8:81:4C:C3:88:80:D7:A0:EE:0C:67:F0:2D
            X509v3 Authority Key Identifier: 
                keyid:38:DF:46:29:38:B2:13:8B:A5:7C:80:4B:5E:AA:24:DB:25:DC:EC:EE
                DirName:/C=FR/ST=bourgogne/L=dijon/O=eole/OU=ci/CN=ACEoleCI
                serial:81:5A:FE:E5:BA:70:38:01

            X509v3 Key Usage: critical
                Digital Signature, Key Encipherment
            X509v3 Extended Key Usage: 
                TLS Web Server Authentication
    Signature Algorithm: sha256WithRSAEncryption
         30:fe:40:84:dc:7f:63:2a:0b:e2:0a:0e:c4:c2:d3:45:3c:09:
         f3:9a:6d:20:a9:22:2d:ab:dd:d5:a6:d9:26:45:5a:3a:cd:82:
         4f:1e:86:a0:57:99:ac:2f:6d:af:34:9b:b3:a5:68:34:a5:b4:
         4f:ab:96:13:61:8f:13:8f:94:49:6c:e7:29:55:97:34:cf:62:
         be:b0:26:b1:35:87:49:91:55:42:6f:55:ef:3f:9a:63:17:82:
         5c:25:07:98:1d:ae:e1:11:1d:a6:cf:a8:b1:b4:c5:46:a0:42:
         0d:ff:ba:c1:c9:62:74:8a:16:24:12:28:00:f1:99:44:32:85:
         26:15
-----BEGIN CERTIFICATE-----
MIIC2jCCAkOgAwIBAgIBLjANBgkqhkiG9w0BAQsFADBgMQswCQYDVQQGEwJGUjES
MBAGA1UECAwJYm91cmdvZ25lMQ4wDAYDVQQHDAVkaWpvbjENMAsGA1UECgwEZW9s
ZTELMAkGA1UECwwCY2kxETAPBgNVBAMMCEFDRW9sZUNJMB4XDTE2MDMxNzE0MzU0
MVoXDTI0MDYwMzE0MzU0MVowHDEaMBgGA1UEAwwRaG9ydXMuYWMtdGVzdC5sYW4w
gZ8wDQYJKoZIhvcNAQEBBQADgY0AMIGJAoGBAMc8m+gr92LLTurrc3KGFRxBvFiF
zfpGR7RzNHo8V/0+U7dNPCaOaVbGNxQ60UYU1SNldOA46Eog21RTdR93PdhvRJv0
P2hSD1/yaBFJvSEGn2aLS2Bv92pqnpgxDyxBUkHe0qArPoT2tVgHOv/IE+ZyhEep
Ic3F+DwY8KCgQVNnAgMBAAGjgecwgeQwCQYDVR0TBAIwADAdBgNVHQ4EFgQULAgJ
+RpmIaiBTMOIgNeg7gxn8C0wgZIGA1UdIwSBijCBh4AUON9GKTiyE4ulfIBLXqok
2yXc7O6hZKRiMGAxCzAJBgNVBAYTAkZSMRIwEAYDVQQIDAlib3VyZ29nbmUxDjAM
BgNVBAcMBWRpam9uMQ0wCwYDVQQKDARlb2xlMQswCQYDVQQLDAJjaTERMA8GA1UE
AwwIQUNFb2xlQ0mCCQCBWv7lunA4ATAOBgNVHQ8BAf8EBAMCBaAwEwYDVR0lBAww
CgYIKwYBBQUHAwEwDQYJKoZIhvcNAQELBQADgYEAMP5AhNx/YyoL4goOxMLTRTwJ
85ptIKkiLavd1abZJkVaOs2CTx6GoFeZrC9trzSbs6VoNKW0T6uWE2GPE4+USWzn
KVWXNM9ivrAmsTWHSZFVQm9V7z+aYxeCXCUHmB2u4REdps+osbTFRqBCDf+6wcli
dIoWJBIoAPGZRDKFJhU=
-----END CERTIFICATE-----
