Certificate:
    Data:
        Version: 3 (0x2)
        Serial Number: 32 (0x20)
    Signature Algorithm: sha256WithRSAEncryption
        Issuer: C=FR, ST=bourgogne, L=dijon, O=eole, OU=ci, CN=ACEoleCI
        Validity
            Not Before: Mar 17 14:35:36 2016 GMT
            Not After : Jun  3 14:35:36 2024 GMT
        Subject: CN=hapy.ac-test.lan
        Subject Public Key Info:
            Public Key Algorithm: rsaEncryption
                Public-Key: (1024 bit)
                Modulus:
                    00:9a:29:71:a7:17:d6:24:48:e4:c8:ac:69:88:fb:
                    f7:95:81:98:f5:74:6f:7f:9a:18:df:c8:fa:e7:23:
                    1d:a7:22:88:47:8a:29:6e:c1:35:ec:a3:53:c5:bd:
                    9d:ef:e1:6f:5f:d2:bc:e0:c3:0d:f4:4e:d6:36:84:
                    89:f1:ad:e6:63:69:77:7e:14:4c:bc:84:76:69:f4:
                    89:7e:98:33:d5:e8:1e:a3:f1:15:4a:3f:d6:9d:4f:
                    ab:2f:c4:27:9f:75:8c:bb:a6:7d:11:d2:1f:bf:e3:
                    72:70:32:2f:dd:0c:7f:82:f4:c2:99:35:21:ff:bb:
                    7c:6b:e6:9f:58:05:fb:47:1f
                Exponent: 65537 (0x10001)
        X509v3 extensions:
            X509v3 Basic Constraints: 
                CA:FALSE
            X509v3 Subject Key Identifier: 
                1B:A8:D3:1F:CD:82:E3:C4:DA:EC:29:3E:79:E1:54:F6:8F:A9:69:35
            X509v3 Authority Key Identifier: 
                keyid:38:DF:46:29:38:B2:13:8B:A5:7C:80:4B:5E:AA:24:DB:25:DC:EC:EE

            X509v3 Key Usage: critical
                Digital Signature, Non Repudiation, Key Encipherment
            X509v3 Extended Key Usage: 
                TLS Web Client Authentication, E-mail Protection
    Signature Algorithm: sha256WithRSAEncryption
         70:b3:f8:f8:c6:eb:57:fb:1b:3c:e5:eb:0f:6f:80:a0:06:3a:
         12:e3:65:3c:12:ae:d4:cd:93:b2:9b:3a:6b:9f:01:08:aa:3f:
         30:1e:bc:9c:65:75:75:82:e1:d0:d4:6a:e4:b2:6b:d2:e2:ff:
         f6:ff:c5:4e:ec:4c:f8:bb:f3:83:1f:9b:86:ea:d1:d5:7b:de:
         a3:5b:99:e9:e8:cd:0b:3e:ff:af:47:4f:d9:03:1e:97:8e:52:
         ba:f4:dd:1d:62:c7:22:6d:10:cd:2e:be:e4:0c:3a:2e:1b:34:
         4c:6d:44:8f:9e:9e:ca:54:06:47:c2:40:7e:0f:5f:6f:b3:5a:
         0b:fb
-----BEGIN CERTIFICATE-----
MIICbTCCAdagAwIBAgIBIDANBgkqhkiG9w0BAQsFADBgMQswCQYDVQQGEwJGUjES
MBAGA1UECAwJYm91cmdvZ25lMQ4wDAYDVQQHDAVkaWpvbjENMAsGA1UECgwEZW9s
ZTELMAkGA1UECwwCY2kxETAPBgNVBAMMCEFDRW9sZUNJMB4XDTE2MDMxNzE0MzUz
NloXDTI0MDYwMzE0MzUzNlowGzEZMBcGA1UEAwwQaGFweS5hYy10ZXN0LmxhbjCB
nzANBgkqhkiG9w0BAQEFAAOBjQAwgYkCgYEAmilxpxfWJEjkyKxpiPv3lYGY9XRv
f5oY38j65yMdpyKIR4opbsE17KNTxb2d7+FvX9K84MMN9E7WNoSJ8a3mY2l3fhRM
vIR2afSJfpgz1egeo/EVSj/WnU+rL8Qnn3WMu6Z9EdIfv+NycDIv3Qx/gvTCmTUh
/7t8a+afWAX7Rx8CAwEAAaN8MHowCQYDVR0TBAIwADAdBgNVHQ4EFgQUG6jTH82C
48Ta7Ck+eeFU9o+paTUwHwYDVR0jBBgwFoAUON9GKTiyE4ulfIBLXqok2yXc7O4w
DgYDVR0PAQH/BAQDAgXgMB0GA1UdJQQWMBQGCCsGAQUFBwMCBggrBgEFBQcDBDAN
BgkqhkiG9w0BAQsFAAOBgQBws/j4xutX+xs85esPb4CgBjoS42U8Eq7UzZOymzpr
nwEIqj8wHrycZXV1guHQ1GrksmvS4v/2/8VO7Ez4u/ODH5uG6tHVe96jW5np6M0L
Pv+vR0/ZAx6XjlK69N0dYscibRDNLr7kDDouGzRMbUSPnp7KVAZHwkB+D19vs1oL
+w==
-----END CERTIFICATE-----
