-----BEGIN RSA PRIVATE KEY-----
MIICXQIBAAKBgQC1I9fJw1I8vYCFTIYmr0dAeoqApeozgCLgiBeQ9tG0lZRSjuDR
Re4EeWZpNGEu+KZTLGEP7gZJ2UITRo4TtHRXXs3bae+l6bZh3jHlTPmzVhVAyVy1
XJAtSOmcPelRVitqVF0BTHRgkmnDxtaUcCSFz8AtNbA8D6c9n98peIvzmwIDAQAB
AoGBAKN5EoCS1n/cocUq95Kn8sy9CovpsEAELvWlvGbmaQDpUS9kpH4Y9yJwkTz2
uZITcr9zOLGQpXo2KQyOSyB7ZdYCbiN6AkSSl23wsoX0TgjiZ9Mj0G5AN1h+Qre0
UCQ0NXY6LJhI1cnn8JDA40AOnae2w+Hil4alK91CH7QwpPv5AkEA5Fjvrszk7X3p
YcGVKIrsLbVXNF1Lh1lJFnfFjtoLPloyGzBDrgKLis+UgT4J/vNpCPQ2MT5W96tK
f0Oojrm95QJBAMsTaqVnfEcWhWj0b/O68E9JqZE+GKJ3YFgoGd9i5SvUIpH4t2FC
Q8ai17mLJ0jf4p+XowCLFJyQQ1B5isEn038CQQCSv+1Zg2hkkJTaNFStt4pNXctr
ZcHSfDkSbWrTgaHUMpcdDgmQ3SXc0cb4wGwgI0KPdJMXVp8BkF3SKCM9hnVZAkAR
iprSsM62YUai20J0Xjh10NoZ1rBQEFm9I7Ggby12jLtzunU0rIGoPda+izuYeuZb
fMCywlDEeV2nLOiEaMlHAkBoEfvv+rnpbn5bjGoHwfK3zHIF7s+q2fVU3BJRJPwi
2x9EPi/moRrtXdfu+XkKcpnYHS7WH4q90MzVsnWa4LWO
-----END RSA PRIVATE KEY-----
Certificate:
    Data:
        Version: 3 (0x2)
        Serial Number: 104 (0x68)
    Signature Algorithm: sha256WithRSAEncryption
        Issuer: C=FR, ST=bourgogne, L=dijon, O=eole, OU=ci, CN=ACEoleCI
        Validity
            Not Before: Mar 17 14:35:57 2016 GMT
            Not After : Jun  3 14:35:57 2024 GMT
        Subject: CN=pcadmin.etb1.lan
        Subject Public Key Info:
            Public Key Algorithm: rsaEncryption
                Public-Key: (1024 bit)
                Modulus:
                    00:b5:23:d7:c9:c3:52:3c:bd:80:85:4c:86:26:af:
                    47:40:7a:8a:80:a5:ea:33:80:22:e0:88:17:90:f6:
                    d1:b4:95:94:52:8e:e0:d1:45:ee:04:79:66:69:34:
                    61:2e:f8:a6:53:2c:61:0f:ee:06:49:d9:42:13:46:
                    8e:13:b4:74:57:5e:cd:db:69:ef:a5:e9:b6:61:de:
                    31:e5:4c:f9:b3:56:15:40:c9:5c:b5:5c:90:2d:48:
                    e9:9c:3d:e9:51:56:2b:6a:54:5d:01:4c:74:60:92:
                    69:c3:c6:d6:94:70:24:85:cf:c0:2d:35:b0:3c:0f:
                    a7:3d:9f:df:29:78:8b:f3:9b
                Exponent: 65537 (0x10001)
        X509v3 extensions:
            X509v3 Basic Constraints: 
                CA:FALSE
            X509v3 Subject Key Identifier: 
                9B:76:99:C2:33:7C:AC:67:C2:2A:FF:07:E6:A6:DC:6D:D3:2F:CD:E6
            X509v3 Authority Key Identifier: 
                keyid:38:DF:46:29:38:B2:13:8B:A5:7C:80:4B:5E:AA:24:DB:25:DC:EC:EE

            X509v3 Key Usage: critical
                Digital Signature, Non Repudiation, Key Encipherment
            X509v3 Extended Key Usage: 
                TLS Web Client Authentication, E-mail Protection
    Signature Algorithm: sha256WithRSAEncryption
         0c:fe:8b:af:f5:92:60:1b:db:a7:c9:f8:87:4e:3f:96:9a:0e:
         cc:f1:16:e0:d6:e6:af:c4:f7:a1:e6:7f:66:e4:d1:26:a7:dd:
         95:18:bb:2e:e6:6d:c2:0a:76:4c:c2:fc:52:33:27:7e:ee:5a:
         1f:f3:22:34:3c:d2:c2:c7:51:bc:66:0a:c2:ac:cf:c9:18:70:
         f5:a1:da:9c:bf:68:d4:6d:f7:fe:24:c3:23:85:fe:76:e6:d9:
         a4:a1:30:65:54:76:86:ca:aa:1e:08:51:5d:53:d5:28:0f:55:
         dc:6a:22:c6:e1:40:bb:c4:14:d3:f8:b1:7a:52:ca:2a:66:7e:
         68:65
-----BEGIN CERTIFICATE-----
MIICbTCCAdagAwIBAgIBaDANBgkqhkiG9w0BAQsFADBgMQswCQYDVQQGEwJGUjES
MBAGA1UECAwJYm91cmdvZ25lMQ4wDAYDVQQHDAVkaWpvbjENMAsGA1UECgwEZW9s
ZTELMAkGA1UECwwCY2kxETAPBgNVBAMMCEFDRW9sZUNJMB4XDTE2MDMxNzE0MzU1
N1oXDTI0MDYwMzE0MzU1N1owGzEZMBcGA1UEAwwQcGNhZG1pbi5ldGIxLmxhbjCB
nzANBgkqhkiG9w0BAQEFAAOBjQAwgYkCgYEAtSPXycNSPL2AhUyGJq9HQHqKgKXq
M4Ai4IgXkPbRtJWUUo7g0UXuBHlmaTRhLvimUyxhD+4GSdlCE0aOE7R0V17N22nv
pem2Yd4x5Uz5s1YVQMlctVyQLUjpnD3pUVYralRdAUx0YJJpw8bWlHAkhc/ALTWw
PA+nPZ/fKXiL85sCAwEAAaN8MHowCQYDVR0TBAIwADAdBgNVHQ4EFgQUm3aZwjN8
rGfCKv8H5qbcbdMvzeYwHwYDVR0jBBgwFoAUON9GKTiyE4ulfIBLXqok2yXc7O4w
DgYDVR0PAQH/BAQDAgXgMB0GA1UdJQQWMBQGCCsGAQUFBwMCBggrBgEFBQcDBDAN
BgkqhkiG9w0BAQsFAAOBgQAM/ouv9ZJgG9unyfiHTj+Wmg7M8Rbg1uavxPeh5n9m
5NEmp92VGLsu5m3CCnZMwvxSMyd+7lof8yI0PNLCx1G8ZgrCrM/JGHD1odqcv2jU
bff+JMMjhf525tmkoTBlVHaGyqoeCFFdU9UoD1XcaiLG4UC7xBTT+LF6UsoqZn5o
ZQ==
-----END CERTIFICATE-----
