-----BEGIN RSA PRIVATE KEY-----
MIICXQIBAAKBgQC1I9fJw1I8vYCFTIYmr0dAeoqApeozgCLgiBeQ9tG0lZRSjuDR
Re4EeWZpNGEu+KZTLGEP7gZJ2UITRo4TtHRXXs3bae+l6bZh3jHlTPmzVhVAyVy1
XJAtSOmcPelRVitqVF0BTHRgkmnDxtaUcCSFz8AtNbA8D6c9n98peIvzmwIDAQAB
AoGBAKN5EoCS1n/cocUq95Kn8sy9CovpsEAELvWlvGbmaQDpUS9kpH4Y9yJwkTz2
uZITcr9zOLGQpXo2KQyOSyB7ZdYCbiN6AkSSl23wsoX0TgjiZ9Mj0G5AN1h+Qre0
UCQ0NXY6LJhI1cnn8JDA40AOnae2w+Hil4alK91CH7QwpPv5AkEA5Fjvrszk7X3p
YcGVKIrsLbVXNF1Lh1lJFnfFjtoLPloyGzBDrgKLis+UgT4J/vNpCPQ2MT5W96tK
f0Oojrm95QJBAMsTaqVnfEcWhWj0b/O68E9JqZE+GKJ3YFgoGd9i5SvUIpH4t2FC
Q8ai17mLJ0jf4p+XowCLFJyQQ1B5isEn038CQQCSv+1Zg2hkkJTaNFStt4pNXctr
ZcHSfDkSbWrTgaHUMpcdDgmQ3SXc0cb4wGwgI0KPdJMXVp8BkF3SKCM9hnVZAkAR
iprSsM62YUai20J0Xjh10NoZ1rBQEFm9I7Ggby12jLtzunU0rIGoPda+izuYeuZb
fMCywlDEeV2nLOiEaMlHAkBoEfvv+rnpbn5bjGoHwfK3zHIF7s+q2fVU3BJRJPwi
2x9EPi/moRrtXdfu+XkKcpnYHS7WH4q90MzVsnWa4LWO
-----END RSA PRIVATE KEY-----
Certificate:
    Data:
        Version: 3 (0x2)
        Serial Number: 105 (0x69)
    Signature Algorithm: sha256WithRSAEncryption
        Issuer: C=FR, ST=bourgogne, L=dijon, O=eole, OU=ci, CN=ACEoleCI
        Validity
            Not Before: Mar 17 14:35:57 2016 GMT
            Not After : Jun  3 14:35:57 2024 GMT
        Subject: CN=pcadmin.etb1.lan
        Subject Public Key Info:
            Public Key Algorithm: rsaEncryption
                Public-Key: (1024 bit)
                Modulus:
                    00:b5:23:d7:c9:c3:52:3c:bd:80:85:4c:86:26:af:
                    47:40:7a:8a:80:a5:ea:33:80:22:e0:88:17:90:f6:
                    d1:b4:95:94:52:8e:e0:d1:45:ee:04:79:66:69:34:
                    61:2e:f8:a6:53:2c:61:0f:ee:06:49:d9:42:13:46:
                    8e:13:b4:74:57:5e:cd:db:69:ef:a5:e9:b6:61:de:
                    31:e5:4c:f9:b3:56:15:40:c9:5c:b5:5c:90:2d:48:
                    e9:9c:3d:e9:51:56:2b:6a:54:5d:01:4c:74:60:92:
                    69:c3:c6:d6:94:70:24:85:cf:c0:2d:35:b0:3c:0f:
                    a7:3d:9f:df:29:78:8b:f3:9b
                Exponent: 65537 (0x10001)
        X509v3 extensions:
            X509v3 Basic Constraints: 
                CA:FALSE
            X509v3 Subject Key Identifier: 
                9B:76:99:C2:33:7C:AC:67:C2:2A:FF:07:E6:A6:DC:6D:D3:2F:CD:E6
            X509v3 Authority Key Identifier: 
                keyid:38:DF:46:29:38:B2:13:8B:A5:7C:80:4B:5E:AA:24:DB:25:DC:EC:EE
                DirName:/C=FR/ST=bourgogne/L=dijon/O=eole/OU=ci/CN=ACEoleCI
                serial:81:5A:FE:E5:BA:70:38:01

            X509v3 Key Usage: critical
                Digital Signature, Key Encipherment
    Signature Algorithm: sha256WithRSAEncryption
         3f:73:fa:e1:19:12:01:14:b4:92:20:a6:56:c7:6c:27:05:95:
         0a:77:5e:95:4f:58:1c:70:3e:0d:3a:52:94:fa:6a:d1:45:91:
         d9:68:69:36:a2:14:51:13:7f:b3:a7:ca:32:b6:d4:fb:76:fe:
         d4:c5:9a:a7:8e:fd:5e:bc:d1:58:5e:27:9d:e5:b2:73:4e:2f:
         72:1f:53:47:9c:ce:07:12:f0:49:46:d5:70:b0:38:96:e8:d7:
         57:aa:c6:82:5a:89:dd:8a:06:a3:61:21:1f:d1:67:91:c8:99:
         72:d5:a5:0a:f3:d6:ab:cd:7b:3e:08:39:04:e4:15:bb:77:30:
         38:53
-----BEGIN CERTIFICATE-----
MIICxDCCAi2gAwIBAgIBaTANBgkqhkiG9w0BAQsFADBgMQswCQYDVQQGEwJGUjES
MBAGA1UECAwJYm91cmdvZ25lMQ4wDAYDVQQHDAVkaWpvbjENMAsGA1UECgwEZW9s
ZTELMAkGA1UECwwCY2kxETAPBgNVBAMMCEFDRW9sZUNJMB4XDTE2MDMxNzE0MzU1
N1oXDTI0MDYwMzE0MzU1N1owGzEZMBcGA1UEAwwQcGNhZG1pbi5ldGIxLmxhbjCB
nzANBgkqhkiG9w0BAQEFAAOBjQAwgYkCgYEAtSPXycNSPL2AhUyGJq9HQHqKgKXq
M4Ai4IgXkPbRtJWUUo7g0UXuBHlmaTRhLvimUyxhD+4GSdlCE0aOE7R0V17N22nv
pem2Yd4x5Uz5s1YVQMlctVyQLUjpnD3pUVYralRdAUx0YJJpw8bWlHAkhc/ALTWw
PA+nPZ/fKXiL85sCAwEAAaOB0jCBzzAJBgNVHRMEAjAAMB0GA1UdDgQWBBSbdpnC
M3ysZ8Iq/wfmptxt0y/N5jCBkgYDVR0jBIGKMIGHgBQ430YpOLITi6V8gEteqiTb
Jdzs7qFkpGIwYDELMAkGA1UEBhMCRlIxEjAQBgNVBAgMCWJvdXJnb2duZTEOMAwG
A1UEBwwFZGlqb24xDTALBgNVBAoMBGVvbGUxCzAJBgNVBAsMAmNpMREwDwYDVQQD
DAhBQ0VvbGVDSYIJAIFa/uW6cDgBMA4GA1UdDwEB/wQEAwIFoDANBgkqhkiG9w0B
AQsFAAOBgQA/c/rhGRIBFLSSIKZWx2wnBZUKd16VT1gccD4NOlKU+mrRRZHZaGk2
ohRRE3+zp8oyttT7dv7UxZqnjv1evNFYXied5bJzTi9yH1NHnM4HEvBJRtVwsDiW
6NdXqsaCWondigajYSEf0WeRyJly1aUK89arzXs+CDkE5BW7dzA4Uw==
-----END CERTIFICATE-----
