-----BEGIN RSA PRIVATE KEY-----
MIICXQIBAAKBgQC1I9fJw1I8vYCFTIYmr0dAeoqApeozgCLgiBeQ9tG0lZRSjuDR
Re4EeWZpNGEu+KZTLGEP7gZJ2UITRo4TtHRXXs3bae+l6bZh3jHlTPmzVhVAyVy1
XJAtSOmcPelRVitqVF0BTHRgkmnDxtaUcCSFz8AtNbA8D6c9n98peIvzmwIDAQAB
AoGBAKN5EoCS1n/cocUq95Kn8sy9CovpsEAELvWlvGbmaQDpUS9kpH4Y9yJwkTz2
uZITcr9zOLGQpXo2KQyOSyB7ZdYCbiN6AkSSl23wsoX0TgjiZ9Mj0G5AN1h+Qre0
UCQ0NXY6LJhI1cnn8JDA40AOnae2w+Hil4alK91CH7QwpPv5AkEA5Fjvrszk7X3p
YcGVKIrsLbVXNF1Lh1lJFnfFjtoLPloyGzBDrgKLis+UgT4J/vNpCPQ2MT5W96tK
f0Oojrm95QJBAMsTaqVnfEcWhWj0b/O68E9JqZE+GKJ3YFgoGd9i5SvUIpH4t2FC
Q8ai17mLJ0jf4p+XowCLFJyQQ1B5isEn038CQQCSv+1Zg2hkkJTaNFStt4pNXctr
ZcHSfDkSbWrTgaHUMpcdDgmQ3SXc0cb4wGwgI0KPdJMXVp8BkF3SKCM9hnVZAkAR
iprSsM62YUai20J0Xjh10NoZ1rBQEFm9I7Ggby12jLtzunU0rIGoPda+izuYeuZb
fMCywlDEeV2nLOiEaMlHAkBoEfvv+rnpbn5bjGoHwfK3zHIF7s+q2fVU3BJRJPwi
2x9EPi/moRrtXdfu+XkKcpnYHS7WH4q90MzVsnWa4LWO
-----END RSA PRIVATE KEY-----
Certificate:
    Data:
        Version: 3 (0x2)
        Serial Number: 103 (0x67)
    Signature Algorithm: sha256WithRSAEncryption
        Issuer: C=FR, ST=bourgogne, L=dijon, O=eole, OU=ci, CN=ACEoleCI
        Validity
            Not Before: Mar 17 14:35:57 2016 GMT
            Not After : Jun  3 14:35:57 2024 GMT
        Subject: CN=pcadmin.etb1.lan
        Subject Public Key Info:
            Public Key Algorithm: rsaEncryption
                Public-Key: (1024 bit)
                Modulus:
                    00:b5:23:d7:c9:c3:52:3c:bd:80:85:4c:86:26:af:
                    47:40:7a:8a:80:a5:ea:33:80:22:e0:88:17:90:f6:
                    d1:b4:95:94:52:8e:e0:d1:45:ee:04:79:66:69:34:
                    61:2e:f8:a6:53:2c:61:0f:ee:06:49:d9:42:13:46:
                    8e:13:b4:74:57:5e:cd:db:69:ef:a5:e9:b6:61:de:
                    31:e5:4c:f9:b3:56:15:40:c9:5c:b5:5c:90:2d:48:
                    e9:9c:3d:e9:51:56:2b:6a:54:5d:01:4c:74:60:92:
                    69:c3:c6:d6:94:70:24:85:cf:c0:2d:35:b0:3c:0f:
                    a7:3d:9f:df:29:78:8b:f3:9b
                Exponent: 65537 (0x10001)
        X509v3 extensions:
            X509v3 Basic Constraints: 
                CA:FALSE
            X509v3 Subject Key Identifier: 
                9B:76:99:C2:33:7C:AC:67:C2:2A:FF:07:E6:A6:DC:6D:D3:2F:CD:E6
            X509v3 Authority Key Identifier: 
                keyid:38:DF:46:29:38:B2:13:8B:A5:7C:80:4B:5E:AA:24:DB:25:DC:EC:EE
                DirName:/C=FR/ST=bourgogne/L=dijon/O=eole/OU=ci/CN=ACEoleCI
                serial:81:5A:FE:E5:BA:70:38:01

            X509v3 Key Usage: critical
                Digital Signature, Key Encipherment
            X509v3 Extended Key Usage: 
                TLS Web Server Authentication
    Signature Algorithm: sha256WithRSAEncryption
         6a:12:2f:b2:00:22:30:53:40:85:47:bb:43:c5:17:a0:3a:ea:
         60:56:5d:e6:d0:8f:d6:c7:59:62:0c:05:9c:7b:b0:14:ca:e0:
         2b:75:6c:95:5a:86:74:0d:f1:22:56:59:f1:74:65:6b:9d:47:
         33:fa:13:60:87:94:99:b7:c9:ac:c5:b2:2b:a1:71:d9:0d:63:
         8f:d9:ba:26:77:db:03:84:99:be:bc:de:dd:26:2e:34:78:9f:
         91:06:7c:46:9e:c3:5b:14:d5:49:6d:d3:2d:8d:97:bc:e4:9c:
         e0:a9:70:dc:15:96:a2:a0:f0:57:13:0f:da:f9:83:00:52:35:
         f1:f9
-----BEGIN CERTIFICATE-----
MIIC2TCCAkKgAwIBAgIBZzANBgkqhkiG9w0BAQsFADBgMQswCQYDVQQGEwJGUjES
MBAGA1UECAwJYm91cmdvZ25lMQ4wDAYDVQQHDAVkaWpvbjENMAsGA1UECgwEZW9s
ZTELMAkGA1UECwwCY2kxETAPBgNVBAMMCEFDRW9sZUNJMB4XDTE2MDMxNzE0MzU1
N1oXDTI0MDYwMzE0MzU1N1owGzEZMBcGA1UEAwwQcGNhZG1pbi5ldGIxLmxhbjCB
nzANBgkqhkiG9w0BAQEFAAOBjQAwgYkCgYEAtSPXycNSPL2AhUyGJq9HQHqKgKXq
M4Ai4IgXkPbRtJWUUo7g0UXuBHlmaTRhLvimUyxhD+4GSdlCE0aOE7R0V17N22nv
pem2Yd4x5Uz5s1YVQMlctVyQLUjpnD3pUVYralRdAUx0YJJpw8bWlHAkhc/ALTWw
PA+nPZ/fKXiL85sCAwEAAaOB5zCB5DAJBgNVHRMEAjAAMB0GA1UdDgQWBBSbdpnC
M3ysZ8Iq/wfmptxt0y/N5jCBkgYDVR0jBIGKMIGHgBQ430YpOLITi6V8gEteqiTb
Jdzs7qFkpGIwYDELMAkGA1UEBhMCRlIxEjAQBgNVBAgMCWJvdXJnb2duZTEOMAwG
A1UEBwwFZGlqb24xDTALBgNVBAoMBGVvbGUxCzAJBgNVBAsMAmNpMREwDwYDVQQD
DAhBQ0VvbGVDSYIJAIFa/uW6cDgBMA4GA1UdDwEB/wQEAwIFoDATBgNVHSUEDDAK
BggrBgEFBQcDATANBgkqhkiG9w0BAQsFAAOBgQBqEi+yACIwU0CFR7tDxRegOupg
Vl3m0I/Wx1liDAWce7AUyuArdWyVWoZ0DfEiVlnxdGVrnUcz+hNgh5SZt8msxbIr
oXHZDWOP2bomd9sDhJm+vN7dJi40eJ+RBnxGnsNbFNVJbdMtjZe85JzgqXDcFZai
oPBXEw/a+YMAUjXx+Q==
-----END CERTIFICATE-----
