Certificate:
    Data:
        Version: 3 (0x2)
        Serial Number: 44 (0x2c)
    Signature Algorithm: sha256WithRSAEncryption
        Issuer: C=FR, ST=bourgogne, L=dijon, O=eole, OU=ci, CN=ACEoleCI
        Validity
            Not Before: Mar 17 14:35:40 2016 GMT
            Not After : Jun  3 14:35:40 2024 GMT
        Subject: CN=ha-slave.ac-test.lan
        Subject Public Key Info:
            Public Key Algorithm: rsaEncryption
                Public-Key: (1024 bit)
                Modulus:
                    00:b6:b5:4b:bb:98:a0:35:3b:76:4b:d7:b8:65:a2:
                    ce:4f:b3:77:68:2d:2c:39:d4:79:01:93:66:6b:c5:
                    76:f1:cf:f5:b7:09:65:4d:ab:f8:8b:f3:22:77:58:
                    5c:12:fc:61:2a:b2:83:db:2c:bf:9e:e5:37:80:cd:
                    85:f2:eb:e8:e4:3a:b1:a5:ba:cf:05:9b:84:e0:b8:
                    f2:27:69:de:05:7c:9a:2f:70:3e:d1:58:c6:c0:42:
                    e5:00:22:f8:3e:b1:ad:77:08:52:57:f9:89:e6:64:
                    ad:96:99:98:eb:b7:3e:d5:f4:7b:c6:2c:4c:6b:69:
                    0b:a7:fd:7c:f2:cc:85:6d:63
                Exponent: 65537 (0x10001)
        X509v3 extensions:
            X509v3 Basic Constraints: 
                CA:FALSE
            X509v3 Subject Key Identifier: 
                12:74:77:E1:E2:74:F2:59:8A:91:BD:97:2F:61:74:BE:60:73:4F:35
            X509v3 Authority Key Identifier: 
                keyid:38:DF:46:29:38:B2:13:8B:A5:7C:80:4B:5E:AA:24:DB:25:DC:EC:EE

            X509v3 Key Usage: critical
                Digital Signature, Non Repudiation, Key Encipherment
            X509v3 Extended Key Usage: 
                TLS Web Client Authentication, E-mail Protection
    Signature Algorithm: sha256WithRSAEncryption
         2d:a6:08:b3:a5:72:b6:c3:57:db:4f:0c:d6:cb:b5:47:40:63:
         c8:35:cf:82:0f:9d:e3:e3:f2:4c:54:ed:b5:53:5c:06:0e:21:
         b5:ab:ad:d1:c9:cf:1d:1c:30:02:f8:02:72:94:cc:05:e1:49:
         24:80:f0:e3:29:b3:ca:d0:3d:6a:83:95:bf:68:68:18:8e:10:
         32:02:fa:69:06:02:b4:3b:59:5a:a2:4e:11:0c:25:81:84:2c:
         a6:67:c7:df:e0:b9:64:97:53:ac:ea:28:43:fe:6d:2d:0c:42:
         fa:bb:85:be:fb:4c:2c:d5:94:8a:4b:80:8a:1f:cf:bb:ce:fb:
         1d:f7
-----BEGIN CERTIFICATE-----
MIICcTCCAdqgAwIBAgIBLDANBgkqhkiG9w0BAQsFADBgMQswCQYDVQQGEwJGUjES
MBAGA1UECAwJYm91cmdvZ25lMQ4wDAYDVQQHDAVkaWpvbjENMAsGA1UECgwEZW9s
ZTELMAkGA1UECwwCY2kxETAPBgNVBAMMCEFDRW9sZUNJMB4XDTE2MDMxNzE0MzU0
MFoXDTI0MDYwMzE0MzU0MFowHzEdMBsGA1UEAwwUaGEtc2xhdmUuYWMtdGVzdC5s
YW4wgZ8wDQYJKoZIhvcNAQEBBQADgY0AMIGJAoGBALa1S7uYoDU7dkvXuGWizk+z
d2gtLDnUeQGTZmvFdvHP9bcJZU2r+IvzIndYXBL8YSqyg9ssv57lN4DNhfLr6OQ6
saW6zwWbhOC48idp3gV8mi9wPtFYxsBC5QAi+D6xrXcIUlf5ieZkrZaZmOu3PtX0
e8YsTGtpC6f9fPLMhW1jAgMBAAGjfDB6MAkGA1UdEwQCMAAwHQYDVR0OBBYEFBJ0
d+HidPJZipG9ly9hdL5gc081MB8GA1UdIwQYMBaAFDjfRik4shOLpXyAS16qJNsl
3OzuMA4GA1UdDwEB/wQEAwIF4DAdBgNVHSUEFjAUBggrBgEFBQcDAgYIKwYBBQUH
AwQwDQYJKoZIhvcNAQELBQADgYEALaYIs6VytsNX208M1su1R0BjyDXPgg+d4+Py
TFTttVNcBg4htaut0cnPHRwwAvgCcpTMBeFJJIDw4ymzytA9aoOVv2hoGI4QMgL6
aQYCtDtZWqJOEQwlgYQspmfH3+C5ZJdTrOooQ/5tLQxC+ruFvvtMLNWUikuAih/P
u877Hfc=
-----END CERTIFICATE-----
