Certificate:
    Data:
        Version: 3 (0x2)
        Serial Number:
            25:77:a7:40:fe:1a:5a:36:b0:f2:af:87:c7:ec:e4:27:25:40:8c:87
        Signature Algorithm: sha256WithRSAEncryption
        Issuer: C=FR, ST=France, O=Eole, OU=Recette, CN=CA Racine
        Validity
            Not Before: Jan  9 16:33:34 2020 GMT
            Not After : Jan  8 16:33:34 2021 GMT
        Subject: C=FR, ST=France, O=Eole, OU=Recette, CN=ldapma.m2.e2.rie.gouv.f
        Subject Public Key Info:
            Public Key Algorithm: rsaEncryption
                RSA Public-Key: (2048 bit)
                Modulus:
                    00:b2:d9:b4:b6:73:c6:ee:c6:ef:47:63:2a:cf:42:
                    b4:47:fe:a3:33:a7:68:1e:69:34:0a:d0:5e:1a:f0:
                    92:0d:5b:53:37:6b:ed:4a:a2:55:6f:6d:80:29:84:
                    9d:aa:dc:f7:70:ef:08:07:e1:6f:b4:88:af:05:5d:
                    12:ec:0d:b1:ae:5a:4f:a2:73:1b:65:1d:d7:bc:c5:
                    8f:25:21:7e:4a:72:b6:5f:1c:ac:82:ff:0e:34:5f:
                    6d:87:c1:01:33:ac:82:28:e5:6b:ed:98:bd:60:b0:
                    d2:2b:ab:57:15:8a:75:8d:80:b3:57:c7:c1:6d:ad:
                    35:81:99:a7:27:c8:63:ed:f1:6a:12:cf:c8:2f:1b:
                    ec:f1:c0:c7:12:1b:40:75:a4:0d:33:d7:88:1e:fa:
                    48:cc:64:8e:2f:fa:0f:70:b3:07:c7:a2:3d:b4:f1:
                    68:ba:3b:4e:5f:63:f8:62:53:ca:49:94:44:58:63:
                    af:4c:f1:5a:87:89:77:ba:8b:40:5f:e2:83:7d:c8:
                    e6:db:b6:5d:45:53:f6:6b:6a:8c:9a:18:fb:a4:23:
                    6c:4a:ad:c6:f7:30:49:cf:19:ca:4b:fa:21:cb:11:
                    7a:28:10:24:bd:e8:d1:ca:d1:7b:f7:48:2e:96:f8:
                    00:29:96:50:54:1d:e2:d3:e4:b1:21:58:ad:e8:48:
                    50:5b
                Exponent: 65537 (0x10001)
        X509v3 extensions:
            X509v3 Basic Constraints: 
                CA:FALSE
            Netscape Comment: 
                OpenSSL Generated Certificate
            X509v3 Subject Key Identifier: 
                DE:F9:4F:C8:3B:0B:65:A2:BD:41:40:40:3E:33:90:3F:0F:97:E2:5D
            X509v3 Authority Key Identifier: 
                keyid:35:F4:56:5E:85:CE:FD:3D:55:B8:73:64:67:27:F1:71:BA:A3:FA:1B

    Signature Algorithm: sha256WithRSAEncryption
         1d:48:07:83:f0:42:27:ec:01:3b:dd:ae:d8:5e:65:42:82:87:
         c0:a3:2b:8d:1b:e7:ad:e3:5f:27:ce:98:b7:0a:99:c8:7f:64:
         53:3e:fd:65:6c:da:ca:28:2b:ce:56:57:c9:0d:32:e5:bb:07:
         f2:33:c2:31:9d:a3:28:ff:6c:62:76:b9:0e:40:48:b4:2e:47:
         21:b6:fb:fe:4a:55:69:ce:13:6e:f1:cb:e8:58:a7:f1:4e:ab:
         0a:67:12:f9:6b:06:5d:4b:f6:66:56:63:75:71:d9:66:41:cb:
         20:d1:e3:4f:09:cd:58:a0:9e:a6:32:e9:b8:78:59:c6:fd:e6:
         9b:33:76:91:eb:65:0e:c9:ad:c3:9e:4d:0b:21:49:56:50:1f:
         a0:bf:81:43:a0:20:a2:42:4e:f0:90:16:5e:2a:47:05:11:b8:
         55:6a:9c:4c:eb:47:5d:13:2d:57:4b:f1:a3:8a:1a:c8:08:f9:
         ec:4b:1a:fa:4c:9c:99:76:8b:f0:8a:20:5d:b2:9c:4b:6b:1d:
         92:8c:7b:e6:6e:76:da:a1:6a:85:fb:7f:ba:30:99:49:98:fc:
         2e:15:bb:0e:9b:fb:54:f1:db:2b:e4:89:f1:f1:fa:7e:d1:2d:
         ff:84:48:d7:83:99:06:bb:66:c6:0d:5e:c0:28:9a:8d:28:12:
         5d:10:f7:e8
-----BEGIN CERTIFICATE-----
MIIDvTCCAqWgAwIBAgIUJXenQP4aWjaw8q+Hx+zkJyVAjIcwDQYJKoZIhvcNAQEL
BQAwUzELMAkGA1UEBhMCRlIxDzANBgNVBAgMBkZyYW5jZTENMAsGA1UECgwERW9s
ZTEQMA4GA1UECwwHUmVjZXR0ZTESMBAGA1UEAwwJQ0EgUmFjaW5lMB4XDTIwMDEw
OTE2MzMzNFoXDTIxMDEwODE2MzMzNFowYTELMAkGA1UEBhMCRlIxDzANBgNVBAgM
BkZyYW5jZTENMAsGA1UECgwERW9sZTEQMA4GA1UECwwHUmVjZXR0ZTEgMB4GA1UE
AwwXbGRhcG1hLm0yLmUyLnJpZS5nb3V2LmYwggEiMA0GCSqGSIb3DQEBAQUAA4IB
DwAwggEKAoIBAQCy2bS2c8buxu9HYyrPQrRH/qMzp2geaTQK0F4a8JINW1M3a+1K
olVvbYAphJ2q3Pdw7wgH4W+0iK8FXRLsDbGuWk+icxtlHde8xY8lIX5KcrZfHKyC
/w40X22HwQEzrIIo5WvtmL1gsNIrq1cVinWNgLNXx8FtrTWBmacnyGPt8WoSz8gv
G+zxwMcSG0B1pA0z14ge+kjMZI4v+g9wswfHoj208Wi6O05fY/hiU8pJlERYY69M
8VqHiXe6i0Bf4oN9yObbtl1FU/ZraoyaGPukI2xKrcb3MEnPGcpL+iHLEXooECS9
6NHK0Xv3SC6W+AApllBUHeLT5LEhWK3oSFBbAgMBAAGjezB5MAkGA1UdEwQCMAAw
LAYJYIZIAYb4QgENBB8WHU9wZW5TU0wgR2VuZXJhdGVkIENlcnRpZmljYXRlMB0G
A1UdDgQWBBTe+U/IOwtlor1BQEA+M5A/D5fiXTAfBgNVHSMEGDAWgBQ19FZehc79
PVW4c2RnJ/FxuqP6GzANBgkqhkiG9w0BAQsFAAOCAQEAHUgHg/BCJ+wBO92u2F5l
QoKHwKMrjRvnreNfJ86YtwqZyH9kUz79ZWzayigrzlZXyQ0y5bsH8jPCMZ2jKP9s
Yna5DkBItC5HIbb7/kpVac4TbvHL6Fin8U6rCmcS+WsGXUv2ZlZjdXHZZkHLINHj
TwnNWKCepjLpuHhZxv3mmzN2ketlDsmtw55NCyFJVlAfoL+BQ6AgokJO8JAWXipH
BRG4VWqcTOtHXRMtV0vxo4oayAj57Esa+kycmXaL8IogXbKcS2sdkox75m522qFq
hft/ujCZSZj8LhW7Dpv7VPHbK+SJ8fH6ftEt/4RI14OZBrtmxg1ewCiajSgSXRD3
6A==
-----END CERTIFICATE-----
