-----BEGIN RSA PRIVATE KEY-----
MIICXAIBAAKBgQDHUCsXIxWLKWEJtHoCd49tBYpKE5spYN4W9LOWm79MCM2DnWei
yf8VdUe2SPD+Qk0ah8uENOJlJRiSXLiV9orZRWtUTohLGgt6I7Kin9t27j0+UWiV
VGj3pAFjMSKerI6Tj1ktwr0cUgFuRWLz+/ViSG1WZ+FcmwzBysNA4V2fawIDAQAB
AoGAYhnaa7PwCaPfSEiVeRth89YzP8ywpUgxZ/kfX7TfDkyS4wIZnW1w6R3loxn5
zBvUGYfXKwZgnEoK8xdCH0XPBsyzdm4WUAEKiEu46+V2vgtWFgpuipDulNDuqd6l
CGRDHNWrNktPWls4n5+ZKz65/nfORb89upyTKnfx19I5pRECQQD3dVIs03qdhcV8
hCTAxARkWOTjQRm46zGCXLm07/QLkj5TlrghUTdxqc6A/VQri0eR/hlZ2zfr8ZWH
urmiBVhJAkEAzjFpA1QOBXleu6nTACw8hBDUP23IQo5vJVqD32z/bOt3tdW2kZ+H
rydLIhQIZiVh+VLKYTE27VQFHow/kQuCEwJBAK07hW56EbFqr2jOvUfxMT3qeTma
Hl60z3D6ZssC3C6pj1ZHAdnZGF5KyJTGQ4FEPLM4VhjwfUKAWfStxDxnT3kCQACE
5VPJ0WM4JAHq8ooMknZuqGokd52bSDJa4PweBSKcESgXCqehNDE/sxO54y+GppF/
IN1Px2ifjoe+KKbP1ZsCQH53e88jqj6q5+yZKIaBVNhJDwNNTyGNFk+hYhnQCj9f
d2f7I8EIJB170c2xuvRASX4WSXgPHfiZkhHj1gFAv0E=
-----END RSA PRIVATE KEY-----
Certificate:
    Data:
        Version: 3 (0x2)
        Serial Number: 133 (0x85)
    Signature Algorithm: sha256WithRSAEncryption
        Issuer: C=FR, ST=bourgogne, L=dijon, O=eole, OU=ci, CN=ACEoleCI
        Validity
            Not Before: Mar 17 14:36:05 2016 GMT
            Not After : Jun  3 14:36:05 2024 GMT
        Subject: CN=eolebasepriv.etb2.lan
        Subject Public Key Info:
            Public Key Algorithm: rsaEncryption
                Public-Key: (1024 bit)
                Modulus:
                    00:c7:50:2b:17:23:15:8b:29:61:09:b4:7a:02:77:
                    8f:6d:05:8a:4a:13:9b:29:60:de:16:f4:b3:96:9b:
                    bf:4c:08:cd:83:9d:67:a2:c9:ff:15:75:47:b6:48:
                    f0:fe:42:4d:1a:87:cb:84:34:e2:65:25:18:92:5c:
                    b8:95:f6:8a:d9:45:6b:54:4e:88:4b:1a:0b:7a:23:
                    b2:a2:9f:db:76:ee:3d:3e:51:68:95:54:68:f7:a4:
                    01:63:31:22:9e:ac:8e:93:8f:59:2d:c2:bd:1c:52:
                    01:6e:45:62:f3:fb:f5:62:48:6d:56:67:e1:5c:9b:
                    0c:c1:ca:c3:40:e1:5d:9f:6b
                Exponent: 65537 (0x10001)
        X509v3 extensions:
            X509v3 Basic Constraints: 
                CA:FALSE
            X509v3 Subject Key Identifier: 
                BB:30:BB:92:2A:01:F0:29:BF:EA:69:E1:01:D5:DB:FC:AD:8B:90:0B
            X509v3 Authority Key Identifier: 
                keyid:38:DF:46:29:38:B2:13:8B:A5:7C:80:4B:5E:AA:24:DB:25:DC:EC:EE
                DirName:/C=FR/ST=bourgogne/L=dijon/O=eole/OU=ci/CN=ACEoleCI
                serial:81:5A:FE:E5:BA:70:38:01

            X509v3 Key Usage: critical
                Digital Signature, Key Encipherment
            X509v3 Extended Key Usage: 
                TLS Web Server Authentication
    Signature Algorithm: sha256WithRSAEncryption
         1d:b3:5d:b4:de:73:ea:ea:d9:43:fc:ae:4b:cd:73:69:84:a2:
         3e:c4:bd:e1:a0:29:e6:c3:8f:a4:3c:4a:81:2a:62:d4:35:2a:
         12:25:c8:db:e7:5f:2f:0d:fa:e2:7b:29:5b:10:af:47:b8:8a:
         d8:e7:c3:45:ee:d6:68:ff:5f:8c:83:26:9e:49:fc:96:84:ee:
         5c:a8:35:d6:6e:62:c2:0c:86:5e:77:f5:3e:34:7d:b4:16:3e:
         3a:31:38:ac:52:a9:ed:c0:46:25:15:69:6e:f2:e8:c8:da:bb:
         32:f6:ad:b8:96:b2:8a:25:46:c8:a9:6f:74:15:5d:b0:57:e8:
         bf:12
-----BEGIN CERTIFICATE-----
MIIC3zCCAkigAwIBAgICAIUwDQYJKoZIhvcNAQELBQAwYDELMAkGA1UEBhMCRlIx
EjAQBgNVBAgMCWJvdXJnb2duZTEOMAwGA1UEBwwFZGlqb24xDTALBgNVBAoMBGVv
bGUxCzAJBgNVBAsMAmNpMREwDwYDVQQDDAhBQ0VvbGVDSTAeFw0xNjAzMTcxNDM2
MDVaFw0yNDA2MDMxNDM2MDVaMCAxHjAcBgNVBAMMFWVvbGViYXNlcHJpdi5ldGIy
LmxhbjCBnzANBgkqhkiG9w0BAQEFAAOBjQAwgYkCgYEAx1ArFyMViylhCbR6AneP
bQWKShObKWDeFvSzlpu/TAjNg51nosn/FXVHtkjw/kJNGofLhDTiZSUYkly4lfaK
2UVrVE6ISxoLeiOyop/bdu49PlFolVRo96QBYzEinqyOk49ZLcK9HFIBbkVi8/v1
YkhtVmfhXJsMwcrDQOFdn2sCAwEAAaOB5zCB5DAJBgNVHRMEAjAAMB0GA1UdDgQW
BBS7MLuSKgHwKb/qaeEB1dv8rYuQCzCBkgYDVR0jBIGKMIGHgBQ430YpOLITi6V8
gEteqiTbJdzs7qFkpGIwYDELMAkGA1UEBhMCRlIxEjAQBgNVBAgMCWJvdXJnb2du
ZTEOMAwGA1UEBwwFZGlqb24xDTALBgNVBAoMBGVvbGUxCzAJBgNVBAsMAmNpMREw
DwYDVQQDDAhBQ0VvbGVDSYIJAIFa/uW6cDgBMA4GA1UdDwEB/wQEAwIFoDATBgNV
HSUEDDAKBggrBgEFBQcDATANBgkqhkiG9w0BAQsFAAOBgQAds1203nPq6tlD/K5L
zXNphKI+xL3hoCnmw4+kPEqBKmLUNSoSJcjb518vDfrieylbEK9HuIrY58NF7tZo
/1+MgyaeSfyWhO5cqDXWbmLCDIZed/U+NH20Fj46MTisUqntwEYlFWlu8ujI2rsy
9q24lrKKJUbIqW90FV2wV+i/Eg==
-----END CERTIFICATE-----
