Certificate:
    Data:
        Version: 3 (0x2)
        Serial Number: 134 (0x86)
    Signature Algorithm: sha256WithRSAEncryption
        Issuer: C=FR, ST=bourgogne, L=dijon, O=eole, OU=ci, CN=ACEoleCI
        Validity
            Not Before: Mar 17 14:36:05 2016 GMT
            Not After : Jun  3 14:36:05 2024 GMT
        Subject: CN=eolebasepriv.etb2.lan
        Subject Public Key Info:
            Public Key Algorithm: rsaEncryption
                Public-Key: (1024 bit)
                Modulus:
                    00:c7:50:2b:17:23:15:8b:29:61:09:b4:7a:02:77:
                    8f:6d:05:8a:4a:13:9b:29:60:de:16:f4:b3:96:9b:
                    bf:4c:08:cd:83:9d:67:a2:c9:ff:15:75:47:b6:48:
                    f0:fe:42:4d:1a:87:cb:84:34:e2:65:25:18:92:5c:
                    b8:95:f6:8a:d9:45:6b:54:4e:88:4b:1a:0b:7a:23:
                    b2:a2:9f:db:76:ee:3d:3e:51:68:95:54:68:f7:a4:
                    01:63:31:22:9e:ac:8e:93:8f:59:2d:c2:bd:1c:52:
                    01:6e:45:62:f3:fb:f5:62:48:6d:56:67:e1:5c:9b:
                    0c:c1:ca:c3:40:e1:5d:9f:6b
                Exponent: 65537 (0x10001)
        X509v3 extensions:
            X509v3 Basic Constraints: 
                CA:FALSE
            X509v3 Subject Key Identifier: 
                BB:30:BB:92:2A:01:F0:29:BF:EA:69:E1:01:D5:DB:FC:AD:8B:90:0B
            X509v3 Authority Key Identifier: 
                keyid:38:DF:46:29:38:B2:13:8B:A5:7C:80:4B:5E:AA:24:DB:25:DC:EC:EE

            X509v3 Key Usage: critical
                Digital Signature, Non Repudiation, Key Encipherment
            X509v3 Extended Key Usage: 
                TLS Web Client Authentication, E-mail Protection
    Signature Algorithm: sha256WithRSAEncryption
         5a:12:32:b4:6e:03:bc:90:2c:59:cc:6a:4a:f2:f6:20:12:e3:
         8a:91:2e:2e:76:a7:da:e4:ee:e0:df:6c:23:eb:28:ec:f5:b8:
         6e:ed:d0:30:35:87:1f:22:ed:e7:3a:66:79:91:7a:e0:4f:b4:
         81:46:d8:07:96:c9:74:9b:e8:6f:94:2a:ab:79:39:f6:54:88:
         5a:a6:4e:9b:88:12:b7:bd:16:57:d8:58:b1:17:bf:aa:40:d0:
         96:cc:d7:d9:57:12:5a:3a:8b:44:8c:46:4c:12:c8:c2:1a:c8:
         9e:84:0d:e8:0c:67:d2:a7:52:0e:7a:9b:7a:53:fa:8f:08:59:
         0d:f7
-----BEGIN CERTIFICATE-----
MIICczCCAdygAwIBAgICAIYwDQYJKoZIhvcNAQELBQAwYDELMAkGA1UEBhMCRlIx
EjAQBgNVBAgMCWJvdXJnb2duZTEOMAwGA1UEBwwFZGlqb24xDTALBgNVBAoMBGVv
bGUxCzAJBgNVBAsMAmNpMREwDwYDVQQDDAhBQ0VvbGVDSTAeFw0xNjAzMTcxNDM2
MDVaFw0yNDA2MDMxNDM2MDVaMCAxHjAcBgNVBAMMFWVvbGViYXNlcHJpdi5ldGIy
LmxhbjCBnzANBgkqhkiG9w0BAQEFAAOBjQAwgYkCgYEAx1ArFyMViylhCbR6AneP
bQWKShObKWDeFvSzlpu/TAjNg51nosn/FXVHtkjw/kJNGofLhDTiZSUYkly4lfaK
2UVrVE6ISxoLeiOyop/bdu49PlFolVRo96QBYzEinqyOk49ZLcK9HFIBbkVi8/v1
YkhtVmfhXJsMwcrDQOFdn2sCAwEAAaN8MHowCQYDVR0TBAIwADAdBgNVHQ4EFgQU
uzC7kioB8Cm/6mnhAdXb/K2LkAswHwYDVR0jBBgwFoAUON9GKTiyE4ulfIBLXqok
2yXc7O4wDgYDVR0PAQH/BAQDAgXgMB0GA1UdJQQWMBQGCCsGAQUFBwMCBggrBgEF
BQcDBDANBgkqhkiG9w0BAQsFAAOBgQBaEjK0bgO8kCxZzGpK8vYgEuOKkS4udqfa
5O7g32wj6yjs9bhu7dAwNYcfIu3nOmZ5kXrgT7SBRtgHlsl0m+hvlCqreTn2VIha
pk6biBK3vRZX2FixF7+qQNCWzNfZVxJaOotEjEZMEsjCGsiehA3oDGfSp1IOept6
U/qPCFkN9w==
-----END CERTIFICATE-----
