-----BEGIN RSA PRIVATE KEY-----
MIICWwIBAAKBgQCpAj0GONdQkb5SWH/1n5OsbgJV6vXBKW9T0f9AnsCpF6yWqEj+
K+CzUrenB7Tc01uPxozL85dlZ3HFQaZcGF/bWno0AYWi0ktZMqQP6DbzYhobjA8T
clJ0aCrpl0QexyDeJ42xQ5qwFKm7+wl0CF6Qar2ZT67K9hYWfnWJ3UQWqwIDAQAB
AoGAbAuTSawC8m4J9wi+3R7kQGKfuZ+Y9qDvm+1vOjeDQVZyLmptJ5iTcPCbmfuS
Q24XZeXv0t7qVZh5IjrjCJNIi5/qdZ+7PjUPyAkal/qBSoIX3c28WQFSP8TwIV2k
VMlzBUlVH/UWFJrRRJeuElwShIqA7zuvzlRV5qqV4EgRj2kCQQDQTKGliGubFZwB
iIdMGyatwiLlgegmDt3bjMaLYJ8SU3mtxZJGnluTzisPQ8Fv5drR2fZMkG7GUxV5
xNy08vsdAkEAz7Y6yuWG15wEd+Df/2LGoOks3Wh5BA7Wha1X6ElHwyy7XfWZAIFC
hxdEPn6XvYMvRRvp3M6og7099W36X2nmZwJANyxFGMJ0tiRYKTPPmoIKkbW9Zost
QX9olnHIWTyjhcgkj7moUBo76X+PekCZKRl6B2GzUn5jSRbStmlFiIxfpQJAVwTB
HL+L/kgelxpevV9kV4VYhml+SXTt6pL0gRwyNFJJLNP3hX6hoHbe4E+ownxzEUDg
eOEbOBXQH0Iz4kU7gQJAJz4FS9Af86v1n0uu4uRU6gIfXgsJdG/mZs6HVq15RMUz
LtQ5Goa8ZwzL0XyFZ0jV1oGD0FofD71ncF7tDG0jQw==
-----END RSA PRIVATE KEY-----
Certificate:
    Data:
        Version: 3 (0x2)
        Serial Number: 27 (0x1b)
    Signature Algorithm: sha256WithRSAEncryption
        Issuer: C=FR, ST=bourgogne, L=dijon, O=eole, OU=ci, CN=ACEoleCI
        Validity
            Not Before: Mar 17 14:35:35 2016 GMT
            Not After : Jun  3 14:35:35 2024 GMT
        Subject: CN=file.ac-test.lan
        Subject Public Key Info:
            Public Key Algorithm: rsaEncryption
                Public-Key: (1024 bit)
                Modulus:
                    00:a9:02:3d:06:38:d7:50:91:be:52:58:7f:f5:9f:
                    93:ac:6e:02:55:ea:f5:c1:29:6f:53:d1:ff:40:9e:
                    c0:a9:17:ac:96:a8:48:fe:2b:e0:b3:52:b7:a7:07:
                    b4:dc:d3:5b:8f:c6:8c:cb:f3:97:65:67:71:c5:41:
                    a6:5c:18:5f:db:5a:7a:34:01:85:a2:d2:4b:59:32:
                    a4:0f:e8:36:f3:62:1a:1b:8c:0f:13:72:52:74:68:
                    2a:e9:97:44:1e:c7:20:de:27:8d:b1:43:9a:b0:14:
                    a9:bb:fb:09:74:08:5e:90:6a:bd:99:4f:ae:ca:f6:
                    16:16:7e:75:89:dd:44:16:ab
                Exponent: 65537 (0x10001)
        X509v3 extensions:
            X509v3 Basic Constraints: 
                CA:FALSE
            X509v3 Subject Key Identifier: 
                4E:98:3C:C9:1E:D2:61:0D:10:B9:06:C4:60:29:50:88:36:7C:AC:B3
            X509v3 Authority Key Identifier: 
                keyid:38:DF:46:29:38:B2:13:8B:A5:7C:80:4B:5E:AA:24:DB:25:DC:EC:EE
                DirName:/C=FR/ST=bourgogne/L=dijon/O=eole/OU=ci/CN=ACEoleCI
                serial:81:5A:FE:E5:BA:70:38:01

            X509v3 Key Usage: critical
                Digital Signature, Key Encipherment
    Signature Algorithm: sha256WithRSAEncryption
         0d:be:6b:3d:19:a7:c0:a1:95:34:1b:c1:d6:c8:fe:2b:18:63:
         80:5f:27:9b:10:1b:aa:b2:af:ff:e5:b9:42:db:2f:d9:4e:0b:
         30:bb:30:28:78:c6:9e:d4:6f:f4:e1:ac:91:d1:fa:0c:94:0a:
         55:df:a9:63:fb:a1:c6:dc:45:32:90:f1:e3:76:94:82:74:72:
         9b:b4:b6:c5:28:78:db:37:72:90:f2:50:0a:2f:82:a0:dd:4e:
         55:9d:42:c6:a6:28:89:de:c4:b2:f4:8a:3b:68:9b:1a:64:e1:
         9e:fc:90:c8:c9:d4:46:02:2a:ad:f4:cc:66:d9:ba:d6:fc:b4:
         46:e4
-----BEGIN CERTIFICATE-----
MIICxDCCAi2gAwIBAgIBGzANBgkqhkiG9w0BAQsFADBgMQswCQYDVQQGEwJGUjES
MBAGA1UECAwJYm91cmdvZ25lMQ4wDAYDVQQHDAVkaWpvbjENMAsGA1UECgwEZW9s
ZTELMAkGA1UECwwCY2kxETAPBgNVBAMMCEFDRW9sZUNJMB4XDTE2MDMxNzE0MzUz
NVoXDTI0MDYwMzE0MzUzNVowGzEZMBcGA1UEAwwQZmlsZS5hYy10ZXN0LmxhbjCB
nzANBgkqhkiG9w0BAQEFAAOBjQAwgYkCgYEAqQI9BjjXUJG+Ulh/9Z+TrG4CVer1
wSlvU9H/QJ7AqReslqhI/ivgs1K3pwe03NNbj8aMy/OXZWdxxUGmXBhf21p6NAGF
otJLWTKkD+g282IaG4wPE3JSdGgq6ZdEHscg3ieNsUOasBSpu/sJdAhekGq9mU+u
yvYWFn51id1EFqsCAwEAAaOB0jCBzzAJBgNVHRMEAjAAMB0GA1UdDgQWBBROmDzJ
HtJhDRC5BsRgKVCINnysszCBkgYDVR0jBIGKMIGHgBQ430YpOLITi6V8gEteqiTb
Jdzs7qFkpGIwYDELMAkGA1UEBhMCRlIxEjAQBgNVBAgMCWJvdXJnb2duZTEOMAwG
A1UEBwwFZGlqb24xDTALBgNVBAoMBGVvbGUxCzAJBgNVBAsMAmNpMREwDwYDVQQD
DAhBQ0VvbGVDSYIJAIFa/uW6cDgBMA4GA1UdDwEB/wQEAwIFoDANBgkqhkiG9w0B
AQsFAAOBgQANvms9GafAoZU0G8HWyP4rGGOAXyebEBuqsq//5blC2y/ZTgswuzAo
eMae1G/04ayR0foMlApV36lj+6HG3EUykPHjdpSCdHKbtLbFKHjbN3KQ8lAKL4Kg
3U5VnULGpiiJ3sSy9Io7aJsaZOGe/JDIydRGAiqt9Mxm2brW/LRG5A==
-----END CERTIFICATE-----
