Certificate:
    Data:
        Version: 3 (0x2)
        Serial Number: 25 (0x19)
    Signature Algorithm: sha256WithRSAEncryption
        Issuer: C=FR, ST=bourgogne, L=dijon, O=eole, OU=ci, CN=ACEoleCI
        Validity
            Not Before: Mar 17 14:35:35 2016 GMT
            Not After : Jun  3 14:35:35 2024 GMT
        Subject: CN=file.ac-test.lan
        Subject Public Key Info:
            Public Key Algorithm: rsaEncryption
                Public-Key: (1024 bit)
                Modulus:
                    00:a9:02:3d:06:38:d7:50:91:be:52:58:7f:f5:9f:
                    93:ac:6e:02:55:ea:f5:c1:29:6f:53:d1:ff:40:9e:
                    c0:a9:17:ac:96:a8:48:fe:2b:e0:b3:52:b7:a7:07:
                    b4:dc:d3:5b:8f:c6:8c:cb:f3:97:65:67:71:c5:41:
                    a6:5c:18:5f:db:5a:7a:34:01:85:a2:d2:4b:59:32:
                    a4:0f:e8:36:f3:62:1a:1b:8c:0f:13:72:52:74:68:
                    2a:e9:97:44:1e:c7:20:de:27:8d:b1:43:9a:b0:14:
                    a9:bb:fb:09:74:08:5e:90:6a:bd:99:4f:ae:ca:f6:
                    16:16:7e:75:89:dd:44:16:ab
                Exponent: 65537 (0x10001)
        X509v3 extensions:
            X509v3 Basic Constraints: 
                CA:FALSE
            X509v3 Subject Key Identifier: 
                4E:98:3C:C9:1E:D2:61:0D:10:B9:06:C4:60:29:50:88:36:7C:AC:B3
            X509v3 Authority Key Identifier: 
                keyid:38:DF:46:29:38:B2:13:8B:A5:7C:80:4B:5E:AA:24:DB:25:DC:EC:EE
                DirName:/C=FR/ST=bourgogne/L=dijon/O=eole/OU=ci/CN=ACEoleCI
                serial:81:5A:FE:E5:BA:70:38:01

            X509v3 Key Usage: critical
                Digital Signature, Key Encipherment
            X509v3 Extended Key Usage: 
                TLS Web Server Authentication
    Signature Algorithm: sha256WithRSAEncryption
         86:46:b6:bf:0c:c1:3c:ac:12:c7:9d:ef:93:61:b9:50:8e:83:
         de:52:a4:c9:84:2c:c5:57:b8:47:61:f8:6e:3d:73:88:89:22:
         75:2c:5f:fc:50:aa:84:bf:85:08:2d:2b:53:7c:38:a1:a6:74:
         7e:d4:b8:4a:5d:b8:b0:4b:d9:e2:2f:c9:55:6d:27:74:f0:2c:
         5a:58:87:8c:ac:ae:7d:9c:d4:e3:a5:84:71:5e:f3:74:c2:72:
         5d:f7:c9:a1:42:db:63:75:18:6a:3e:45:40:6f:b7:55:6f:80:
         40:18:4c:23:00:32:69:e8:b1:c4:b3:3a:24:b1:ee:ef:cb:48:
         89:38
-----BEGIN CERTIFICATE-----
MIIC2TCCAkKgAwIBAgIBGTANBgkqhkiG9w0BAQsFADBgMQswCQYDVQQGEwJGUjES
MBAGA1UECAwJYm91cmdvZ25lMQ4wDAYDVQQHDAVkaWpvbjENMAsGA1UECgwEZW9s
ZTELMAkGA1UECwwCY2kxETAPBgNVBAMMCEFDRW9sZUNJMB4XDTE2MDMxNzE0MzUz
NVoXDTI0MDYwMzE0MzUzNVowGzEZMBcGA1UEAwwQZmlsZS5hYy10ZXN0LmxhbjCB
nzANBgkqhkiG9w0BAQEFAAOBjQAwgYkCgYEAqQI9BjjXUJG+Ulh/9Z+TrG4CVer1
wSlvU9H/QJ7AqReslqhI/ivgs1K3pwe03NNbj8aMy/OXZWdxxUGmXBhf21p6NAGF
otJLWTKkD+g282IaG4wPE3JSdGgq6ZdEHscg3ieNsUOasBSpu/sJdAhekGq9mU+u
yvYWFn51id1EFqsCAwEAAaOB5zCB5DAJBgNVHRMEAjAAMB0GA1UdDgQWBBROmDzJ
HtJhDRC5BsRgKVCINnysszCBkgYDVR0jBIGKMIGHgBQ430YpOLITi6V8gEteqiTb
Jdzs7qFkpGIwYDELMAkGA1UEBhMCRlIxEjAQBgNVBAgMCWJvdXJnb2duZTEOMAwG
A1UEBwwFZGlqb24xDTALBgNVBAoMBGVvbGUxCzAJBgNVBAsMAmNpMREwDwYDVQQD
DAhBQ0VvbGVDSYIJAIFa/uW6cDgBMA4GA1UdDwEB/wQEAwIFoDATBgNVHSUEDDAK
BggrBgEFBQcDATANBgkqhkiG9w0BAQsFAAOBgQCGRra/DME8rBLHne+TYblQjoPe
UqTJhCzFV7hHYfhuPXOIiSJ1LF/8UKqEv4UILStTfDihpnR+1LhKXbiwS9niL8lV
bSd08CxaWIeMrK59nNTjpYRxXvN0wnJd98mhQttjdRhqPkVAb7dVb4BAGEwjADJp
6LHEszokse7vy0iJOA==
-----END CERTIFICATE-----
