-----BEGIN RSA PRIVATE KEY-----
MIICWwIBAAKBgQCxwuao5BRwDlCrKmoWlsulTKjk9WWNShdA4QUQQ8YE7PVkljjJ
n57a+OtuxIR4I2XQHovihK6qSirtfPBfNqodFg34DBBYF3tXisf0o9KIv65f0NZL
u8uXBBEJJnBHLDq0Y/b1/VrknWBD8gTh9kbfuucu4vYORud5a1PpD0qHNQIDAQAB
AoGAUNQ23gUX5fwcYjhfFPZskzVQdwu+qYhPGok3LDYlDIhS7PIB0GxsZ1VYeH2T
Xq151jCNmuqKIZSoAGUXR7QrlVwOwS/0ej2LhuUpVOGt3mk4fSgPKsWCpqwpE7IR
djQgUMOMhpp/FtNiNK94JgQslIe3XPnzUGCmLFzu8qfW4uECQQDeXbvOgbTV5S2Q
+IlhyGlkq8YdtI8nBefwmG7JCqrLi+Jpr3XPXldicdOfSykGm8qQGs+3Jzm2oJqI
Mm8pdlQDAkEAzKYE2/zsFk8iEQmK6gxSJqa6rtVtgeUfuey/yvf+Dm6W11JXOmB3
Wr38tq23l+JmbocOi600McrqrmPvxXI+ZwJAQvJvf53XZupnzJS3L+RZrsB0li7t
Rm9lxC7wc8CtaTjFQtJbosIhhvcEIppLUL0IwFgCH39ExfIWdFjS1OXWJwJAdPL7
G+xxzl3yjeHyLMZVvBjT3k3BgtW5R7rv78HAweaY9PvtNUMjcgvYe1zS6k1LVCaC
PXgBt+LKMlaSEzeySQJASmB9KlMUPJYpiAEyWSapZfhct6nbyBvUGvhSM2pbR/0w
reRd/OKC2WqQCVkYGXxhoqPSGxbwOMOx1k2WgseMXQ==
-----END RSA PRIVATE KEY-----
Certificate:
    Data:
        Version: 3 (0x2)
        Serial Number: 110 (0x6e)
    Signature Algorithm: sha256WithRSAEncryption
        Issuer: C=FR, ST=bourgogne, L=dijon, O=eole, OU=ci, CN=ACEoleCI
        Validity
            Not Before: Mar 17 14:35:59 2016 GMT
            Not After : Jun  3 14:35:59 2024 GMT
        Subject: CN=pcprofs.etb1.lan
        Subject Public Key Info:
            Public Key Algorithm: rsaEncryption
                Public-Key: (1024 bit)
                Modulus:
                    00:b1:c2:e6:a8:e4:14:70:0e:50:ab:2a:6a:16:96:
                    cb:a5:4c:a8:e4:f5:65:8d:4a:17:40:e1:05:10:43:
                    c6:04:ec:f5:64:96:38:c9:9f:9e:da:f8:eb:6e:c4:
                    84:78:23:65:d0:1e:8b:e2:84:ae:aa:4a:2a:ed:7c:
                    f0:5f:36:aa:1d:16:0d:f8:0c:10:58:17:7b:57:8a:
                    c7:f4:a3:d2:88:bf:ae:5f:d0:d6:4b:bb:cb:97:04:
                    11:09:26:70:47:2c:3a:b4:63:f6:f5:fd:5a:e4:9d:
                    60:43:f2:04:e1:f6:46:df:ba:e7:2e:e2:f6:0e:46:
                    e7:79:6b:53:e9:0f:4a:87:35
                Exponent: 65537 (0x10001)
        X509v3 extensions:
            X509v3 Basic Constraints: 
                CA:FALSE
            X509v3 Subject Key Identifier: 
                0B:BD:EE:4B:F0:E8:EB:10:6E:B5:9A:7A:8E:41:84:03:3F:C0:A9:41
            X509v3 Authority Key Identifier: 
                keyid:38:DF:46:29:38:B2:13:8B:A5:7C:80:4B:5E:AA:24:DB:25:DC:EC:EE

            X509v3 Key Usage: critical
                Digital Signature, Non Repudiation, Key Encipherment
            X509v3 Extended Key Usage: 
                TLS Web Client Authentication, E-mail Protection
    Signature Algorithm: sha256WithRSAEncryption
         63:cd:57:4f:8f:bd:e5:7c:69:18:71:00:f7:15:99:9b:7f:f5:
         09:36:e7:62:de:b3:60:e6:3e:fd:23:cd:e9:34:db:ec:17:0d:
         9e:63:80:41:9c:25:44:d5:26:15:12:9e:32:aa:09:00:16:42:
         dd:f5:73:02:b9:b9:7a:5b:f3:92:31:bb:c6:02:82:f8:c4:df:
         7f:43:b2:25:1b:18:50:89:86:a0:bc:d3:6f:84:5b:bb:41:51:
         f4:8f:42:01:a0:59:2d:b9:62:8d:af:a3:51:19:f2:81:02:a8:
         fb:93:fe:10:85:88:3f:b7:6c:18:40:06:02:53:d4:45:dc:9d:
         32:87
-----BEGIN CERTIFICATE-----
MIICbTCCAdagAwIBAgIBbjANBgkqhkiG9w0BAQsFADBgMQswCQYDVQQGEwJGUjES
MBAGA1UECAwJYm91cmdvZ25lMQ4wDAYDVQQHDAVkaWpvbjENMAsGA1UECgwEZW9s
ZTELMAkGA1UECwwCY2kxETAPBgNVBAMMCEFDRW9sZUNJMB4XDTE2MDMxNzE0MzU1
OVoXDTI0MDYwMzE0MzU1OVowGzEZMBcGA1UEAwwQcGNwcm9mcy5ldGIxLmxhbjCB
nzANBgkqhkiG9w0BAQEFAAOBjQAwgYkCgYEAscLmqOQUcA5QqypqFpbLpUyo5PVl
jUoXQOEFEEPGBOz1ZJY4yZ+e2vjrbsSEeCNl0B6L4oSuqkoq7XzwXzaqHRYN+AwQ
WBd7V4rH9KPSiL+uX9DWS7vLlwQRCSZwRyw6tGP29f1a5J1gQ/IE4fZG37rnLuL2
DkbneWtT6Q9KhzUCAwEAAaN8MHowCQYDVR0TBAIwADAdBgNVHQ4EFgQUC73uS/Do
6xButZp6jkGEAz/AqUEwHwYDVR0jBBgwFoAUON9GKTiyE4ulfIBLXqok2yXc7O4w
DgYDVR0PAQH/BAQDAgXgMB0GA1UdJQQWMBQGCCsGAQUFBwMCBggrBgEFBQcDBDAN
BgkqhkiG9w0BAQsFAAOBgQBjzVdPj73lfGkYcQD3FZmbf/UJNudi3rNg5j79I83p
NNvsFw2eY4BBnCVE1SYVEp4yqgkAFkLd9XMCubl6W/OSMbvGAoL4xN9/Q7IlGxhQ
iYagvNNvhFu7QVH0j0IBoFktuWKNr6NRGfKBAqj7k/4QhYg/t2wYQAYCU9RF3J0y
hw==
-----END CERTIFICATE-----
