Certificate:
    Data:
        Version: 3 (0x2)
        Serial Number: 109 (0x6d)
    Signature Algorithm: sha256WithRSAEncryption
        Issuer: C=FR, ST=bourgogne, L=dijon, O=eole, OU=ci, CN=ACEoleCI
        Validity
            Not Before: Mar 17 14:35:58 2016 GMT
            Not After : Jun  3 14:35:58 2024 GMT
        Subject: CN=pcprofs.etb1.lan
        Subject Public Key Info:
            Public Key Algorithm: rsaEncryption
                Public-Key: (1024 bit)
                Modulus:
                    00:b1:c2:e6:a8:e4:14:70:0e:50:ab:2a:6a:16:96:
                    cb:a5:4c:a8:e4:f5:65:8d:4a:17:40:e1:05:10:43:
                    c6:04:ec:f5:64:96:38:c9:9f:9e:da:f8:eb:6e:c4:
                    84:78:23:65:d0:1e:8b:e2:84:ae:aa:4a:2a:ed:7c:
                    f0:5f:36:aa:1d:16:0d:f8:0c:10:58:17:7b:57:8a:
                    c7:f4:a3:d2:88:bf:ae:5f:d0:d6:4b:bb:cb:97:04:
                    11:09:26:70:47:2c:3a:b4:63:f6:f5:fd:5a:e4:9d:
                    60:43:f2:04:e1:f6:46:df:ba:e7:2e:e2:f6:0e:46:
                    e7:79:6b:53:e9:0f:4a:87:35
                Exponent: 65537 (0x10001)
        X509v3 extensions:
            X509v3 Basic Constraints: 
                CA:FALSE
            X509v3 Subject Key Identifier: 
                0B:BD:EE:4B:F0:E8:EB:10:6E:B5:9A:7A:8E:41:84:03:3F:C0:A9:41
            X509v3 Authority Key Identifier: 
                keyid:38:DF:46:29:38:B2:13:8B:A5:7C:80:4B:5E:AA:24:DB:25:DC:EC:EE
                DirName:/C=FR/ST=bourgogne/L=dijon/O=eole/OU=ci/CN=ACEoleCI
                serial:81:5A:FE:E5:BA:70:38:01

            X509v3 Key Usage: critical
                Digital Signature, Key Encipherment
            X509v3 Extended Key Usage: 
                TLS Web Server Authentication
    Signature Algorithm: sha256WithRSAEncryption
         8d:a3:5d:5e:01:1b:c5:bd:1a:73:c1:3e:13:10:0e:8b:4e:ab:
         00:a8:a3:08:30:b5:e2:72:c3:80:b8:4c:24:5d:fd:c9:3b:ca:
         4f:e5:3f:44:fd:ef:df:e0:3a:45:18:e0:df:e6:b4:3e:37:d7:
         86:34:69:7a:ab:d8:a1:7e:20:a5:a0:83:ce:78:e5:62:db:c2:
         d3:6c:0e:11:34:2a:d1:2f:19:a0:6f:3b:3b:fb:f9:91:79:55:
         fd:70:47:e7:ad:55:00:4e:5e:f9:b1:84:93:d9:f5:f2:19:d6:
         cd:57:10:b9:3e:0a:b9:30:c1:d7:57:0b:bd:b5:cf:06:3a:51:
         1f:05
-----BEGIN CERTIFICATE-----
MIIC2TCCAkKgAwIBAgIBbTANBgkqhkiG9w0BAQsFADBgMQswCQYDVQQGEwJGUjES
MBAGA1UECAwJYm91cmdvZ25lMQ4wDAYDVQQHDAVkaWpvbjENMAsGA1UECgwEZW9s
ZTELMAkGA1UECwwCY2kxETAPBgNVBAMMCEFDRW9sZUNJMB4XDTE2MDMxNzE0MzU1
OFoXDTI0MDYwMzE0MzU1OFowGzEZMBcGA1UEAwwQcGNwcm9mcy5ldGIxLmxhbjCB
nzANBgkqhkiG9w0BAQEFAAOBjQAwgYkCgYEAscLmqOQUcA5QqypqFpbLpUyo5PVl
jUoXQOEFEEPGBOz1ZJY4yZ+e2vjrbsSEeCNl0B6L4oSuqkoq7XzwXzaqHRYN+AwQ
WBd7V4rH9KPSiL+uX9DWS7vLlwQRCSZwRyw6tGP29f1a5J1gQ/IE4fZG37rnLuL2
DkbneWtT6Q9KhzUCAwEAAaOB5zCB5DAJBgNVHRMEAjAAMB0GA1UdDgQWBBQLve5L
8OjrEG61mnqOQYQDP8CpQTCBkgYDVR0jBIGKMIGHgBQ430YpOLITi6V8gEteqiTb
Jdzs7qFkpGIwYDELMAkGA1UEBhMCRlIxEjAQBgNVBAgMCWJvdXJnb2duZTEOMAwG
A1UEBwwFZGlqb24xDTALBgNVBAoMBGVvbGUxCzAJBgNVBAsMAmNpMREwDwYDVQQD
DAhBQ0VvbGVDSYIJAIFa/uW6cDgBMA4GA1UdDwEB/wQEAwIFoDATBgNVHSUEDDAK
BggrBgEFBQcDATANBgkqhkiG9w0BAQsFAAOBgQCNo11eARvFvRpzwT4TEA6LTqsA
qKMIMLXicsOAuEwkXf3JO8pP5T9E/e/f4DpFGODf5rQ+N9eGNGl6q9ihfiCloIPO
eOVi28LTbA4RNCrRLxmgbzs7+/mReVX9cEfnrVUATl75sYST2fXyGdbNVxC5Pgq5
MMHXVwu9tc8GOlEfBQ==
-----END CERTIFICATE-----
