Certificate:
    Data:
        Version: 3 (0x2)
        Serial Number: 1 (0x1)
    Signature Algorithm: sha256WithRSAEncryption
        Issuer: C=FR, ST=bourgogne, L=dijon, O=eole, OU=ci, CN=ACEoleCI
        Validity
            Not Before: Mar 17 14:35:29 2016 GMT
            Not After : Jun  3 14:35:29 2024 GMT
        Subject: CN=dc1.ac-test.lan
        Subject Public Key Info:
            Public Key Algorithm: rsaEncryption
                Public-Key: (1024 bit)
                Modulus:
                    00:b7:d5:e0:4b:06:a8:d7:d3:b4:7b:13:65:82:5e:
                    af:bf:c6:78:d0:99:4c:6c:b3:12:f4:4b:87:81:0c:
                    2a:92:e3:65:91:38:99:98:5f:1f:54:b1:ec:d7:3c:
                    11:18:27:eb:c3:9d:b1:76:1f:79:9a:28:7f:a4:7b:
                    d3:86:59:88:57:f2:ca:3a:5c:01:90:1b:55:37:62:
                    38:ae:18:64:20:9e:0e:43:28:bd:21:0e:f7:9d:8a:
                    f4:f5:71:2c:78:d8:93:b7:4f:a2:5e:81:b5:d5:fe:
                    d6:0c:2b:17:60:52:ab:62:05:af:35:dc:b4:5a:fa:
                    d4:10:d5:96:34:e6:1a:02:4d
                Exponent: 65537 (0x10001)
        X509v3 extensions:
            X509v3 Basic Constraints: 
                CA:FALSE
            X509v3 Subject Key Identifier: 
                4F:9D:0F:87:20:A9:8F:EC:20:70:2A:8A:8F:76:11:03:55:1C:F3:F5
            X509v3 Authority Key Identifier: 
                keyid:38:DF:46:29:38:B2:13:8B:A5:7C:80:4B:5E:AA:24:DB:25:DC:EC:EE
                DirName:/C=FR/ST=bourgogne/L=dijon/O=eole/OU=ci/CN=ACEoleCI
                serial:81:5A:FE:E5:BA:70:38:01

            X509v3 Key Usage: critical
                Digital Signature, Key Encipherment
            X509v3 Extended Key Usage: 
                TLS Web Server Authentication
    Signature Algorithm: sha256WithRSAEncryption
         74:68:2b:a5:3a:2c:50:d0:2d:a5:8d:0d:2e:d3:41:7b:33:af:
         1f:02:62:a6:0d:7e:27:cd:50:3c:02:91:be:ba:70:78:cd:b4:
         17:29:8d:5a:8e:be:ab:cf:11:1c:87:33:b4:8d:8d:91:9f:f0:
         51:f6:94:b6:43:bb:87:6d:da:c3:7b:fd:5a:b5:dd:24:0a:40:
         d8:4d:a3:8f:80:2b:ad:d1:a8:3c:e5:1e:4d:01:86:52:41:2b:
         43:14:d0:c1:97:07:e5:aa:ec:a9:46:74:b6:60:ef:f6:61:af:
         be:a4:5a:c9:62:25:56:29:70:26:f6:22:f0:34:fd:a9:1b:a0:
         de:aa
-----BEGIN CERTIFICATE-----
MIIC2DCCAkGgAwIBAgIBATANBgkqhkiG9w0BAQsFADBgMQswCQYDVQQGEwJGUjES
MBAGA1UECAwJYm91cmdvZ25lMQ4wDAYDVQQHDAVkaWpvbjENMAsGA1UECgwEZW9s
ZTELMAkGA1UECwwCY2kxETAPBgNVBAMMCEFDRW9sZUNJMB4XDTE2MDMxNzE0MzUy
OVoXDTI0MDYwMzE0MzUyOVowGjEYMBYGA1UEAwwPZGMxLmFjLXRlc3QubGFuMIGf
MA0GCSqGSIb3DQEBAQUAA4GNADCBiQKBgQC31eBLBqjX07R7E2WCXq+/xnjQmUxs
sxL0S4eBDCqS42WROJmYXx9UsezXPBEYJ+vDnbF2H3maKH+ke9OGWYhX8so6XAGQ
G1U3YjiuGGQgng5DKL0hDvedivT1cSx42JO3T6JegbXV/tYMKxdgUqtiBa813LRa
+tQQ1ZY05hoCTQIDAQABo4HnMIHkMAkGA1UdEwQCMAAwHQYDVR0OBBYEFE+dD4cg
qY/sIHAqio92EQNVHPP1MIGSBgNVHSMEgYowgYeAFDjfRik4shOLpXyAS16qJNsl
3OzuoWSkYjBgMQswCQYDVQQGEwJGUjESMBAGA1UECAwJYm91cmdvZ25lMQ4wDAYD
VQQHDAVkaWpvbjENMAsGA1UECgwEZW9sZTELMAkGA1UECwwCY2kxETAPBgNVBAMM
CEFDRW9sZUNJggkAgVr+5bpwOAEwDgYDVR0PAQH/BAQDAgWgMBMGA1UdJQQMMAoG
CCsGAQUFBwMBMA0GCSqGSIb3DQEBCwUAA4GBAHRoK6U6LFDQLaWNDS7TQXszrx8C
YqYNfifNUDwCkb66cHjNtBcpjVqOvqvPERyHM7SNjZGf8FH2lLZDu4dt2sN7/Vq1
3SQKQNhNo4+AK63RqDzlHk0BhlJBK0MU0MGXB+Wq7KlGdLZg7/Zhr76kWsliJVYp
cCb2IvA0/akboN6q
-----END CERTIFICATE-----
