Certificate:
    Data:
        Version: 3 (0x2)
        Serial Number: 2 (0x2)
    Signature Algorithm: sha256WithRSAEncryption
        Issuer: C=FR, ST=bourgogne, L=dijon, O=eole, OU=ci, CN=ACEoleCI
        Validity
            Not Before: Mar 17 14:35:29 2016 GMT
            Not After : Jun  3 14:35:29 2024 GMT
        Subject: CN=dc1.ac-test.lan
        Subject Public Key Info:
            Public Key Algorithm: rsaEncryption
                Public-Key: (1024 bit)
                Modulus:
                    00:b7:d5:e0:4b:06:a8:d7:d3:b4:7b:13:65:82:5e:
                    af:bf:c6:78:d0:99:4c:6c:b3:12:f4:4b:87:81:0c:
                    2a:92:e3:65:91:38:99:98:5f:1f:54:b1:ec:d7:3c:
                    11:18:27:eb:c3:9d:b1:76:1f:79:9a:28:7f:a4:7b:
                    d3:86:59:88:57:f2:ca:3a:5c:01:90:1b:55:37:62:
                    38:ae:18:64:20:9e:0e:43:28:bd:21:0e:f7:9d:8a:
                    f4:f5:71:2c:78:d8:93:b7:4f:a2:5e:81:b5:d5:fe:
                    d6:0c:2b:17:60:52:ab:62:05:af:35:dc:b4:5a:fa:
                    d4:10:d5:96:34:e6:1a:02:4d
                Exponent: 65537 (0x10001)
        X509v3 extensions:
            X509v3 Basic Constraints: 
                CA:FALSE
            X509v3 Subject Key Identifier: 
                4F:9D:0F:87:20:A9:8F:EC:20:70:2A:8A:8F:76:11:03:55:1C:F3:F5
            X509v3 Authority Key Identifier: 
                keyid:38:DF:46:29:38:B2:13:8B:A5:7C:80:4B:5E:AA:24:DB:25:DC:EC:EE

            X509v3 Key Usage: critical
                Digital Signature, Non Repudiation, Key Encipherment
            X509v3 Extended Key Usage: 
                TLS Web Client Authentication, E-mail Protection
    Signature Algorithm: sha256WithRSAEncryption
         5b:ad:64:b2:5f:ba:be:c2:e6:e5:57:da:aa:e8:a9:be:22:14:
         4e:7f:22:fa:6d:4f:bc:f2:24:88:a5:96:ba:ed:b1:64:04:24:
         41:14:bf:db:cc:a1:4c:03:ea:98:c8:90:c9:e6:2f:af:0c:ac:
         7b:37:40:59:74:02:a9:4a:19:9e:22:42:61:05:e0:5b:f3:02:
         8f:df:72:6b:47:ca:96:96:8a:3a:ae:27:88:98:eb:57:98:b1:
         21:32:74:67:65:c4:0e:65:d6:35:54:7d:1c:c8:4e:0a:0c:7d:
         88:50:6b:54:60:22:57:60:15:e4:6a:d0:82:ec:b1:68:c2:2a:
         14:74
-----BEGIN CERTIFICATE-----
MIICbDCCAdWgAwIBAgIBAjANBgkqhkiG9w0BAQsFADBgMQswCQYDVQQGEwJGUjES
MBAGA1UECAwJYm91cmdvZ25lMQ4wDAYDVQQHDAVkaWpvbjENMAsGA1UECgwEZW9s
ZTELMAkGA1UECwwCY2kxETAPBgNVBAMMCEFDRW9sZUNJMB4XDTE2MDMxNzE0MzUy
OVoXDTI0MDYwMzE0MzUyOVowGjEYMBYGA1UEAwwPZGMxLmFjLXRlc3QubGFuMIGf
MA0GCSqGSIb3DQEBAQUAA4GNADCBiQKBgQC31eBLBqjX07R7E2WCXq+/xnjQmUxs
sxL0S4eBDCqS42WROJmYXx9UsezXPBEYJ+vDnbF2H3maKH+ke9OGWYhX8so6XAGQ
G1U3YjiuGGQgng5DKL0hDvedivT1cSx42JO3T6JegbXV/tYMKxdgUqtiBa813LRa
+tQQ1ZY05hoCTQIDAQABo3wwejAJBgNVHRMEAjAAMB0GA1UdDgQWBBRPnQ+HIKmP
7CBwKoqPdhEDVRzz9TAfBgNVHSMEGDAWgBQ430YpOLITi6V8gEteqiTbJdzs7jAO
BgNVHQ8BAf8EBAMCBeAwHQYDVR0lBBYwFAYIKwYBBQUHAwIGCCsGAQUFBwMEMA0G
CSqGSIb3DQEBCwUAA4GBAFutZLJfur7C5uVX2qroqb4iFE5/IvptT7zyJIillrrt
sWQEJEEUv9vMoUwD6pjIkMnmL68MrHs3QFl0AqlKGZ4iQmEF4FvzAo/fcmtHypaW
ijquJ4iY61eYsSEydGdlxA5l1jVUfRzITgoMfYhQa1RgIldgFeRq0ILssWjCKhR0
-----END CERTIFICATE-----
