-----BEGIN RSA PRIVATE KEY-----
MIICWwIBAAKBgQC31eBLBqjX07R7E2WCXq+/xnjQmUxssxL0S4eBDCqS42WROJmY
Xx9UsezXPBEYJ+vDnbF2H3maKH+ke9OGWYhX8so6XAGQG1U3YjiuGGQgng5DKL0h
DvedivT1cSx42JO3T6JegbXV/tYMKxdgUqtiBa813LRa+tQQ1ZY05hoCTQIDAQAB
AoGAAVrXK1ZiOiz6QIn1Do/qFay9yTPIB2kOc7R2zDGtwqVgY0CaiS/ySCqDh1aO
/bGVoDxySV+UAtnXjvvGpE/WnGQfO/5HtNXioLujWPQlyR5dsr2pBf4g1CgTX4kA
VRkHJoRYxb3mG4WXrifHUPyIeinJVKKsi3Wbq/nbrCOBmGECQQDjDnMDsI2DwdLn
E9tMiXF6BI0Q/qFWChG6oAVTQZOySR1Cwb+DkBwrOWL7dWyEMJncMXA3RKR6r11q
D3ZwcgjlAkEAz0T+Mci7ySbwy6oTMklRPyqEFLBfT4xmw1SdPDLs6K1tQ9ifsm8t
AAbMdEkIjqGiZA/Vi16ueB+e/5aldDUFSQJAcYwaTHAQdSGK3PB7LO1XCFQaT7Nm
72Yds5yuzRHwUKprraTCp4J788nBDEuOtxSu/QTkP19eedQU/SM6ccU1WQJAJWha
SDnmSmOQyfEkDctVsoTF2cYLLZw1X8OBrT+zqjrCoaATEm0mPf78H3Ce7r8VQ+Hn
tIOeEWgDljVmHxcCoQJAFnooupCT9aCDYalKkGq+wTHGdKIJKiyoCskG1QZe2L8p
97922s/ApN0OQxrf+ejcNecjsTc8XE5F8MTD9uSsww==
-----END RSA PRIVATE KEY-----
Certificate:
    Data:
        Version: 3 (0x2)
        Serial Number: 3 (0x3)
    Signature Algorithm: sha256WithRSAEncryption
        Issuer: C=FR, ST=bourgogne, L=dijon, O=eole, OU=ci, CN=ACEoleCI
        Validity
            Not Before: Mar 17 14:35:30 2016 GMT
            Not After : Jun  3 14:35:30 2024 GMT
        Subject: CN=dc1.ac-test.lan
        Subject Public Key Info:
            Public Key Algorithm: rsaEncryption
                Public-Key: (1024 bit)
                Modulus:
                    00:b7:d5:e0:4b:06:a8:d7:d3:b4:7b:13:65:82:5e:
                    af:bf:c6:78:d0:99:4c:6c:b3:12:f4:4b:87:81:0c:
                    2a:92:e3:65:91:38:99:98:5f:1f:54:b1:ec:d7:3c:
                    11:18:27:eb:c3:9d:b1:76:1f:79:9a:28:7f:a4:7b:
                    d3:86:59:88:57:f2:ca:3a:5c:01:90:1b:55:37:62:
                    38:ae:18:64:20:9e:0e:43:28:bd:21:0e:f7:9d:8a:
                    f4:f5:71:2c:78:d8:93:b7:4f:a2:5e:81:b5:d5:fe:
                    d6:0c:2b:17:60:52:ab:62:05:af:35:dc:b4:5a:fa:
                    d4:10:d5:96:34:e6:1a:02:4d
                Exponent: 65537 (0x10001)
        X509v3 extensions:
            X509v3 Basic Constraints: 
                CA:FALSE
            X509v3 Subject Key Identifier: 
                4F:9D:0F:87:20:A9:8F:EC:20:70:2A:8A:8F:76:11:03:55:1C:F3:F5
            X509v3 Authority Key Identifier: 
                keyid:38:DF:46:29:38:B2:13:8B:A5:7C:80:4B:5E:AA:24:DB:25:DC:EC:EE
                DirName:/C=FR/ST=bourgogne/L=dijon/O=eole/OU=ci/CN=ACEoleCI
                serial:81:5A:FE:E5:BA:70:38:01

            X509v3 Key Usage: critical
                Digital Signature, Key Encipherment
    Signature Algorithm: sha256WithRSAEncryption
         28:90:29:35:f4:22:9a:75:c4:8d:d3:01:03:21:01:6f:00:28:
         5e:60:de:ad:54:f4:08:05:06:91:d2:b0:80:32:6d:67:91:80:
         ae:0a:ac:99:5d:95:e7:8a:35:9e:cc:4a:f8:9f:43:39:e0:f6:
         d9:64:ee:92:50:5e:ec:3e:79:b0:8e:36:4b:ce:ee:5c:4d:eb:
         bb:28:9b:ab:12:2a:34:64:e6:9e:ba:31:2c:eb:3b:5e:04:26:
         d3:15:42:b9:c6:c3:37:83:8e:08:61:39:44:f0:90:3d:95:66:
         70:94:88:18:0d:84:5f:14:11:7c:23:fc:f3:7d:6c:cf:a5:b2:
         f1:aa
-----BEGIN CERTIFICATE-----
MIICwzCCAiygAwIBAgIBAzANBgkqhkiG9w0BAQsFADBgMQswCQYDVQQGEwJGUjES
MBAGA1UECAwJYm91cmdvZ25lMQ4wDAYDVQQHDAVkaWpvbjENMAsGA1UECgwEZW9s
ZTELMAkGA1UECwwCY2kxETAPBgNVBAMMCEFDRW9sZUNJMB4XDTE2MDMxNzE0MzUz
MFoXDTI0MDYwMzE0MzUzMFowGjEYMBYGA1UEAwwPZGMxLmFjLXRlc3QubGFuMIGf
MA0GCSqGSIb3DQEBAQUAA4GNADCBiQKBgQC31eBLBqjX07R7E2WCXq+/xnjQmUxs
sxL0S4eBDCqS42WROJmYXx9UsezXPBEYJ+vDnbF2H3maKH+ke9OGWYhX8so6XAGQ
G1U3YjiuGGQgng5DKL0hDvedivT1cSx42JO3T6JegbXV/tYMKxdgUqtiBa813LRa
+tQQ1ZY05hoCTQIDAQABo4HSMIHPMAkGA1UdEwQCMAAwHQYDVR0OBBYEFE+dD4cg
qY/sIHAqio92EQNVHPP1MIGSBgNVHSMEgYowgYeAFDjfRik4shOLpXyAS16qJNsl
3OzuoWSkYjBgMQswCQYDVQQGEwJGUjESMBAGA1UECAwJYm91cmdvZ25lMQ4wDAYD
VQQHDAVkaWpvbjENMAsGA1UECgwEZW9sZTELMAkGA1UECwwCY2kxETAPBgNVBAMM
CEFDRW9sZUNJggkAgVr+5bpwOAEwDgYDVR0PAQH/BAQDAgWgMA0GCSqGSIb3DQEB
CwUAA4GBACiQKTX0Ipp1xI3TAQMhAW8AKF5g3q1U9AgFBpHSsIAybWeRgK4KrJld
leeKNZ7MSvifQzng9tlk7pJQXuw+ebCONkvO7lxN67som6sSKjRk5p66MSzrO14E
JtMVQrnGwzeDjghhOUTwkD2VZnCUiBgNhF8UEXwj/PN9bM+lsvGq
-----END CERTIFICATE-----
