-----BEGIN RSA PRIVATE KEY-----
MIICXAIBAAKBgQC0mP56jwESvPbU7Ah9ltMu1ma1QO3rxS2dLf5FXLbxFXfISsYw
LnRs5W5JHmrI9NrYKC4NCt0xZ/4yfOm76fWsSurS5PrB2yZmd00c0XeNO/QYHoPd
a+aShuoThQ3CVe5qvt6jISe0H+i/aBl9a4P/r0rXBXFHuoqKydUrIxRi3QIDAQAB
AoGBAKA3fsQB7CTQiXY59Ape7PmHcdTpRmm9Iwtni0XDy/SzY/HIDG0gOV+GZ0Hs
/zVKrH/JnZkqgzNam9P0p3NzSuPQtIZzESaZfzdL3mDC24IgM5VA5VvFhpmSaPqa
xiw2k7PmjdHdYSSSSjKXL1hRZVvoRXdPi3STFGuHpCjPloetAkEA7TP3zXlmeZaI
rkFlQIKqQMrx3D9G6PXkUzwDmCj5L58GgXBCJKpr4q1ySoJHg3XJWU/ZXd3HBFav
ShBb5xLm1wJBAMLosregGc2UUZu0RflsT8vBA68Go0/Qcw4dYGtY1EcA4MM5g3Yr
MPMIJGupgNE+mdIlWbN80UpRb0eatsffcWsCP2QRiHkmvhSNbRwWeqC8fxbWhzJj
f4bINYrnxpxqrLVqYVQ6B61wOBNpGM5WJ9VN26PSC+GNrmgmKc0VGbBiSQJBAJ8E
tRLFh2fHk5FiUhi+Opg1IGlDFCjBG62vYAQU1BQd7kK5AL1/XY9a3EQOZe/RkDP4
jye2NRbaO90CqA+ICIMCQH2y75V7azg2mwAUuE6YGIWgejggvvRWYe57slJSW+wB
5c6VSlQ46ggW+moGwD8DTh6YnFCTTwf44N41pccaU6w=
-----END RSA PRIVATE KEY-----
Certificate:
    Data:
        Version: 3 (0x2)
        Serial Number: 177 (0xb1)
    Signature Algorithm: sha256WithRSAEncryption
        Issuer: C=FR, ST=bourgogne, L=dijon, O=eole, OU=ci, CN=ACEoleCI
        Validity
            Not Before: Mar 17 14:36:15 2016 GMT
            Not After : Jun  3 14:36:15 2024 GMT
        Subject: CN=pcprofs-fixe.etb3.lan
        Subject Public Key Info:
            Public Key Algorithm: rsaEncryption
                Public-Key: (1024 bit)
                Modulus:
                    00:b4:98:fe:7a:8f:01:12:bc:f6:d4:ec:08:7d:96:
                    d3:2e:d6:66:b5:40:ed:eb:c5:2d:9d:2d:fe:45:5c:
                    b6:f1:15:77:c8:4a:c6:30:2e:74:6c:e5:6e:49:1e:
                    6a:c8:f4:da:d8:28:2e:0d:0a:dd:31:67:fe:32:7c:
                    e9:bb:e9:f5:ac:4a:ea:d2:e4:fa:c1:db:26:66:77:
                    4d:1c:d1:77:8d:3b:f4:18:1e:83:dd:6b:e6:92:86:
                    ea:13:85:0d:c2:55:ee:6a:be:de:a3:21:27:b4:1f:
                    e8:bf:68:19:7d:6b:83:ff:af:4a:d7:05:71:47:ba:
                    8a:8a:c9:d5:2b:23:14:62:dd
                Exponent: 65537 (0x10001)
        X509v3 extensions:
            X509v3 Basic Constraints: 
                CA:FALSE
            X509v3 Subject Key Identifier: 
                A5:5F:57:31:EE:86:50:47:0B:B6:B5:E6:CF:54:EB:7A:3E:17:2A:9E
            X509v3 Authority Key Identifier: 
                keyid:38:DF:46:29:38:B2:13:8B:A5:7C:80:4B:5E:AA:24:DB:25:DC:EC:EE
                DirName:/C=FR/ST=bourgogne/L=dijon/O=eole/OU=ci/CN=ACEoleCI
                serial:81:5A:FE:E5:BA:70:38:01

            X509v3 Key Usage: critical
                Digital Signature, Key Encipherment
    Signature Algorithm: sha256WithRSAEncryption
         1e:49:a8:a6:79:99:1d:36:48:fe:fd:04:25:36:87:c5:c3:9e:
         c0:d0:ef:89:f2:d1:17:59:c2:84:5d:fe:53:72:4f:42:ca:98:
         39:d4:9d:80:d8:a2:e1:b9:bd:57:ce:87:d8:d3:d2:26:29:7e:
         49:b1:9c:fd:77:13:9f:1e:78:a1:1a:af:a6:16:e5:34:7a:89:
         46:6a:f2:f8:d6:ff:f4:f6:94:7d:2a:34:34:c4:6d:3a:21:26:
         a8:c6:c2:b5:52:eb:0d:3b:48:9f:38:23:b6:33:fd:a3:63:a2:
         85:3a:c5:0a:94:4e:ea:20:d6:ff:50:89:77:34:62:d9:fb:49:
         51:c7
-----BEGIN CERTIFICATE-----
MIICyjCCAjOgAwIBAgICALEwDQYJKoZIhvcNAQELBQAwYDELMAkGA1UEBhMCRlIx
EjAQBgNVBAgMCWJvdXJnb2duZTEOMAwGA1UEBwwFZGlqb24xDTALBgNVBAoMBGVv
bGUxCzAJBgNVBAsMAmNpMREwDwYDVQQDDAhBQ0VvbGVDSTAeFw0xNjAzMTcxNDM2
MTVaFw0yNDA2MDMxNDM2MTVaMCAxHjAcBgNVBAMMFXBjcHJvZnMtZml4ZS5ldGIz
LmxhbjCBnzANBgkqhkiG9w0BAQEFAAOBjQAwgYkCgYEAtJj+eo8BErz21OwIfZbT
LtZmtUDt68UtnS3+RVy28RV3yErGMC50bOVuSR5qyPTa2CguDQrdMWf+Mnzpu+n1
rErq0uT6wdsmZndNHNF3jTv0GB6D3WvmkobqE4UNwlXuar7eoyEntB/ov2gZfWuD
/69K1wVxR7qKisnVKyMUYt0CAwEAAaOB0jCBzzAJBgNVHRMEAjAAMB0GA1UdDgQW
BBSlX1cx7oZQRwu2tebPVOt6PhcqnjCBkgYDVR0jBIGKMIGHgBQ430YpOLITi6V8
gEteqiTbJdzs7qFkpGIwYDELMAkGA1UEBhMCRlIxEjAQBgNVBAgMCWJvdXJnb2du
ZTEOMAwGA1UEBwwFZGlqb24xDTALBgNVBAoMBGVvbGUxCzAJBgNVBAsMAmNpMREw
DwYDVQQDDAhBQ0VvbGVDSYIJAIFa/uW6cDgBMA4GA1UdDwEB/wQEAwIFoDANBgkq
hkiG9w0BAQsFAAOBgQAeSaimeZkdNkj+/QQlNofFw57A0O+J8tEXWcKEXf5Tck9C
ypg51J2A2KLhub1XzofY09ImKX5JsZz9dxOfHnihGq+mFuU0eolGavL41v/09pR9
KjQ0xG06ISaoxsK1UusNO0ifOCO2M/2jY6KFOsUKlE7qINb/UIl3NGLZ+0lRxw==
-----END CERTIFICATE-----
