Certificate:
    Data:
        Version: 3 (0x2)
        Serial Number: 176 (0xb0)
    Signature Algorithm: sha256WithRSAEncryption
        Issuer: C=FR, ST=bourgogne, L=dijon, O=eole, OU=ci, CN=ACEoleCI
        Validity
            Not Before: Mar 17 14:36:15 2016 GMT
            Not After : Jun  3 14:36:15 2024 GMT
        Subject: CN=pcprofs-fixe.etb3.lan
        Subject Public Key Info:
            Public Key Algorithm: rsaEncryption
                Public-Key: (1024 bit)
                Modulus:
                    00:b4:98:fe:7a:8f:01:12:bc:f6:d4:ec:08:7d:96:
                    d3:2e:d6:66:b5:40:ed:eb:c5:2d:9d:2d:fe:45:5c:
                    b6:f1:15:77:c8:4a:c6:30:2e:74:6c:e5:6e:49:1e:
                    6a:c8:f4:da:d8:28:2e:0d:0a:dd:31:67:fe:32:7c:
                    e9:bb:e9:f5:ac:4a:ea:d2:e4:fa:c1:db:26:66:77:
                    4d:1c:d1:77:8d:3b:f4:18:1e:83:dd:6b:e6:92:86:
                    ea:13:85:0d:c2:55:ee:6a:be:de:a3:21:27:b4:1f:
                    e8:bf:68:19:7d:6b:83:ff:af:4a:d7:05:71:47:ba:
                    8a:8a:c9:d5:2b:23:14:62:dd
                Exponent: 65537 (0x10001)
        X509v3 extensions:
            X509v3 Basic Constraints: 
                CA:FALSE
            X509v3 Subject Key Identifier: 
                A5:5F:57:31:EE:86:50:47:0B:B6:B5:E6:CF:54:EB:7A:3E:17:2A:9E
            X509v3 Authority Key Identifier: 
                keyid:38:DF:46:29:38:B2:13:8B:A5:7C:80:4B:5E:AA:24:DB:25:DC:EC:EE

            X509v3 Key Usage: critical
                Digital Signature, Non Repudiation, Key Encipherment
            X509v3 Extended Key Usage: 
                TLS Web Client Authentication, E-mail Protection
    Signature Algorithm: sha256WithRSAEncryption
         0b:d0:c7:b9:31:26:4d:76:16:c1:3b:8f:41:b6:2d:99:b0:18:
         5f:de:59:c0:39:c1:5e:66:6a:4d:f7:40:6b:ea:69:4e:05:cf:
         5b:77:23:cc:89:a4:7b:c8:53:c1:a9:f3:d0:97:8a:8b:b5:cc:
         45:e2:76:62:20:44:d4:3c:86:46:9e:b4:2a:68:63:4c:54:02:
         99:14:56:13:37:07:21:4d:e4:01:42:ec:71:92:f9:85:5b:93:
         45:83:0c:38:5e:3f:6c:1a:c5:83:b5:69:fd:b6:88:bc:1a:74:
         12:2c:c5:1b:4a:61:f9:7e:04:b6:1d:42:9d:08:8d:18:ed:13:
         44:6c
-----BEGIN CERTIFICATE-----
MIICczCCAdygAwIBAgICALAwDQYJKoZIhvcNAQELBQAwYDELMAkGA1UEBhMCRlIx
EjAQBgNVBAgMCWJvdXJnb2duZTEOMAwGA1UEBwwFZGlqb24xDTALBgNVBAoMBGVv
bGUxCzAJBgNVBAsMAmNpMREwDwYDVQQDDAhBQ0VvbGVDSTAeFw0xNjAzMTcxNDM2
MTVaFw0yNDA2MDMxNDM2MTVaMCAxHjAcBgNVBAMMFXBjcHJvZnMtZml4ZS5ldGIz
LmxhbjCBnzANBgkqhkiG9w0BAQEFAAOBjQAwgYkCgYEAtJj+eo8BErz21OwIfZbT
LtZmtUDt68UtnS3+RVy28RV3yErGMC50bOVuSR5qyPTa2CguDQrdMWf+Mnzpu+n1
rErq0uT6wdsmZndNHNF3jTv0GB6D3WvmkobqE4UNwlXuar7eoyEntB/ov2gZfWuD
/69K1wVxR7qKisnVKyMUYt0CAwEAAaN8MHowCQYDVR0TBAIwADAdBgNVHQ4EFgQU
pV9XMe6GUEcLtrXmz1Trej4XKp4wHwYDVR0jBBgwFoAUON9GKTiyE4ulfIBLXqok
2yXc7O4wDgYDVR0PAQH/BAQDAgXgMB0GA1UdJQQWMBQGCCsGAQUFBwMCBggrBgEF
BQcDBDANBgkqhkiG9w0BAQsFAAOBgQAL0Me5MSZNdhbBO49Bti2ZsBhf3lnAOcFe
ZmpN90Br6mlOBc9bdyPMiaR7yFPBqfPQl4qLtcxF4nZiIETUPIZGnrQqaGNMVAKZ
FFYTNwchTeQBQuxxkvmFW5NFgww4Xj9sGsWDtWn9toi8GnQSLMUbSmH5fgS2HUKd
CI0Y7RNEbA==
-----END CERTIFICATE-----
