-----BEGIN RSA PRIVATE KEY-----
MIICXQIBAAKBgQCoYLHfc7VghLobHUyPXsjFt3E++uAgJHgHibsNrs7ARFdyWYrr
CBuY+wPwdvED63GBCWZMB+4H1dAccCMM7t6bQePTzIheP+VZeneSV4zPQfHGgUO5
il9m7mt+l2DXYly6kYRl6nS0JwxvPEsUrElWzXDdokB/ypSXe8Ls1XycVwIDAQAB
AoGBAIaeUHfzvca+N0EoaqaRxHl3Ub5lu71XCvQT5Q5qfXhw621MM+n3YIEt55dg
sQ9ONUBScIxHJsLy6mFiMlPLwwMYLPHw9iu1wxBQgYKt1oE8XlHKR3gtP7szsyEh
NPad0zUtBQv55TChTS4fuK5HK8kPUXT+N24XZra1myQsrzkpAkEA1+KUp10Ah7eM
Vnf7tHRiOzg3a4fRybEABTY3Sis5QFfuvpXCA+G3oOMTZUsCKsKptslCmHS5GLtC
be9ssB/M9QJBAMeqPX1HaDvlSUkQD/a/r2ewq8GwB9bD8jFLzsNSl1o6/n0DxW/a
mDx5p4agFhpFEFywlYsZ0y2/kGokxYoa9JsCQQCunQW/mOmk3EEWb1WXT8tkOsQY
pXJ5wEBT9tYhl3RnJrhkTpzuptLvvrshYtoN3AWJYqAKz94mss+4O7+ddRtBAkBm
zSlRqoVpaVl9S87cXb9jJNyaIhc3JbY6WWzAtnKFG6DSHzH1sFf3sy9lKmGW7v5I
qwakEwzfHiWt8Pbgb5aHAkAKVY2c3sCmM8rhGGDyFa/majlG5N1C73yL5uVTY0E4
tE5v5OP07ONfILRnHl0mM4dn/A+ZYb1EUn+5QG3fa0p4
-----END RSA PRIVATE KEY-----
Certificate:
    Data:
        Version: 3 (0x2)
        Serial Number: 140 (0x8c)
    Signature Algorithm: sha256WithRSAEncryption
        Issuer: C=FR, ST=bourgogne, L=dijon, O=eole, OU=ci, CN=ACEoleCI
        Validity
            Not Before: Mar 17 14:36:07 2016 GMT
            Not After : Jun  3 14:36:07 2024 GMT
        Subject: CN=eolecitestsdmz.etb2.lan
        Subject Public Key Info:
            Public Key Algorithm: rsaEncryption
                Public-Key: (1024 bit)
                Modulus:
                    00:a8:60:b1:df:73:b5:60:84:ba:1b:1d:4c:8f:5e:
                    c8:c5:b7:71:3e:fa:e0:20:24:78:07:89:bb:0d:ae:
                    ce:c0:44:57:72:59:8a:eb:08:1b:98:fb:03:f0:76:
                    f1:03:eb:71:81:09:66:4c:07:ee:07:d5:d0:1c:70:
                    23:0c:ee:de:9b:41:e3:d3:cc:88:5e:3f:e5:59:7a:
                    77:92:57:8c:cf:41:f1:c6:81:43:b9:8a:5f:66:ee:
                    6b:7e:97:60:d7:62:5c:ba:91:84:65:ea:74:b4:27:
                    0c:6f:3c:4b:14:ac:49:56:cd:70:dd:a2:40:7f:ca:
                    94:97:7b:c2:ec:d5:7c:9c:57
                Exponent: 65537 (0x10001)
        X509v3 extensions:
            X509v3 Basic Constraints: 
                CA:FALSE
            X509v3 Subject Key Identifier: 
                4A:46:42:D7:E4:1B:C6:B2:60:40:F4:18:84:14:11:36:93:41:FB:3C
            X509v3 Authority Key Identifier: 
                keyid:38:DF:46:29:38:B2:13:8B:A5:7C:80:4B:5E:AA:24:DB:25:DC:EC:EE

            X509v3 Key Usage: critical
                Digital Signature, Non Repudiation, Key Encipherment
            X509v3 Extended Key Usage: 
                TLS Web Client Authentication, E-mail Protection
    Signature Algorithm: sha256WithRSAEncryption
         75:a4:4b:fc:cd:8d:00:b1:65:e4:5b:54:f0:d2:60:63:03:c2:
         f6:52:30:93:1a:7b:e9:58:17:cc:ed:6e:ac:a0:8e:45:50:18:
         d0:57:82:e6:fe:f2:30:fb:f6:4b:6a:7f:f9:f9:ab:43:e8:49:
         71:31:21:c5:eb:58:87:ea:0f:83:62:46:c6:bb:83:27:ce:7f:
         7b:2c:bf:4b:ca:f2:5e:19:0e:aa:af:8f:7d:33:24:75:d0:12:
         5b:40:3e:37:c3:6f:fa:bf:aa:ba:1e:39:18:eb:11:de:9d:0f:
         c3:c5:f0:c9:8f:a5:52:01:83:99:84:04:6f:db:b1:16:b6:f8:
         3c:75
-----BEGIN CERTIFICATE-----
MIICdTCCAd6gAwIBAgICAIwwDQYJKoZIhvcNAQELBQAwYDELMAkGA1UEBhMCRlIx
EjAQBgNVBAgMCWJvdXJnb2duZTEOMAwGA1UEBwwFZGlqb24xDTALBgNVBAoMBGVv
bGUxCzAJBgNVBAsMAmNpMREwDwYDVQQDDAhBQ0VvbGVDSTAeFw0xNjAzMTcxNDM2
MDdaFw0yNDA2MDMxNDM2MDdaMCIxIDAeBgNVBAMMF2VvbGVjaXRlc3RzZG16LmV0
YjIubGFuMIGfMA0GCSqGSIb3DQEBAQUAA4GNADCBiQKBgQCoYLHfc7VghLobHUyP
XsjFt3E++uAgJHgHibsNrs7ARFdyWYrrCBuY+wPwdvED63GBCWZMB+4H1dAccCMM
7t6bQePTzIheP+VZeneSV4zPQfHGgUO5il9m7mt+l2DXYly6kYRl6nS0JwxvPEsU
rElWzXDdokB/ypSXe8Ls1XycVwIDAQABo3wwejAJBgNVHRMEAjAAMB0GA1UdDgQW
BBRKRkLX5BvGsmBA9BiEFBE2k0H7PDAfBgNVHSMEGDAWgBQ430YpOLITi6V8gEte
qiTbJdzs7jAOBgNVHQ8BAf8EBAMCBeAwHQYDVR0lBBYwFAYIKwYBBQUHAwIGCCsG
AQUFBwMEMA0GCSqGSIb3DQEBCwUAA4GBAHWkS/zNjQCxZeRbVPDSYGMDwvZSMJMa
e+lYF8ztbqygjkVQGNBXgub+8jD79ktqf/n5q0PoSXExIcXrWIfqD4NiRsa7gyfO
f3ssv0vK8l4ZDqqvj30zJHXQEltAPjfDb/q/qroeORjrEd6dD8PF8MmPpVIBg5mE
BG/bsRa2+Dx1
-----END CERTIFICATE-----
