Certificate:
    Data:
        Version: 3 (0x2)
        Serial Number: 141 (0x8d)
    Signature Algorithm: sha256WithRSAEncryption
        Issuer: C=FR, ST=bourgogne, L=dijon, O=eole, OU=ci, CN=ACEoleCI
        Validity
            Not Before: Mar 17 14:36:07 2016 GMT
            Not After : Jun  3 14:36:07 2024 GMT
        Subject: CN=eolecitestsdmz.etb2.lan
        Subject Public Key Info:
            Public Key Algorithm: rsaEncryption
                Public-Key: (1024 bit)
                Modulus:
                    00:a8:60:b1:df:73:b5:60:84:ba:1b:1d:4c:8f:5e:
                    c8:c5:b7:71:3e:fa:e0:20:24:78:07:89:bb:0d:ae:
                    ce:c0:44:57:72:59:8a:eb:08:1b:98:fb:03:f0:76:
                    f1:03:eb:71:81:09:66:4c:07:ee:07:d5:d0:1c:70:
                    23:0c:ee:de:9b:41:e3:d3:cc:88:5e:3f:e5:59:7a:
                    77:92:57:8c:cf:41:f1:c6:81:43:b9:8a:5f:66:ee:
                    6b:7e:97:60:d7:62:5c:ba:91:84:65:ea:74:b4:27:
                    0c:6f:3c:4b:14:ac:49:56:cd:70:dd:a2:40:7f:ca:
                    94:97:7b:c2:ec:d5:7c:9c:57
                Exponent: 65537 (0x10001)
        X509v3 extensions:
            X509v3 Basic Constraints: 
                CA:FALSE
            X509v3 Subject Key Identifier: 
                4A:46:42:D7:E4:1B:C6:B2:60:40:F4:18:84:14:11:36:93:41:FB:3C
            X509v3 Authority Key Identifier: 
                keyid:38:DF:46:29:38:B2:13:8B:A5:7C:80:4B:5E:AA:24:DB:25:DC:EC:EE
                DirName:/C=FR/ST=bourgogne/L=dijon/O=eole/OU=ci/CN=ACEoleCI
                serial:81:5A:FE:E5:BA:70:38:01

            X509v3 Key Usage: critical
                Digital Signature, Key Encipherment
    Signature Algorithm: sha256WithRSAEncryption
         66:08:e8:d5:80:ea:3d:e8:1c:37:80:9a:4e:9e:17:35:b4:1b:
         54:f6:93:d7:0c:20:49:df:af:de:f7:f6:98:20:63:97:df:bc:
         df:d4:91:ab:9f:36:d4:d8:3c:9e:59:16:49:8f:a7:a4:a3:2e:
         7e:27:9e:d2:a1:83:02:60:be:50:a5:12:d1:69:1c:e5:a6:46:
         e6:8b:0d:2c:41:10:9f:cc:74:3b:98:ef:7a:b1:e0:04:b3:f0:
         cf:26:09:94:bf:e9:d3:da:87:77:c4:c4:ed:b9:a9:ef:83:10:
         cf:9c:b1:d8:88:25:81:93:41:0f:c2:45:94:d4:6b:f6:4e:0e:
         3d:5f
-----BEGIN CERTIFICATE-----
MIICzDCCAjWgAwIBAgICAI0wDQYJKoZIhvcNAQELBQAwYDELMAkGA1UEBhMCRlIx
EjAQBgNVBAgMCWJvdXJnb2duZTEOMAwGA1UEBwwFZGlqb24xDTALBgNVBAoMBGVv
bGUxCzAJBgNVBAsMAmNpMREwDwYDVQQDDAhBQ0VvbGVDSTAeFw0xNjAzMTcxNDM2
MDdaFw0yNDA2MDMxNDM2MDdaMCIxIDAeBgNVBAMMF2VvbGVjaXRlc3RzZG16LmV0
YjIubGFuMIGfMA0GCSqGSIb3DQEBAQUAA4GNADCBiQKBgQCoYLHfc7VghLobHUyP
XsjFt3E++uAgJHgHibsNrs7ARFdyWYrrCBuY+wPwdvED63GBCWZMB+4H1dAccCMM
7t6bQePTzIheP+VZeneSV4zPQfHGgUO5il9m7mt+l2DXYly6kYRl6nS0JwxvPEsU
rElWzXDdokB/ypSXe8Ls1XycVwIDAQABo4HSMIHPMAkGA1UdEwQCMAAwHQYDVR0O
BBYEFEpGQtfkG8ayYED0GIQUETaTQfs8MIGSBgNVHSMEgYowgYeAFDjfRik4shOL
pXyAS16qJNsl3OzuoWSkYjBgMQswCQYDVQQGEwJGUjESMBAGA1UECAwJYm91cmdv
Z25lMQ4wDAYDVQQHDAVkaWpvbjENMAsGA1UECgwEZW9sZTELMAkGA1UECwwCY2kx
ETAPBgNVBAMMCEFDRW9sZUNJggkAgVr+5bpwOAEwDgYDVR0PAQH/BAQDAgWgMA0G
CSqGSIb3DQEBCwUAA4GBAGYI6NWA6j3oHDeAmk6eFzW0G1T2k9cMIEnfr9739pgg
Y5ffvN/UkaufNtTYPJ5ZFkmPp6SjLn4nntKhgwJgvlClEtFpHOWmRuaLDSxBEJ/M
dDuY73qx4ASz8M8mCZS/6dPah3fExO25qe+DEM+csdiIJYGTQQ/CRZTUa/ZODj1f
-----END CERTIFICATE-----
