-----BEGIN RSA PRIVATE KEY-----
MIICXQIBAAKBgQCoYLHfc7VghLobHUyPXsjFt3E++uAgJHgHibsNrs7ARFdyWYrr
CBuY+wPwdvED63GBCWZMB+4H1dAccCMM7t6bQePTzIheP+VZeneSV4zPQfHGgUO5
il9m7mt+l2DXYly6kYRl6nS0JwxvPEsUrElWzXDdokB/ypSXe8Ls1XycVwIDAQAB
AoGBAIaeUHfzvca+N0EoaqaRxHl3Ub5lu71XCvQT5Q5qfXhw621MM+n3YIEt55dg
sQ9ONUBScIxHJsLy6mFiMlPLwwMYLPHw9iu1wxBQgYKt1oE8XlHKR3gtP7szsyEh
NPad0zUtBQv55TChTS4fuK5HK8kPUXT+N24XZra1myQsrzkpAkEA1+KUp10Ah7eM
Vnf7tHRiOzg3a4fRybEABTY3Sis5QFfuvpXCA+G3oOMTZUsCKsKptslCmHS5GLtC
be9ssB/M9QJBAMeqPX1HaDvlSUkQD/a/r2ewq8GwB9bD8jFLzsNSl1o6/n0DxW/a
mDx5p4agFhpFEFywlYsZ0y2/kGokxYoa9JsCQQCunQW/mOmk3EEWb1WXT8tkOsQY
pXJ5wEBT9tYhl3RnJrhkTpzuptLvvrshYtoN3AWJYqAKz94mss+4O7+ddRtBAkBm
zSlRqoVpaVl9S87cXb9jJNyaIhc3JbY6WWzAtnKFG6DSHzH1sFf3sy9lKmGW7v5I
qwakEwzfHiWt8Pbgb5aHAkAKVY2c3sCmM8rhGGDyFa/majlG5N1C73yL5uVTY0E4
tE5v5OP07ONfILRnHl0mM4dn/A+ZYb1EUn+5QG3fa0p4
-----END RSA PRIVATE KEY-----
Certificate:
    Data:
        Version: 3 (0x2)
        Serial Number: 139 (0x8b)
    Signature Algorithm: sha256WithRSAEncryption
        Issuer: C=FR, ST=bourgogne, L=dijon, O=eole, OU=ci, CN=ACEoleCI
        Validity
            Not Before: Mar 17 14:36:06 2016 GMT
            Not After : Jun  3 14:36:06 2024 GMT
        Subject: CN=eolecitestsdmz.etb2.lan
        Subject Public Key Info:
            Public Key Algorithm: rsaEncryption
                Public-Key: (1024 bit)
                Modulus:
                    00:a8:60:b1:df:73:b5:60:84:ba:1b:1d:4c:8f:5e:
                    c8:c5:b7:71:3e:fa:e0:20:24:78:07:89:bb:0d:ae:
                    ce:c0:44:57:72:59:8a:eb:08:1b:98:fb:03:f0:76:
                    f1:03:eb:71:81:09:66:4c:07:ee:07:d5:d0:1c:70:
                    23:0c:ee:de:9b:41:e3:d3:cc:88:5e:3f:e5:59:7a:
                    77:92:57:8c:cf:41:f1:c6:81:43:b9:8a:5f:66:ee:
                    6b:7e:97:60:d7:62:5c:ba:91:84:65:ea:74:b4:27:
                    0c:6f:3c:4b:14:ac:49:56:cd:70:dd:a2:40:7f:ca:
                    94:97:7b:c2:ec:d5:7c:9c:57
                Exponent: 65537 (0x10001)
        X509v3 extensions:
            X509v3 Basic Constraints: 
                CA:FALSE
            X509v3 Subject Key Identifier: 
                4A:46:42:D7:E4:1B:C6:B2:60:40:F4:18:84:14:11:36:93:41:FB:3C
            X509v3 Authority Key Identifier: 
                keyid:38:DF:46:29:38:B2:13:8B:A5:7C:80:4B:5E:AA:24:DB:25:DC:EC:EE
                DirName:/C=FR/ST=bourgogne/L=dijon/O=eole/OU=ci/CN=ACEoleCI
                serial:81:5A:FE:E5:BA:70:38:01

            X509v3 Key Usage: critical
                Digital Signature, Key Encipherment
            X509v3 Extended Key Usage: 
                TLS Web Server Authentication
    Signature Algorithm: sha256WithRSAEncryption
         12:a8:4d:2c:cd:d2:f2:d1:d6:11:47:42:4b:bc:79:f9:4d:f9:
         f7:8b:01:55:bd:50:aa:7b:c1:22:22:69:bf:26:26:13:f5:f6:
         8a:e4:14:a4:9d:35:e4:37:7f:e9:6c:1c:da:e2:c7:e6:79:e1:
         87:db:77:9c:74:55:9c:71:2a:92:be:12:2b:fe:75:df:2b:c0:
         79:61:a5:c0:e4:bb:37:f4:97:5d:16:2c:cc:ed:31:8b:d0:8f:
         e2:f6:37:05:d2:77:d5:96:ba:ce:67:e4:77:a2:9f:a6:1c:c1:
         10:75:9f:47:73:d1:88:f1:4b:62:e3:d4:42:27:49:d7:f6:ae:
         37:4f
-----BEGIN CERTIFICATE-----
MIIC4TCCAkqgAwIBAgICAIswDQYJKoZIhvcNAQELBQAwYDELMAkGA1UEBhMCRlIx
EjAQBgNVBAgMCWJvdXJnb2duZTEOMAwGA1UEBwwFZGlqb24xDTALBgNVBAoMBGVv
bGUxCzAJBgNVBAsMAmNpMREwDwYDVQQDDAhBQ0VvbGVDSTAeFw0xNjAzMTcxNDM2
MDZaFw0yNDA2MDMxNDM2MDZaMCIxIDAeBgNVBAMMF2VvbGVjaXRlc3RzZG16LmV0
YjIubGFuMIGfMA0GCSqGSIb3DQEBAQUAA4GNADCBiQKBgQCoYLHfc7VghLobHUyP
XsjFt3E++uAgJHgHibsNrs7ARFdyWYrrCBuY+wPwdvED63GBCWZMB+4H1dAccCMM
7t6bQePTzIheP+VZeneSV4zPQfHGgUO5il9m7mt+l2DXYly6kYRl6nS0JwxvPEsU
rElWzXDdokB/ypSXe8Ls1XycVwIDAQABo4HnMIHkMAkGA1UdEwQCMAAwHQYDVR0O
BBYEFEpGQtfkG8ayYED0GIQUETaTQfs8MIGSBgNVHSMEgYowgYeAFDjfRik4shOL
pXyAS16qJNsl3OzuoWSkYjBgMQswCQYDVQQGEwJGUjESMBAGA1UECAwJYm91cmdv
Z25lMQ4wDAYDVQQHDAVkaWpvbjENMAsGA1UECgwEZW9sZTELMAkGA1UECwwCY2kx
ETAPBgNVBAMMCEFDRW9sZUNJggkAgVr+5bpwOAEwDgYDVR0PAQH/BAQDAgWgMBMG
A1UdJQQMMAoGCCsGAQUFBwMBMA0GCSqGSIb3DQEBCwUAA4GBABKoTSzN0vLR1hFH
Qku8eflN+feLAVW9UKp7wSIiab8mJhP19orkFKSdNeQ3f+lsHNrix+Z54Yfbd5x0
VZxxKpK+Eiv+dd8rwHlhpcDkuzf0l10WLMztMYvQj+L2NwXSd9WWus5n5Hein6Yc
wRB1n0dz0YjxS2Lj1EInSdf2rjdP
-----END CERTIFICATE-----
