-----BEGIN RSA PRIVATE KEY-----
MIICXAIBAAKBgQDCCr8xVhd2J/wJMDoas7u1bUYt8sbFVtnwORWlyFmfOT4gr/9f
cm7NVwkVK6kGU/bwnaGF5GtVy3El/FvTvxwqNUkDtmnLcMfv6oYo+gVNb4OcDQWl
qs41pDmaM5qaNIoGPpept44RiiXrEo9AmY74Kgkolklea04XZD/0ISri/QIDAQAB
AoGAFsoOVGwJC1580lNwr4wmYpN355OY1rpxlC4QJc1XAUVGz6377yjQbJtpPKxJ
CK451V6eBsyh8oyXOF/gJQlP9ExMjjAoehDNU93u3HxUdZkY2HzimS9w9m1b1ZNW
FvP4IAP8QF390wLYd4f4HF/hf4u9ESQrp1VIlV3dfcjE1h0CQQD9wIoRQGQ/73n5
etrAxYWLUgI/HeRl5QZDoin/7DFKtRWZThdgML4uh06s+5rHqj6pd4saDjbTB81l
4GLvG1brAkEAw8LL5+zUaAso1j7xp85mnxk8OG7rinw7CnCxYp8zVH47gnShmXH6
1N5bdZYp/og/mPYHvf4KMgD0RLjqFxEDtwJBAOTm/eVoD8b5ES/zGkhRJhGyreIf
5fvg6JC0RWzetOxuhAhiQIX+EmFIn7k90rcQpSwccXfUoLInVKr1CmolYHcCQG98
5Tv0uRN4J42800vKVM+PQ6iwIxz/m3BateuA127rZWDqo44MR9oruNLC7q+zUOUA
WXBu2ceYm4T3+vmgCwkCQFnVl8vJ9yCgXDE5lSDMvGatrFkLm4S6f+sFO1kXjWpA
ykDJozOAXepBF2YL8zqPRzg2+oVsW68sbaaOaZ0VRSo=
-----END RSA PRIVATE KEY-----
Certificate:
    Data:
        Version: 3 (0x2)
        Serial Number: 53 (0x35)
    Signature Algorithm: sha256WithRSAEncryption
        Issuer: C=FR, ST=bourgogne, L=dijon, O=eole, OU=ci, CN=ACEoleCI
        Validity
            Not Before: Mar 17 14:35:42 2016 GMT
            Not After : Jun  3 14:35:42 2024 GMT
        Subject: CN=pc.ac-test.lan
        Subject Public Key Info:
            Public Key Algorithm: rsaEncryption
                Public-Key: (1024 bit)
                Modulus:
                    00:c2:0a:bf:31:56:17:76:27:fc:09:30:3a:1a:b3:
                    bb:b5:6d:46:2d:f2:c6:c5:56:d9:f0:39:15:a5:c8:
                    59:9f:39:3e:20:af:ff:5f:72:6e:cd:57:09:15:2b:
                    a9:06:53:f6:f0:9d:a1:85:e4:6b:55:cb:71:25:fc:
                    5b:d3:bf:1c:2a:35:49:03:b6:69:cb:70:c7:ef:ea:
                    86:28:fa:05:4d:6f:83:9c:0d:05:a5:aa:ce:35:a4:
                    39:9a:33:9a:9a:34:8a:06:3e:97:a9:b7:8e:11:8a:
                    25:eb:12:8f:40:99:8e:f8:2a:09:28:96:49:5e:6b:
                    4e:17:64:3f:f4:21:2a:e2:fd
                Exponent: 65537 (0x10001)
        X509v3 extensions:
            X509v3 Basic Constraints: 
                CA:FALSE
            X509v3 Subject Key Identifier: 
                D4:F5:BD:5D:42:48:18:5E:7D:2C:F8:55:8E:BD:2A:61:2C:01:EA:B7
            X509v3 Authority Key Identifier: 
                keyid:38:DF:46:29:38:B2:13:8B:A5:7C:80:4B:5E:AA:24:DB:25:DC:EC:EE

            X509v3 Key Usage: critical
                Digital Signature, Non Repudiation, Key Encipherment
            X509v3 Extended Key Usage: 
                TLS Web Client Authentication, E-mail Protection
    Signature Algorithm: sha256WithRSAEncryption
         86:42:72:e4:0e:0a:dd:d2:42:29:0d:73:18:0c:d1:67:ca:17:
         83:66:7d:dd:49:e5:12:6a:f1:12:c5:21:79:ea:d4:31:44:b8:
         d7:2c:7b:c4:98:0f:d6:a2:49:25:4e:94:5b:f7:25:fa:90:af:
         40:09:64:7f:17:51:2b:f7:56:10:32:bc:70:19:23:14:7d:43:
         23:b7:c2:e1:98:77:e7:0d:64:fc:92:7e:f9:ae:d4:c5:12:21:
         8a:c7:80:49:6d:7a:7e:a1:5f:e1:5d:7e:b4:4a:d6:67:c2:7d:
         77:64:c0:d5:0c:36:04:19:25:c9:f4:57:39:be:6a:97:cc:a2:
         54:12
-----BEGIN CERTIFICATE-----
MIICazCCAdSgAwIBAgIBNTANBgkqhkiG9w0BAQsFADBgMQswCQYDVQQGEwJGUjES
MBAGA1UECAwJYm91cmdvZ25lMQ4wDAYDVQQHDAVkaWpvbjENMAsGA1UECgwEZW9s
ZTELMAkGA1UECwwCY2kxETAPBgNVBAMMCEFDRW9sZUNJMB4XDTE2MDMxNzE0MzU0
MloXDTI0MDYwMzE0MzU0MlowGTEXMBUGA1UEAwwOcGMuYWMtdGVzdC5sYW4wgZ8w
DQYJKoZIhvcNAQEBBQADgY0AMIGJAoGBAMIKvzFWF3Yn/AkwOhqzu7VtRi3yxsVW
2fA5FaXIWZ85PiCv/19ybs1XCRUrqQZT9vCdoYXka1XLcSX8W9O/HCo1SQO2actw
x+/qhij6BU1vg5wNBaWqzjWkOZozmpo0igY+l6m3jhGKJesSj0CZjvgqCSiWSV5r
ThdkP/QhKuL9AgMBAAGjfDB6MAkGA1UdEwQCMAAwHQYDVR0OBBYEFNT1vV1CSBhe
fSz4VY69KmEsAeq3MB8GA1UdIwQYMBaAFDjfRik4shOLpXyAS16qJNsl3OzuMA4G
A1UdDwEB/wQEAwIF4DAdBgNVHSUEFjAUBggrBgEFBQcDAgYIKwYBBQUHAwQwDQYJ
KoZIhvcNAQELBQADgYEAhkJy5A4K3dJCKQ1zGAzRZ8oXg2Z93UnlEmrxEsUheerU
MUS41yx7xJgP1qJJJU6UW/cl+pCvQAlkfxdRK/dWEDK8cBkjFH1DI7fC4Zh35w1k
/JJ++a7UxRIhiseASW16fqFf4V1+tErWZ8J9d2TA1Qw2BBklyfRXOb5ql8yiVBI=
-----END CERTIFICATE-----
