Certificate:
    Data:
        Version: 3 (0x2)
        Serial Number: 52 (0x34)
    Signature Algorithm: sha256WithRSAEncryption
        Issuer: C=FR, ST=bourgogne, L=dijon, O=eole, OU=ci, CN=ACEoleCI
        Validity
            Not Before: Mar 17 14:35:42 2016 GMT
            Not After : Jun  3 14:35:42 2024 GMT
        Subject: CN=pc.ac-test.lan
        Subject Public Key Info:
            Public Key Algorithm: rsaEncryption
                Public-Key: (1024 bit)
                Modulus:
                    00:c2:0a:bf:31:56:17:76:27:fc:09:30:3a:1a:b3:
                    bb:b5:6d:46:2d:f2:c6:c5:56:d9:f0:39:15:a5:c8:
                    59:9f:39:3e:20:af:ff:5f:72:6e:cd:57:09:15:2b:
                    a9:06:53:f6:f0:9d:a1:85:e4:6b:55:cb:71:25:fc:
                    5b:d3:bf:1c:2a:35:49:03:b6:69:cb:70:c7:ef:ea:
                    86:28:fa:05:4d:6f:83:9c:0d:05:a5:aa:ce:35:a4:
                    39:9a:33:9a:9a:34:8a:06:3e:97:a9:b7:8e:11:8a:
                    25:eb:12:8f:40:99:8e:f8:2a:09:28:96:49:5e:6b:
                    4e:17:64:3f:f4:21:2a:e2:fd
                Exponent: 65537 (0x10001)
        X509v3 extensions:
            X509v3 Basic Constraints: 
                CA:FALSE
            X509v3 Subject Key Identifier: 
                D4:F5:BD:5D:42:48:18:5E:7D:2C:F8:55:8E:BD:2A:61:2C:01:EA:B7
            X509v3 Authority Key Identifier: 
                keyid:38:DF:46:29:38:B2:13:8B:A5:7C:80:4B:5E:AA:24:DB:25:DC:EC:EE
                DirName:/C=FR/ST=bourgogne/L=dijon/O=eole/OU=ci/CN=ACEoleCI
                serial:81:5A:FE:E5:BA:70:38:01

            X509v3 Key Usage: critical
                Digital Signature, Key Encipherment
            X509v3 Extended Key Usage: 
                TLS Web Server Authentication
    Signature Algorithm: sha256WithRSAEncryption
         16:5f:c8:2b:d8:68:06:58:f8:8e:ef:bd:8f:3b:ef:36:8c:47:
         6c:ee:37:48:30:91:f2:87:64:93:47:01:da:7f:3c:25:27:19:
         da:89:89:04:ab:d4:47:bc:f3:fe:b1:e7:e9:ed:1a:b6:0a:2b:
         94:7d:02:88:ae:77:ae:f0:0d:47:df:d7:35:b8:7d:f1:75:d6:
         d0:4e:93:80:91:80:6d:0e:5b:3b:40:32:c3:14:45:f1:37:d6:
         84:ee:db:10:ce:4f:93:35:b5:9b:4b:55:96:37:4f:7e:85:b5:
         b2:e2:ad:15:fa:43:df:b0:f2:94:47:0b:8d:29:fe:44:8a:48:
         0b:4b
-----BEGIN CERTIFICATE-----
MIIC1zCCAkCgAwIBAgIBNDANBgkqhkiG9w0BAQsFADBgMQswCQYDVQQGEwJGUjES
MBAGA1UECAwJYm91cmdvZ25lMQ4wDAYDVQQHDAVkaWpvbjENMAsGA1UECgwEZW9s
ZTELMAkGA1UECwwCY2kxETAPBgNVBAMMCEFDRW9sZUNJMB4XDTE2MDMxNzE0MzU0
MloXDTI0MDYwMzE0MzU0MlowGTEXMBUGA1UEAwwOcGMuYWMtdGVzdC5sYW4wgZ8w
DQYJKoZIhvcNAQEBBQADgY0AMIGJAoGBAMIKvzFWF3Yn/AkwOhqzu7VtRi3yxsVW
2fA5FaXIWZ85PiCv/19ybs1XCRUrqQZT9vCdoYXka1XLcSX8W9O/HCo1SQO2actw
x+/qhij6BU1vg5wNBaWqzjWkOZozmpo0igY+l6m3jhGKJesSj0CZjvgqCSiWSV5r
ThdkP/QhKuL9AgMBAAGjgecwgeQwCQYDVR0TBAIwADAdBgNVHQ4EFgQU1PW9XUJI
GF59LPhVjr0qYSwB6rcwgZIGA1UdIwSBijCBh4AUON9GKTiyE4ulfIBLXqok2yXc
7O6hZKRiMGAxCzAJBgNVBAYTAkZSMRIwEAYDVQQIDAlib3VyZ29nbmUxDjAMBgNV
BAcMBWRpam9uMQ0wCwYDVQQKDARlb2xlMQswCQYDVQQLDAJjaTERMA8GA1UEAwwI
QUNFb2xlQ0mCCQCBWv7lunA4ATAOBgNVHQ8BAf8EBAMCBaAwEwYDVR0lBAwwCgYI
KwYBBQUHAwEwDQYJKoZIhvcNAQELBQADgYEAFl/IK9hoBlj4ju+9jzvvNoxHbO43
SDCR8odkk0cB2n88JScZ2omJBKvUR7zz/rHn6e0atgorlH0CiK53rvANR9/XNbh9
8XXW0E6TgJGAbQ5bO0AywxRF8TfWhO7bEM5PkzW1m0tVljdPfoW1suKtFfpD37Dy
lEcLjSn+RIpIC0s=
-----END CERTIFICATE-----
