Certificate:
    Data:
        Version: 3 (0x2)
        Serial Number: 49 (0x31)
    Signature Algorithm: sha256WithRSAEncryption
        Issuer: C=FR, ST=bourgogne, L=dijon, O=eole, OU=ci, CN=ACEoleCI
        Validity
            Not Before: Mar 17 14:35:41 2016 GMT
            Not After : Jun  3 14:35:41 2024 GMT
        Subject: CN=nebula.ac-test.lan
        Subject Public Key Info:
            Public Key Algorithm: rsaEncryption
                Public-Key: (1024 bit)
                Modulus:
                    00:cb:32:c5:2f:45:f7:26:a9:18:0f:50:c3:aa:dc:
                    cd:6a:88:c9:0a:c3:e9:30:9c:bd:f0:35:ab:4e:0d:
                    a5:87:88:e0:93:81:8b:cf:34:bd:a3:f5:04:50:d9:
                    d4:e5:94:7f:54:35:95:8b:ea:36:e1:73:90:d3:91:
                    52:73:1d:f3:02:7d:08:07:a8:d3:15:06:b1:c5:ca:
                    bc:39:a4:ec:ea:f4:6e:c2:6d:1a:98:10:2c:e1:ad:
                    fa:ac:ed:4c:05:2a:68:34:3f:9d:ea:a2:c1:50:b2:
                    09:e6:83:dd:74:3e:c5:61:cc:0c:b5:61:ec:50:96:
                    c6:7c:1c:b5:2c:36:ca:26:39
                Exponent: 65537 (0x10001)
        X509v3 extensions:
            X509v3 Basic Constraints: 
                CA:FALSE
            X509v3 Subject Key Identifier: 
                18:A2:9C:4E:62:0A:21:9B:99:2F:DF:CC:68:6E:C7:A7:9D:50:A3:80
            X509v3 Authority Key Identifier: 
                keyid:38:DF:46:29:38:B2:13:8B:A5:7C:80:4B:5E:AA:24:DB:25:DC:EC:EE
                DirName:/C=FR/ST=bourgogne/L=dijon/O=eole/OU=ci/CN=ACEoleCI
                serial:81:5A:FE:E5:BA:70:38:01

            X509v3 Key Usage: critical
                Digital Signature, Key Encipherment
            X509v3 Extended Key Usage: 
                TLS Web Server Authentication
    Signature Algorithm: sha256WithRSAEncryption
         27:dc:94:db:59:67:32:ff:2b:be:64:fb:19:74:f9:36:93:b7:
         cd:ec:a1:ca:b8:8a:a3:69:3f:44:79:b1:bd:1c:81:2d:40:52:
         50:d3:5e:e7:d4:0d:2c:44:cd:28:35:58:07:4b:2f:91:bb:4e:
         92:f6:49:63:3c:c1:15:f2:76:f8:40:51:97:a6:94:07:99:57:
         db:f2:32:7e:b9:2b:7c:a7:55:59:e3:71:92:d3:af:b1:a4:a0:
         b5:7d:b5:47:b2:5e:53:2b:fc:1e:97:f2:8b:17:70:0c:90:58:
         7c:48:cf:0e:af:60:58:9e:a4:4d:3f:5e:d6:65:8d:bd:76:0b:
         92:d0
-----BEGIN CERTIFICATE-----
MIIC2zCCAkSgAwIBAgIBMTANBgkqhkiG9w0BAQsFADBgMQswCQYDVQQGEwJGUjES
MBAGA1UECAwJYm91cmdvZ25lMQ4wDAYDVQQHDAVkaWpvbjENMAsGA1UECgwEZW9s
ZTELMAkGA1UECwwCY2kxETAPBgNVBAMMCEFDRW9sZUNJMB4XDTE2MDMxNzE0MzU0
MVoXDTI0MDYwMzE0MzU0MVowHTEbMBkGA1UEAwwSbmVidWxhLmFjLXRlc3QubGFu
MIGfMA0GCSqGSIb3DQEBAQUAA4GNADCBiQKBgQDLMsUvRfcmqRgPUMOq3M1qiMkK
w+kwnL3wNatODaWHiOCTgYvPNL2j9QRQ2dTllH9UNZWL6jbhc5DTkVJzHfMCfQgH
qNMVBrHFyrw5pOzq9G7CbRqYECzhrfqs7UwFKmg0P53qosFQsgnmg910PsVhzAy1
YexQlsZ8HLUsNsomOQIDAQABo4HnMIHkMAkGA1UdEwQCMAAwHQYDVR0OBBYEFBii
nE5iCiGbmS/fzGhux6edUKOAMIGSBgNVHSMEgYowgYeAFDjfRik4shOLpXyAS16q
JNsl3OzuoWSkYjBgMQswCQYDVQQGEwJGUjESMBAGA1UECAwJYm91cmdvZ25lMQ4w
DAYDVQQHDAVkaWpvbjENMAsGA1UECgwEZW9sZTELMAkGA1UECwwCY2kxETAPBgNV
BAMMCEFDRW9sZUNJggkAgVr+5bpwOAEwDgYDVR0PAQH/BAQDAgWgMBMGA1UdJQQM
MAoGCCsGAQUFBwMBMA0GCSqGSIb3DQEBCwUAA4GBACfclNtZZzL/K75k+xl0+TaT
t83socq4iqNpP0R5sb0cgS1AUlDTXufUDSxEzSg1WAdLL5G7TpL2SWM8wRXydvhA
UZemlAeZV9vyMn65K3ynVVnjcZLTr7GkoLV9tUeyXlMr/B6X8osXcAyQWHxIzw6v
YFiepE0/XtZljb12C5LQ
-----END CERTIFICATE-----
