-----BEGIN RSA PRIVATE KEY-----
MIICXQIBAAKBgQDLMsUvRfcmqRgPUMOq3M1qiMkKw+kwnL3wNatODaWHiOCTgYvP
NL2j9QRQ2dTllH9UNZWL6jbhc5DTkVJzHfMCfQgHqNMVBrHFyrw5pOzq9G7CbRqY
ECzhrfqs7UwFKmg0P53qosFQsgnmg910PsVhzAy1YexQlsZ8HLUsNsomOQIDAQAB
AoGAJQnqG4XbWTa1ZgVIxVpeLy8jxkyTswK/NIvz39Ro+d2fYgPZIjnw33QIB1zN
i9OXqhfiXJCi1FGmcooox0cMRnKU7QAquOOnuLIJysjw4cvdCfJD+zDVEzuFlfqF
UWlBVvuY3aUk2ISbHjdHBH+9yPIVbxDod6BKtrvAgY5Fh+kCQQDwVVXF072ndAYy
mjQKFSQ296GrJ8/OXJR658wVGrPhbA0te70h64mfkF7nB84BQxFL92tyPhkravvj
Pj9a5GiTAkEA2HG6kFPLeG31N3llFIc6OwagMaRRbtp1N69egaGnYKuSVAMI/JpW
tMqlLV+TfpBQlr9qoXjNU2RD3kaYMdmxgwJBAK1VrqYegAOc/7dRVkULWHI4iaZq
8UqxpPk74wo5lxD3IE30l8U2Hq0xr/DKxT5Nw9TZXuondXnGEGOmCoWghPcCQQCZ
rl6+PZEaKFDVm69GnSGeaXzy4m4jnJ9f83fR6TrT696RIjqOSPPJmJ0hk1xBoCxo
bO9ESWbYkDeUKmHD+4MLAkAJW7QXrlOFyKQiWDGjkrt5elTQfd+p7qHMgb3HFvh4
Bx01K9YZ+YX88FU1xLMwBQqFzGPjaGwusuE3d+hPz3Qx
-----END RSA PRIVATE KEY-----
Certificate:
    Data:
        Version: 3 (0x2)
        Serial Number: 50 (0x32)
    Signature Algorithm: sha256WithRSAEncryption
        Issuer: C=FR, ST=bourgogne, L=dijon, O=eole, OU=ci, CN=ACEoleCI
        Validity
            Not Before: Mar 17 14:35:42 2016 GMT
            Not After : Jun  3 14:35:42 2024 GMT
        Subject: CN=nebula.ac-test.lan
        Subject Public Key Info:
            Public Key Algorithm: rsaEncryption
                Public-Key: (1024 bit)
                Modulus:
                    00:cb:32:c5:2f:45:f7:26:a9:18:0f:50:c3:aa:dc:
                    cd:6a:88:c9:0a:c3:e9:30:9c:bd:f0:35:ab:4e:0d:
                    a5:87:88:e0:93:81:8b:cf:34:bd:a3:f5:04:50:d9:
                    d4:e5:94:7f:54:35:95:8b:ea:36:e1:73:90:d3:91:
                    52:73:1d:f3:02:7d:08:07:a8:d3:15:06:b1:c5:ca:
                    bc:39:a4:ec:ea:f4:6e:c2:6d:1a:98:10:2c:e1:ad:
                    fa:ac:ed:4c:05:2a:68:34:3f:9d:ea:a2:c1:50:b2:
                    09:e6:83:dd:74:3e:c5:61:cc:0c:b5:61:ec:50:96:
                    c6:7c:1c:b5:2c:36:ca:26:39
                Exponent: 65537 (0x10001)
        X509v3 extensions:
            X509v3 Basic Constraints: 
                CA:FALSE
            X509v3 Subject Key Identifier: 
                18:A2:9C:4E:62:0A:21:9B:99:2F:DF:CC:68:6E:C7:A7:9D:50:A3:80
            X509v3 Authority Key Identifier: 
                keyid:38:DF:46:29:38:B2:13:8B:A5:7C:80:4B:5E:AA:24:DB:25:DC:EC:EE

            X509v3 Key Usage: critical
                Digital Signature, Non Repudiation, Key Encipherment
            X509v3 Extended Key Usage: 
                TLS Web Client Authentication, E-mail Protection
    Signature Algorithm: sha256WithRSAEncryption
         84:5a:bc:fe:44:72:18:02:da:b2:20:d0:6b:54:f7:99:47:e8:
         37:f3:20:a3:da:34:dc:d5:85:4e:b1:cd:95:76:60:97:4b:42:
         63:eb:68:92:86:ce:b5:ec:9b:0a:f1:ae:0c:31:c9:77:d1:fd:
         8a:98:2a:1a:c9:78:0e:64:9e:c3:20:9d:7b:bf:9a:02:0c:e5:
         ca:05:ef:e5:79:bf:b8:14:30:70:3c:66:97:48:a4:81:d7:9b:
         4e:72:d7:c2:ec:cf:bd:22:4c:3a:66:d2:e0:dd:e7:e9:5c:e6:
         09:d8:cc:8f:b3:a9:27:ba:7d:61:95:ac:40:d4:99:93:96:52:
         22:08
-----BEGIN CERTIFICATE-----
MIICbzCCAdigAwIBAgIBMjANBgkqhkiG9w0BAQsFADBgMQswCQYDVQQGEwJGUjES
MBAGA1UECAwJYm91cmdvZ25lMQ4wDAYDVQQHDAVkaWpvbjENMAsGA1UECgwEZW9s
ZTELMAkGA1UECwwCY2kxETAPBgNVBAMMCEFDRW9sZUNJMB4XDTE2MDMxNzE0MzU0
MloXDTI0MDYwMzE0MzU0MlowHTEbMBkGA1UEAwwSbmVidWxhLmFjLXRlc3QubGFu
MIGfMA0GCSqGSIb3DQEBAQUAA4GNADCBiQKBgQDLMsUvRfcmqRgPUMOq3M1qiMkK
w+kwnL3wNatODaWHiOCTgYvPNL2j9QRQ2dTllH9UNZWL6jbhc5DTkVJzHfMCfQgH
qNMVBrHFyrw5pOzq9G7CbRqYECzhrfqs7UwFKmg0P53qosFQsgnmg910PsVhzAy1
YexQlsZ8HLUsNsomOQIDAQABo3wwejAJBgNVHRMEAjAAMB0GA1UdDgQWBBQYopxO
Ygohm5kv38xobsennVCjgDAfBgNVHSMEGDAWgBQ430YpOLITi6V8gEteqiTbJdzs
7jAOBgNVHQ8BAf8EBAMCBeAwHQYDVR0lBBYwFAYIKwYBBQUHAwIGCCsGAQUFBwME
MA0GCSqGSIb3DQEBCwUAA4GBAIRavP5EchgC2rIg0GtU95lH6DfzIKPaNNzVhU6x
zZV2YJdLQmPraJKGzrXsmwrxrgwxyXfR/YqYKhrJeA5knsMgnXu/mgIM5coF7+V5
v7gUMHA8ZpdIpIHXm05y18Lsz70iTDpm0uDd5+lc5gnYzI+zqSe6fWGVrEDUmZOW
UiII
-----END CERTIFICATE-----
