Certificate:
    Data:
        Version: 3 (0x2)
        Serial Number: 51 (0x33)
    Signature Algorithm: sha256WithRSAEncryption
        Issuer: C=FR, ST=bourgogne, L=dijon, O=eole, OU=ci, CN=ACEoleCI
        Validity
            Not Before: Mar 17 14:35:42 2016 GMT
            Not After : Jun  3 14:35:42 2024 GMT
        Subject: CN=nebula.ac-test.lan
        Subject Public Key Info:
            Public Key Algorithm: rsaEncryption
                Public-Key: (1024 bit)
                Modulus:
                    00:cb:32:c5:2f:45:f7:26:a9:18:0f:50:c3:aa:dc:
                    cd:6a:88:c9:0a:c3:e9:30:9c:bd:f0:35:ab:4e:0d:
                    a5:87:88:e0:93:81:8b:cf:34:bd:a3:f5:04:50:d9:
                    d4:e5:94:7f:54:35:95:8b:ea:36:e1:73:90:d3:91:
                    52:73:1d:f3:02:7d:08:07:a8:d3:15:06:b1:c5:ca:
                    bc:39:a4:ec:ea:f4:6e:c2:6d:1a:98:10:2c:e1:ad:
                    fa:ac:ed:4c:05:2a:68:34:3f:9d:ea:a2:c1:50:b2:
                    09:e6:83:dd:74:3e:c5:61:cc:0c:b5:61:ec:50:96:
                    c6:7c:1c:b5:2c:36:ca:26:39
                Exponent: 65537 (0x10001)
        X509v3 extensions:
            X509v3 Basic Constraints: 
                CA:FALSE
            X509v3 Subject Key Identifier: 
                18:A2:9C:4E:62:0A:21:9B:99:2F:DF:CC:68:6E:C7:A7:9D:50:A3:80
            X509v3 Authority Key Identifier: 
                keyid:38:DF:46:29:38:B2:13:8B:A5:7C:80:4B:5E:AA:24:DB:25:DC:EC:EE
                DirName:/C=FR/ST=bourgogne/L=dijon/O=eole/OU=ci/CN=ACEoleCI
                serial:81:5A:FE:E5:BA:70:38:01

            X509v3 Key Usage: critical
                Digital Signature, Key Encipherment
    Signature Algorithm: sha256WithRSAEncryption
         6f:5a:f4:4d:78:c2:5d:3d:c3:f3:98:16:71:87:69:70:72:0d:
         37:f6:ef:85:bb:69:37:8a:88:1b:38:05:c6:21:a1:e0:2e:70:
         ec:2b:48:d0:61:8c:38:a8:99:4f:4c:06:f1:eb:d6:91:58:a8:
         e0:89:56:fb:45:7e:39:59:f5:fa:8c:ba:af:98:ed:22:73:39:
         60:47:be:e2:1a:2b:7c:4e:9b:57:3c:3b:09:22:c4:5b:af:ad:
         08:22:8c:e5:b1:45:4c:2d:ae:b6:96:fa:08:a6:d1:d3:44:4b:
         38:9f:42:fa:4c:03:aa:30:0b:0b:76:8f:77:8a:f8:e4:af:42:
         63:5a
-----BEGIN CERTIFICATE-----
MIICxjCCAi+gAwIBAgIBMzANBgkqhkiG9w0BAQsFADBgMQswCQYDVQQGEwJGUjES
MBAGA1UECAwJYm91cmdvZ25lMQ4wDAYDVQQHDAVkaWpvbjENMAsGA1UECgwEZW9s
ZTELMAkGA1UECwwCY2kxETAPBgNVBAMMCEFDRW9sZUNJMB4XDTE2MDMxNzE0MzU0
MloXDTI0MDYwMzE0MzU0MlowHTEbMBkGA1UEAwwSbmVidWxhLmFjLXRlc3QubGFu
MIGfMA0GCSqGSIb3DQEBAQUAA4GNADCBiQKBgQDLMsUvRfcmqRgPUMOq3M1qiMkK
w+kwnL3wNatODaWHiOCTgYvPNL2j9QRQ2dTllH9UNZWL6jbhc5DTkVJzHfMCfQgH
qNMVBrHFyrw5pOzq9G7CbRqYECzhrfqs7UwFKmg0P53qosFQsgnmg910PsVhzAy1
YexQlsZ8HLUsNsomOQIDAQABo4HSMIHPMAkGA1UdEwQCMAAwHQYDVR0OBBYEFBii
nE5iCiGbmS/fzGhux6edUKOAMIGSBgNVHSMEgYowgYeAFDjfRik4shOLpXyAS16q
JNsl3OzuoWSkYjBgMQswCQYDVQQGEwJGUjESMBAGA1UECAwJYm91cmdvZ25lMQ4w
DAYDVQQHDAVkaWpvbjENMAsGA1UECgwEZW9sZTELMAkGA1UECwwCY2kxETAPBgNV
BAMMCEFDRW9sZUNJggkAgVr+5bpwOAEwDgYDVR0PAQH/BAQDAgWgMA0GCSqGSIb3
DQEBCwUAA4GBAG9a9E14wl09w/OYFnGHaXByDTf274W7aTeKiBs4BcYhoeAucOwr
SNBhjDiomU9MBvHr1pFYqOCJVvtFfjlZ9fqMuq+Y7SJzOWBHvuIaK3xOm1c8Owki
xFuvrQgijOWxRUwtrraW+gim0dNESzifQvpMA6owCwt2j3eK+OSvQmNa
-----END CERTIFICATE-----
