Certificate:
    Data:
        Version: 3 (0x2)
        Serial Number: 39 (0x27)
    Signature Algorithm: sha256WithRSAEncryption
        Issuer: C=FR, ST=bourgogne, L=dijon, O=eole, OU=ci, CN=ACEoleCI
        Validity
            Not Before: Mar 17 14:35:38 2016 GMT
            Not After : Jun  3 14:35:38 2024 GMT
        Subject: CN=hapy-master.ac-test.lan
        Subject Public Key Info:
            Public Key Algorithm: rsaEncryption
                Public-Key: (1024 bit)
                Modulus:
                    00:9f:96:99:e9:7d:47:bc:25:84:15:4f:e5:e6:89:
                    ae:95:6a:97:e6:97:f8:d2:20:dd:12:c6:44:fa:2c:
                    0a:c1:e3:8f:07:5a:46:9e:86:2c:a7:d5:fc:6e:fc:
                    ec:f6:59:bc:c7:ba:41:c7:4d:2e:85:b5:52:5b:84:
                    f3:47:a4:ac:c3:34:ff:fa:c0:b3:4b:2a:f6:0a:4a:
                    3c:aa:4e:30:cc:62:9a:2d:ce:74:96:81:44:87:3e:
                    8a:17:15:f9:25:c2:77:32:ae:23:b1:2f:58:cb:6c:
                    6b:c6:6b:4d:a5:44:ef:c4:7a:3c:27:2c:c9:b1:10:
                    3b:3b:7d:ee:dc:97:99:95:f3
                Exponent: 65537 (0x10001)
        X509v3 extensions:
            X509v3 Basic Constraints: 
                CA:FALSE
            X509v3 Subject Key Identifier: 
                C1:A4:DF:CC:55:08:1D:97:06:F0:64:4A:E3:74:32:DF:70:98:56:86
            X509v3 Authority Key Identifier: 
                keyid:38:DF:46:29:38:B2:13:8B:A5:7C:80:4B:5E:AA:24:DB:25:DC:EC:EE
                DirName:/C=FR/ST=bourgogne/L=dijon/O=eole/OU=ci/CN=ACEoleCI
                serial:81:5A:FE:E5:BA:70:38:01

            X509v3 Key Usage: critical
                Digital Signature, Key Encipherment
    Signature Algorithm: sha256WithRSAEncryption
         9f:0a:93:3b:27:9d:fa:2e:9e:af:0c:bc:80:b8:16:fa:74:95:
         e2:91:1b:c8:b7:ac:58:30:70:b9:6a:ed:a5:9d:09:85:fc:ff:
         f5:4d:72:34:8c:77:dd:da:4d:a6:93:51:19:94:7b:ad:6e:cc:
         56:23:ff:48:a4:52:40:15:fb:43:4e:93:4e:5d:32:6b:b6:2d:
         8b:78:e9:51:6c:31:5e:be:d5:da:8b:4f:06:e0:e4:af:38:f1:
         d2:c0:34:43:2f:d5:54:0f:b2:76:45:60:7f:61:0d:32:8a:a8:
         fc:89:5e:46:05:e9:c1:84:21:80:6b:75:e2:40:69:49:f3:bf:
         48:fa
-----BEGIN CERTIFICATE-----
MIICyzCCAjSgAwIBAgIBJzANBgkqhkiG9w0BAQsFADBgMQswCQYDVQQGEwJGUjES
MBAGA1UECAwJYm91cmdvZ25lMQ4wDAYDVQQHDAVkaWpvbjENMAsGA1UECgwEZW9s
ZTELMAkGA1UECwwCY2kxETAPBgNVBAMMCEFDRW9sZUNJMB4XDTE2MDMxNzE0MzUz
OFoXDTI0MDYwMzE0MzUzOFowIjEgMB4GA1UEAwwXaGFweS1tYXN0ZXIuYWMtdGVz
dC5sYW4wgZ8wDQYJKoZIhvcNAQEBBQADgY0AMIGJAoGBAJ+Wmel9R7wlhBVP5eaJ
rpVql+aX+NIg3RLGRPosCsHjjwdaRp6GLKfV/G787PZZvMe6QcdNLoW1UluE80ek
rMM0//rAs0sq9gpKPKpOMMximi3OdJaBRIc+ihcV+SXCdzKuI7EvWMtsa8ZrTaVE
78R6PCcsybEQOzt97tyXmZXzAgMBAAGjgdIwgc8wCQYDVR0TBAIwADAdBgNVHQ4E
FgQUwaTfzFUIHZcG8GRK43Qy33CYVoYwgZIGA1UdIwSBijCBh4AUON9GKTiyE4ul
fIBLXqok2yXc7O6hZKRiMGAxCzAJBgNVBAYTAkZSMRIwEAYDVQQIDAlib3VyZ29n
bmUxDjAMBgNVBAcMBWRpam9uMQ0wCwYDVQQKDARlb2xlMQswCQYDVQQLDAJjaTER
MA8GA1UEAwwIQUNFb2xlQ0mCCQCBWv7lunA4ATAOBgNVHQ8BAf8EBAMCBaAwDQYJ
KoZIhvcNAQELBQADgYEAnwqTOyed+i6erwy8gLgW+nSV4pEbyLesWDBwuWrtpZ0J
hfz/9U1yNIx33dpNppNRGZR7rW7MViP/SKRSQBX7Q06TTl0ya7Yti3jpUWwxXr7V
2otPBuDkrzjx0sA0Qy/VVA+ydkVgf2ENMoqo/IleRgXpwYQhgGt14kBpSfO/SPo=
-----END CERTIFICATE-----
