Certificate:
    Data:
        Version: 3 (0x2)
        Serial Number: 38 (0x26)
    Signature Algorithm: sha256WithRSAEncryption
        Issuer: C=FR, ST=bourgogne, L=dijon, O=eole, OU=ci, CN=ACEoleCI
        Validity
            Not Before: Mar 17 14:35:38 2016 GMT
            Not After : Jun  3 14:35:38 2024 GMT
        Subject: CN=hapy-master.ac-test.lan
        Subject Public Key Info:
            Public Key Algorithm: rsaEncryption
                Public-Key: (1024 bit)
                Modulus:
                    00:9f:96:99:e9:7d:47:bc:25:84:15:4f:e5:e6:89:
                    ae:95:6a:97:e6:97:f8:d2:20:dd:12:c6:44:fa:2c:
                    0a:c1:e3:8f:07:5a:46:9e:86:2c:a7:d5:fc:6e:fc:
                    ec:f6:59:bc:c7:ba:41:c7:4d:2e:85:b5:52:5b:84:
                    f3:47:a4:ac:c3:34:ff:fa:c0:b3:4b:2a:f6:0a:4a:
                    3c:aa:4e:30:cc:62:9a:2d:ce:74:96:81:44:87:3e:
                    8a:17:15:f9:25:c2:77:32:ae:23:b1:2f:58:cb:6c:
                    6b:c6:6b:4d:a5:44:ef:c4:7a:3c:27:2c:c9:b1:10:
                    3b:3b:7d:ee:dc:97:99:95:f3
                Exponent: 65537 (0x10001)
        X509v3 extensions:
            X509v3 Basic Constraints: 
                CA:FALSE
            X509v3 Subject Key Identifier: 
                C1:A4:DF:CC:55:08:1D:97:06:F0:64:4A:E3:74:32:DF:70:98:56:86
            X509v3 Authority Key Identifier: 
                keyid:38:DF:46:29:38:B2:13:8B:A5:7C:80:4B:5E:AA:24:DB:25:DC:EC:EE

            X509v3 Key Usage: critical
                Digital Signature, Non Repudiation, Key Encipherment
            X509v3 Extended Key Usage: 
                TLS Web Client Authentication, E-mail Protection
    Signature Algorithm: sha256WithRSAEncryption
         7a:fd:16:d4:11:1a:aa:67:ee:90:d3:a0:e2:1f:4a:5b:9a:7d:
         7e:45:bd:a3:21:61:5e:7a:a7:da:8d:f8:ed:3b:5b:d6:1b:19:
         60:03:64:75:1e:e5:d1:04:41:9f:3a:33:c6:c4:cc:b6:20:6b:
         b7:cd:a3:65:97:18:1e:07:fd:0b:7b:14:e7:8b:b8:48:cc:ce:
         a2:d8:ab:a2:5e:34:88:cd:a0:e3:d7:ac:56:79:1e:ec:07:c4:
         4f:37:50:df:a1:82:b6:15:2c:1e:e4:bc:c4:3d:d1:a6:fc:f6:
         b7:c3:dc:88:ee:d1:c7:7b:53:ef:8e:a1:2d:e4:07:49:0a:d9:
         7c:c2
-----BEGIN CERTIFICATE-----
MIICdDCCAd2gAwIBAgIBJjANBgkqhkiG9w0BAQsFADBgMQswCQYDVQQGEwJGUjES
MBAGA1UECAwJYm91cmdvZ25lMQ4wDAYDVQQHDAVkaWpvbjENMAsGA1UECgwEZW9s
ZTELMAkGA1UECwwCY2kxETAPBgNVBAMMCEFDRW9sZUNJMB4XDTE2MDMxNzE0MzUz
OFoXDTI0MDYwMzE0MzUzOFowIjEgMB4GA1UEAwwXaGFweS1tYXN0ZXIuYWMtdGVz
dC5sYW4wgZ8wDQYJKoZIhvcNAQEBBQADgY0AMIGJAoGBAJ+Wmel9R7wlhBVP5eaJ
rpVql+aX+NIg3RLGRPosCsHjjwdaRp6GLKfV/G787PZZvMe6QcdNLoW1UluE80ek
rMM0//rAs0sq9gpKPKpOMMximi3OdJaBRIc+ihcV+SXCdzKuI7EvWMtsa8ZrTaVE
78R6PCcsybEQOzt97tyXmZXzAgMBAAGjfDB6MAkGA1UdEwQCMAAwHQYDVR0OBBYE
FMGk38xVCB2XBvBkSuN0Mt9wmFaGMB8GA1UdIwQYMBaAFDjfRik4shOLpXyAS16q
JNsl3OzuMA4GA1UdDwEB/wQEAwIF4DAdBgNVHSUEFjAUBggrBgEFBQcDAgYIKwYB
BQUHAwQwDQYJKoZIhvcNAQELBQADgYEAev0W1BEaqmfukNOg4h9KW5p9fkW9oyFh
Xnqn2o347Ttb1hsZYANkdR7l0QRBnzozxsTMtiBrt82jZZcYHgf9C3sU54u4SMzO
otirol40iM2g49esVnke7AfETzdQ36GCthUsHuS8xD3Rpvz2t8PciO7Rx3tT746h
LeQHSQrZfMI=
-----END CERTIFICATE-----
