Certificate:
    Data:
        Version: 3 (0x2)
        Serial Number: 37 (0x25)
    Signature Algorithm: sha256WithRSAEncryption
        Issuer: C=FR, ST=bourgogne, L=dijon, O=eole, OU=ci, CN=ACEoleCI
        Validity
            Not Before: Mar 17 14:35:38 2016 GMT
            Not After : Jun  3 14:35:38 2024 GMT
        Subject: CN=hapy-master.ac-test.lan
        Subject Public Key Info:
            Public Key Algorithm: rsaEncryption
                Public-Key: (1024 bit)
                Modulus:
                    00:9f:96:99:e9:7d:47:bc:25:84:15:4f:e5:e6:89:
                    ae:95:6a:97:e6:97:f8:d2:20:dd:12:c6:44:fa:2c:
                    0a:c1:e3:8f:07:5a:46:9e:86:2c:a7:d5:fc:6e:fc:
                    ec:f6:59:bc:c7:ba:41:c7:4d:2e:85:b5:52:5b:84:
                    f3:47:a4:ac:c3:34:ff:fa:c0:b3:4b:2a:f6:0a:4a:
                    3c:aa:4e:30:cc:62:9a:2d:ce:74:96:81:44:87:3e:
                    8a:17:15:f9:25:c2:77:32:ae:23:b1:2f:58:cb:6c:
                    6b:c6:6b:4d:a5:44:ef:c4:7a:3c:27:2c:c9:b1:10:
                    3b:3b:7d:ee:dc:97:99:95:f3
                Exponent: 65537 (0x10001)
        X509v3 extensions:
            X509v3 Basic Constraints: 
                CA:FALSE
            X509v3 Subject Key Identifier: 
                C1:A4:DF:CC:55:08:1D:97:06:F0:64:4A:E3:74:32:DF:70:98:56:86
            X509v3 Authority Key Identifier: 
                keyid:38:DF:46:29:38:B2:13:8B:A5:7C:80:4B:5E:AA:24:DB:25:DC:EC:EE
                DirName:/C=FR/ST=bourgogne/L=dijon/O=eole/OU=ci/CN=ACEoleCI
                serial:81:5A:FE:E5:BA:70:38:01

            X509v3 Key Usage: critical
                Digital Signature, Key Encipherment
            X509v3 Extended Key Usage: 
                TLS Web Server Authentication
    Signature Algorithm: sha256WithRSAEncryption
         4b:91:0b:34:cb:8f:82:3c:f9:a7:e3:38:ee:71:e4:3f:ad:b5:
         f2:6f:1c:0f:97:3e:a6:c2:be:cf:d1:aa:98:72:01:19:d7:a9:
         de:78:1d:40:fd:68:22:f3:b9:3c:ff:83:bd:5a:83:d6:50:64:
         36:29:db:79:68:d4:85:89:ec:fe:bd:4d:17:33:44:43:b1:91:
         65:49:80:84:b2:65:b3:df:00:db:f0:08:6d:27:de:a5:50:45:
         3e:13:4b:72:de:3f:53:bd:19:bd:78:0d:03:44:e4:3c:77:87:
         dd:19:cf:cb:6a:ce:31:ce:3f:24:50:ea:6a:9c:36:89:46:eb:
         f6:a1
-----BEGIN CERTIFICATE-----
MIIC4DCCAkmgAwIBAgIBJTANBgkqhkiG9w0BAQsFADBgMQswCQYDVQQGEwJGUjES
MBAGA1UECAwJYm91cmdvZ25lMQ4wDAYDVQQHDAVkaWpvbjENMAsGA1UECgwEZW9s
ZTELMAkGA1UECwwCY2kxETAPBgNVBAMMCEFDRW9sZUNJMB4XDTE2MDMxNzE0MzUz
OFoXDTI0MDYwMzE0MzUzOFowIjEgMB4GA1UEAwwXaGFweS1tYXN0ZXIuYWMtdGVz
dC5sYW4wgZ8wDQYJKoZIhvcNAQEBBQADgY0AMIGJAoGBAJ+Wmel9R7wlhBVP5eaJ
rpVql+aX+NIg3RLGRPosCsHjjwdaRp6GLKfV/G787PZZvMe6QcdNLoW1UluE80ek
rMM0//rAs0sq9gpKPKpOMMximi3OdJaBRIc+ihcV+SXCdzKuI7EvWMtsa8ZrTaVE
78R6PCcsybEQOzt97tyXmZXzAgMBAAGjgecwgeQwCQYDVR0TBAIwADAdBgNVHQ4E
FgQUwaTfzFUIHZcG8GRK43Qy33CYVoYwgZIGA1UdIwSBijCBh4AUON9GKTiyE4ul
fIBLXqok2yXc7O6hZKRiMGAxCzAJBgNVBAYTAkZSMRIwEAYDVQQIDAlib3VyZ29n
bmUxDjAMBgNVBAcMBWRpam9uMQ0wCwYDVQQKDARlb2xlMQswCQYDVQQLDAJjaTER
MA8GA1UEAwwIQUNFb2xlQ0mCCQCBWv7lunA4ATAOBgNVHQ8BAf8EBAMCBaAwEwYD
VR0lBAwwCgYIKwYBBQUHAwEwDQYJKoZIhvcNAQELBQADgYEAS5ELNMuPgjz5p+M4
7nHkP6218m8cD5c+psK+z9GqmHIBGdep3ngdQP1oIvO5PP+DvVqD1lBkNinbeWjU
hYns/r1NFzNEQ7GRZUmAhLJls98A2/AIbSfepVBFPhNLct4/U70ZvXgNA0TkPHeH
3RnPy2rOMc4/JFDqapw2iUbr9qE=
-----END CERTIFICATE-----
