-----BEGIN RSA PRIVATE KEY-----
MIICXgIBAAKBgQDeZI+PDWi/tqMhSajlyf4MzfRGjWaBiBEFBJ3HszAgyFPItK+7
1ocFVzZaMb9g4GfjgaBl2mwreVLrj9MryK6T7d0oUXDdQ2n0ylCYYfMdbGdtdK1R
PgYmsBXKeQ2h4CSidulADJyTw67i3BtnHopfbldcZHyrMNEZIA+XNu6VlQIDAQAB
AoGAGAyJ1a9eh3TJmTzs7cR1G49d/g8maZV8Oa2xHjpLVxAytz6KzmY5faNbtk8w
4doCggCvhrQjBGR/SgfojxCJiDQKi7dQxP6SJWnnl3ALwXxk3QRJ+HgBEOpz1WEK
wyBk1y1audttVlzl5VKEYew7sQDvqeMZJlF9EzqDOkomf+ECQQD3MlOvsVi3+MOU
q2ddJM9Us4oSsdeFNHTXI09t4mFZS8iCFgMdKrqY5l92+CotExXQ+uOlGkNgHKqh
Cg+HQZr9AkEA5lAZhbxT6VsDegZie8lNCiTmjldX/AYTQEQ7XTvvPtstwOJwHYes
guBrGxjkIcaRXgzvtR/RFtcn0cL/41/keQJBAImioenvKuC0R+GdVh4Mgsw8cyJZ
lxB51px68pzSMTXQ9kFIFE/HHMJJctoA7yrNt5X2O44QA3eePnsP6Pl8U9kCQQDJ
GHFggzLlU3GyrzZ4jSi2Tcf9yyfox0kx2SHYY4efY3MMsupf7mHjmJ4Md+xhzWaK
L1Nx28kOX2jGT7RsTQNJAkEA3kCIZ/47Q+T55B+/D26mxEC+N6o5JFfSwIKKGh4f
r+8t+BbcD2EeDSbOKmzXjcRLrYrBNLJx59hkt6kn8gqxXQ==
-----END RSA PRIVATE KEY-----
Certificate:
    Data:
        Version: 3 (0x2)
        Serial Number: 58 (0x3a)
    Signature Algorithm: sha256WithRSAEncryption
        Issuer: C=FR, ST=bourgogne, L=dijon, O=eole, OU=ci, CN=ACEoleCI
        Validity
            Not Before: Mar 17 14:35:44 2016 GMT
            Not After : Jun  3 14:35:44 2024 GMT
        Subject: CN=sentinelle.ac-test.lan
        Subject Public Key Info:
            Public Key Algorithm: rsaEncryption
                Public-Key: (1024 bit)
                Modulus:
                    00:de:64:8f:8f:0d:68:bf:b6:a3:21:49:a8:e5:c9:
                    fe:0c:cd:f4:46:8d:66:81:88:11:05:04:9d:c7:b3:
                    30:20:c8:53:c8:b4:af:bb:d6:87:05:57:36:5a:31:
                    bf:60:e0:67:e3:81:a0:65:da:6c:2b:79:52:eb:8f:
                    d3:2b:c8:ae:93:ed:dd:28:51:70:dd:43:69:f4:ca:
                    50:98:61:f3:1d:6c:67:6d:74:ad:51:3e:06:26:b0:
                    15:ca:79:0d:a1:e0:24:a2:76:e9:40:0c:9c:93:c3:
                    ae:e2:dc:1b:67:1e:8a:5f:6e:57:5c:64:7c:ab:30:
                    d1:19:20:0f:97:36:ee:95:95
                Exponent: 65537 (0x10001)
        X509v3 extensions:
            X509v3 Basic Constraints: 
                CA:FALSE
            X509v3 Subject Key Identifier: 
                76:63:9E:76:8D:2C:B4:B3:D3:77:64:10:A4:D6:E1:A1:4E:52:9C:E2
            X509v3 Authority Key Identifier: 
                keyid:38:DF:46:29:38:B2:13:8B:A5:7C:80:4B:5E:AA:24:DB:25:DC:EC:EE
                DirName:/C=FR/ST=bourgogne/L=dijon/O=eole/OU=ci/CN=ACEoleCI
                serial:81:5A:FE:E5:BA:70:38:01

            X509v3 Key Usage: critical
                Digital Signature, Key Encipherment
            X509v3 Extended Key Usage: 
                TLS Web Server Authentication
    Signature Algorithm: sha256WithRSAEncryption
         74:14:a3:57:50:1d:72:23:60:b9:82:d2:97:27:d4:bb:8a:87:
         93:c4:ee:28:c9:2a:6f:09:7a:31:02:d5:34:b0:84:55:a9:ec:
         9a:4d:8d:a0:95:40:70:b6:5e:30:3b:51:1d:57:68:54:2d:be:
         82:d8:f0:dc:48:5d:83:d4:3a:37:d8:e2:bf:e1:31:20:30:00:
         40:76:36:02:c4:36:4c:bd:3c:97:6b:20:24:ce:60:76:5c:cd:
         ea:28:91:5a:31:93:8d:38:e1:be:a2:19:5b:4d:4a:6a:4d:16:
         dd:54:30:49:bb:50:6b:1e:77:8a:4d:4a:7d:ea:bb:41:4e:26:
         c8:0d
-----BEGIN CERTIFICATE-----
MIIC3zCCAkigAwIBAgIBOjANBgkqhkiG9w0BAQsFADBgMQswCQYDVQQGEwJGUjES
MBAGA1UECAwJYm91cmdvZ25lMQ4wDAYDVQQHDAVkaWpvbjENMAsGA1UECgwEZW9s
ZTELMAkGA1UECwwCY2kxETAPBgNVBAMMCEFDRW9sZUNJMB4XDTE2MDMxNzE0MzU0
NFoXDTI0MDYwMzE0MzU0NFowITEfMB0GA1UEAwwWc2VudGluZWxsZS5hYy10ZXN0
LmxhbjCBnzANBgkqhkiG9w0BAQEFAAOBjQAwgYkCgYEA3mSPjw1ov7ajIUmo5cn+
DM30Ro1mgYgRBQSdx7MwIMhTyLSvu9aHBVc2WjG/YOBn44GgZdpsK3lS64/TK8iu
k+3dKFFw3UNp9MpQmGHzHWxnbXStUT4GJrAVynkNoeAkonbpQAyck8Ou4twbZx6K
X25XXGR8qzDRGSAPlzbulZUCAwEAAaOB5zCB5DAJBgNVHRMEAjAAMB0GA1UdDgQW
BBR2Y552jSy0s9N3ZBCk1uGhTlKc4jCBkgYDVR0jBIGKMIGHgBQ430YpOLITi6V8
gEteqiTbJdzs7qFkpGIwYDELMAkGA1UEBhMCRlIxEjAQBgNVBAgMCWJvdXJnb2du
ZTEOMAwGA1UEBwwFZGlqb24xDTALBgNVBAoMBGVvbGUxCzAJBgNVBAsMAmNpMREw
DwYDVQQDDAhBQ0VvbGVDSYIJAIFa/uW6cDgBMA4GA1UdDwEB/wQEAwIFoDATBgNV
HSUEDDAKBggrBgEFBQcDATANBgkqhkiG9w0BAQsFAAOBgQB0FKNXUB1yI2C5gtKX
J9S7ioeTxO4oySpvCXoxAtU0sIRVqeyaTY2glUBwtl4wO1EdV2hULb6C2PDcSF2D
1Do32OK/4TEgMABAdjYCxDZMvTyXayAkzmB2XM3qKJFaMZONOOG+ohlbTUpqTRbd
VDBJu1BrHneKTUp96rtBTibIDQ==
-----END CERTIFICATE-----
