-----BEGIN RSA PRIVATE KEY-----
MIICXQIBAAKBgQDL+/e0vF/pJbxrWNFKBywI8XCeyZ5/FWrQ9rHkpbHbkqSDu/Un
EaYvO1sXEeIBWri+XfQGKUkNRfRBJhD/RKRKnYUmRvFFZj8/R3n19dfmRoKth4Lj
3XHmcBoB23KEwTvUD0LUnVddnqn1Ojgfcz/PoXdGQmhGLWPF1OFHFVVpkQIDAQAB
AoGBAKojjNV0Na9aqVEEMPTFDKac82mOE6Q+Mez/hxuGVNYm9w9ly7H9l5ZXtL+G
S/MDP4qRBQPKlcL7cSKR5KV2FG0mu5+cf+6KnJqHSoZlpwFXjHS5k8Xi5KWJC4qc
2IGr5OrygWTFBs7IVsDxjIB5rAfEJ136IkuyQ3W1eLDNCBWRAkEA5/P7QxjpPOyQ
jpkiIwpFF69WQp2RDGKsFfIe3UCu1W9MzWsehk31AQHpe9zLtimeyMuEu0M+RaSB
bXXWjysLbQJBAOEhsidvbCSM0dGiMy2XNdvyen3bEKYQmR52fedD1LX/8kbRvllo
3QWUaGBtdeNT4Y7oxMQwfdc4ILMDwrwovDUCQAnHbIFwrGyoIJQSerD1fuI3vzBB
ylq2UkD+mzSCxJw0/AzxBjFtWfX36asSLPh6GrqmcesfM6HmBJrjy+7vRqUCQQCh
gjL055KFhiDga6SbiGczK3mE4KvI9w9iM0+PobHv/3YoKECOlBQ79IQM6XoxY/Pl
OkgvFzqwM6wBwSjrI64hAkArfwCt5zZg4y5wp4bX3Bgk1u0jEnxsZmDLGcRGzClX
rATOT1R6rBxM8lBQKVMuwWeF7H1+EVifM6ljrj7fRtI8
-----END RSA PRIVATE KEY-----
Certificate:
    Data:
        Version: 3 (0x2)
        Serial Number: 179 (0xb3)
    Signature Algorithm: sha256WithRSAEncryption
        Issuer: C=FR, ST=bourgogne, L=dijon, O=eole, OU=ci, CN=ACEoleCI
        Validity
            Not Before: Mar 17 14:36:15 2016 GMT
            Not After : Jun  3 14:36:15 2024 GMT
        Subject: CN=amonecoleeclair.etb4.lan
        Subject Public Key Info:
            Public Key Algorithm: rsaEncryption
                Public-Key: (1024 bit)
                Modulus:
                    00:cb:fb:f7:b4:bc:5f:e9:25:bc:6b:58:d1:4a:07:
                    2c:08:f1:70:9e:c9:9e:7f:15:6a:d0:f6:b1:e4:a5:
                    b1:db:92:a4:83:bb:f5:27:11:a6:2f:3b:5b:17:11:
                    e2:01:5a:b8:be:5d:f4:06:29:49:0d:45:f4:41:26:
                    10:ff:44:a4:4a:9d:85:26:46:f1:45:66:3f:3f:47:
                    79:f5:f5:d7:e6:46:82:ad:87:82:e3:dd:71:e6:70:
                    1a:01:db:72:84:c1:3b:d4:0f:42:d4:9d:57:5d:9e:
                    a9:f5:3a:38:1f:73:3f:cf:a1:77:46:42:68:46:2d:
                    63:c5:d4:e1:47:15:55:69:91
                Exponent: 65537 (0x10001)
        X509v3 extensions:
            X509v3 Basic Constraints: 
                CA:FALSE
            X509v3 Subject Key Identifier: 
                89:F1:5E:A0:EB:F9:C9:9E:CE:00:69:16:F1:10:F0:75:60:32:60:16
            X509v3 Authority Key Identifier: 
                keyid:38:DF:46:29:38:B2:13:8B:A5:7C:80:4B:5E:AA:24:DB:25:DC:EC:EE

            X509v3 Key Usage: critical
                Digital Signature, Non Repudiation, Key Encipherment
            X509v3 Extended Key Usage: 
                TLS Web Client Authentication, E-mail Protection
    Signature Algorithm: sha256WithRSAEncryption
         43:cd:9d:4b:14:ac:31:16:fe:5c:86:fc:b3:23:30:ec:69:fd:
         d7:d9:5e:8a:86:4b:6b:a1:8c:07:df:13:45:d7:d9:7f:f6:22:
         ff:ce:25:cd:08:1e:fd:7a:55:fb:b2:25:8e:a7:de:48:98:48:
         36:0e:93:c9:90:9b:d0:0f:9e:07:a6:47:ec:29:26:97:21:69:
         ff:e7:ff:75:53:86:8c:76:23:9f:49:23:a6:49:ca:26:e5:ca:
         22:1f:14:2c:ce:aa:c0:3a:51:2c:e8:90:7a:eb:70:b6:66:59:
         08:dd:52:f2:35:13:15:e0:07:94:c7:e2:1c:8e:f8:81:02:a0:
         2b:52
-----BEGIN CERTIFICATE-----
MIICdjCCAd+gAwIBAgICALMwDQYJKoZIhvcNAQELBQAwYDELMAkGA1UEBhMCRlIx
EjAQBgNVBAgMCWJvdXJnb2duZTEOMAwGA1UEBwwFZGlqb24xDTALBgNVBAoMBGVv
bGUxCzAJBgNVBAsMAmNpMREwDwYDVQQDDAhBQ0VvbGVDSTAeFw0xNjAzMTcxNDM2
MTVaFw0yNDA2MDMxNDM2MTVaMCMxITAfBgNVBAMMGGFtb25lY29sZWVjbGFpci5l
dGI0LmxhbjCBnzANBgkqhkiG9w0BAQEFAAOBjQAwgYkCgYEAy/v3tLxf6SW8a1jR
SgcsCPFwnsmefxVq0Pax5KWx25Kkg7v1JxGmLztbFxHiAVq4vl30BilJDUX0QSYQ
/0SkSp2FJkbxRWY/P0d59fXX5kaCrYeC491x5nAaAdtyhME71A9C1J1XXZ6p9To4
H3M/z6F3RkJoRi1jxdThRxVVaZECAwEAAaN8MHowCQYDVR0TBAIwADAdBgNVHQ4E
FgQUifFeoOv5yZ7OAGkW8RDwdWAyYBYwHwYDVR0jBBgwFoAUON9GKTiyE4ulfIBL
Xqok2yXc7O4wDgYDVR0PAQH/BAQDAgXgMB0GA1UdJQQWMBQGCCsGAQUFBwMCBggr
BgEFBQcDBDANBgkqhkiG9w0BAQsFAAOBgQBDzZ1LFKwxFv5chvyzIzDsaf3X2V6K
hktroYwH3xNF19l/9iL/ziXNCB79elX7siWOp95ImEg2DpPJkJvQD54HpkfsKSaX
IWn/5/91U4aMdiOfSSOmScom5coiHxQszqrAOlEs6JB663C2ZlkI3VLyNRMV4AeU
x+IcjviBAqArUg==
-----END CERTIFICATE-----
