Certificate:
    Data:
        Version: 3 (0x2)
        Serial Number: 180 (0xb4)
    Signature Algorithm: sha256WithRSAEncryption
        Issuer: C=FR, ST=bourgogne, L=dijon, O=eole, OU=ci, CN=ACEoleCI
        Validity
            Not Before: Mar 17 14:36:16 2016 GMT
            Not After : Jun  3 14:36:16 2024 GMT
        Subject: CN=amonecoleeclair.etb4.lan
        Subject Public Key Info:
            Public Key Algorithm: rsaEncryption
                Public-Key: (1024 bit)
                Modulus:
                    00:cb:fb:f7:b4:bc:5f:e9:25:bc:6b:58:d1:4a:07:
                    2c:08:f1:70:9e:c9:9e:7f:15:6a:d0:f6:b1:e4:a5:
                    b1:db:92:a4:83:bb:f5:27:11:a6:2f:3b:5b:17:11:
                    e2:01:5a:b8:be:5d:f4:06:29:49:0d:45:f4:41:26:
                    10:ff:44:a4:4a:9d:85:26:46:f1:45:66:3f:3f:47:
                    79:f5:f5:d7:e6:46:82:ad:87:82:e3:dd:71:e6:70:
                    1a:01:db:72:84:c1:3b:d4:0f:42:d4:9d:57:5d:9e:
                    a9:f5:3a:38:1f:73:3f:cf:a1:77:46:42:68:46:2d:
                    63:c5:d4:e1:47:15:55:69:91
                Exponent: 65537 (0x10001)
        X509v3 extensions:
            X509v3 Basic Constraints: 
                CA:FALSE
            X509v3 Subject Key Identifier: 
                89:F1:5E:A0:EB:F9:C9:9E:CE:00:69:16:F1:10:F0:75:60:32:60:16
            X509v3 Authority Key Identifier: 
                keyid:38:DF:46:29:38:B2:13:8B:A5:7C:80:4B:5E:AA:24:DB:25:DC:EC:EE
                DirName:/C=FR/ST=bourgogne/L=dijon/O=eole/OU=ci/CN=ACEoleCI
                serial:81:5A:FE:E5:BA:70:38:01

            X509v3 Key Usage: critical
                Digital Signature, Key Encipherment
    Signature Algorithm: sha256WithRSAEncryption
         4c:aa:0b:1c:1b:7a:a5:c8:53:a2:d6:4d:7c:44:e6:04:e2:69:
         a5:05:8b:39:3e:6d:6d:86:8d:61:9f:ba:1c:81:19:3f:8e:03:
         92:cb:b1:13:5c:01:d5:2c:7c:e6:61:c7:34:c3:9f:60:a0:6f:
         39:7f:56:81:98:d6:cc:2e:42:9b:39:19:d8:e2:1f:3b:c5:2f:
         ad:5f:c0:87:4c:31:19:5d:0a:52:94:2e:8b:6b:ee:16:e0:8d:
         50:e3:87:a7:dd:3a:09:65:69:f8:89:91:eb:c5:7d:36:cb:60:
         ed:ad:38:04:d3:f8:86:f5:d2:67:88:e0:77:93:af:bc:c7:4a:
         e9:3d
-----BEGIN CERTIFICATE-----
MIICzTCCAjagAwIBAgICALQwDQYJKoZIhvcNAQELBQAwYDELMAkGA1UEBhMCRlIx
EjAQBgNVBAgMCWJvdXJnb2duZTEOMAwGA1UEBwwFZGlqb24xDTALBgNVBAoMBGVv
bGUxCzAJBgNVBAsMAmNpMREwDwYDVQQDDAhBQ0VvbGVDSTAeFw0xNjAzMTcxNDM2
MTZaFw0yNDA2MDMxNDM2MTZaMCMxITAfBgNVBAMMGGFtb25lY29sZWVjbGFpci5l
dGI0LmxhbjCBnzANBgkqhkiG9w0BAQEFAAOBjQAwgYkCgYEAy/v3tLxf6SW8a1jR
SgcsCPFwnsmefxVq0Pax5KWx25Kkg7v1JxGmLztbFxHiAVq4vl30BilJDUX0QSYQ
/0SkSp2FJkbxRWY/P0d59fXX5kaCrYeC491x5nAaAdtyhME71A9C1J1XXZ6p9To4
H3M/z6F3RkJoRi1jxdThRxVVaZECAwEAAaOB0jCBzzAJBgNVHRMEAjAAMB0GA1Ud
DgQWBBSJ8V6g6/nJns4AaRbxEPB1YDJgFjCBkgYDVR0jBIGKMIGHgBQ430YpOLIT
i6V8gEteqiTbJdzs7qFkpGIwYDELMAkGA1UEBhMCRlIxEjAQBgNVBAgMCWJvdXJn
b2duZTEOMAwGA1UEBwwFZGlqb24xDTALBgNVBAoMBGVvbGUxCzAJBgNVBAsMAmNp
MREwDwYDVQQDDAhBQ0VvbGVDSYIJAIFa/uW6cDgBMA4GA1UdDwEB/wQEAwIFoDAN
BgkqhkiG9w0BAQsFAAOBgQBMqgscG3qlyFOi1k18ROYE4mmlBYs5Pm1tho1hn7oc
gRk/jgOSy7ETXAHVLHzmYcc0w59goG85f1aBmNbMLkKbORnY4h87xS+tX8CHTDEZ
XQpSlC6La+4W4I1Q44en3ToJZWn4iZHrxX02y2DtrTgE0/iG9dJniOB3k6+8x0rp
PQ==
-----END CERTIFICATE-----
