Certificate:
    Data:
        Version: 3 (0x2)
        Serial Number: 178 (0xb2)
    Signature Algorithm: sha256WithRSAEncryption
        Issuer: C=FR, ST=bourgogne, L=dijon, O=eole, OU=ci, CN=ACEoleCI
        Validity
            Not Before: Mar 17 14:36:15 2016 GMT
            Not After : Jun  3 14:36:15 2024 GMT
        Subject: CN=amonecoleeclair.etb4.lan
        Subject Public Key Info:
            Public Key Algorithm: rsaEncryption
                Public-Key: (1024 bit)
                Modulus:
                    00:cb:fb:f7:b4:bc:5f:e9:25:bc:6b:58:d1:4a:07:
                    2c:08:f1:70:9e:c9:9e:7f:15:6a:d0:f6:b1:e4:a5:
                    b1:db:92:a4:83:bb:f5:27:11:a6:2f:3b:5b:17:11:
                    e2:01:5a:b8:be:5d:f4:06:29:49:0d:45:f4:41:26:
                    10:ff:44:a4:4a:9d:85:26:46:f1:45:66:3f:3f:47:
                    79:f5:f5:d7:e6:46:82:ad:87:82:e3:dd:71:e6:70:
                    1a:01:db:72:84:c1:3b:d4:0f:42:d4:9d:57:5d:9e:
                    a9:f5:3a:38:1f:73:3f:cf:a1:77:46:42:68:46:2d:
                    63:c5:d4:e1:47:15:55:69:91
                Exponent: 65537 (0x10001)
        X509v3 extensions:
            X509v3 Basic Constraints: 
                CA:FALSE
            X509v3 Subject Key Identifier: 
                89:F1:5E:A0:EB:F9:C9:9E:CE:00:69:16:F1:10:F0:75:60:32:60:16
            X509v3 Authority Key Identifier: 
                keyid:38:DF:46:29:38:B2:13:8B:A5:7C:80:4B:5E:AA:24:DB:25:DC:EC:EE
                DirName:/C=FR/ST=bourgogne/L=dijon/O=eole/OU=ci/CN=ACEoleCI
                serial:81:5A:FE:E5:BA:70:38:01

            X509v3 Key Usage: critical
                Digital Signature, Key Encipherment
            X509v3 Extended Key Usage: 
                TLS Web Server Authentication
    Signature Algorithm: sha256WithRSAEncryption
         4e:26:e8:91:6a:61:e9:79:ac:1c:b6:2f:62:03:cf:30:d1:0e:
         9b:16:2d:13:4d:32:13:40:4c:36:6b:b0:a9:a5:98:4c:f7:08:
         06:44:5c:ea:7b:69:63:90:e2:9e:88:f6:07:ff:39:cc:65:c8:
         ef:1b:49:0f:b0:63:79:7c:8d:17:db:db:f7:97:e4:34:13:f9:
         71:b5:f2:1f:3c:75:0a:b6:46:b1:d1:1b:54:24:32:0f:2c:57:
         bf:3f:d0:7e:04:b0:1e:fd:73:3c:bd:44:2d:54:b7:1c:9e:60:
         f4:e7:de:41:0f:c1:88:51:b1:7e:60:93:71:55:4c:54:8a:ff:
         6e:bd
-----BEGIN CERTIFICATE-----
MIIC4jCCAkugAwIBAgICALIwDQYJKoZIhvcNAQELBQAwYDELMAkGA1UEBhMCRlIx
EjAQBgNVBAgMCWJvdXJnb2duZTEOMAwGA1UEBwwFZGlqb24xDTALBgNVBAoMBGVv
bGUxCzAJBgNVBAsMAmNpMREwDwYDVQQDDAhBQ0VvbGVDSTAeFw0xNjAzMTcxNDM2
MTVaFw0yNDA2MDMxNDM2MTVaMCMxITAfBgNVBAMMGGFtb25lY29sZWVjbGFpci5l
dGI0LmxhbjCBnzANBgkqhkiG9w0BAQEFAAOBjQAwgYkCgYEAy/v3tLxf6SW8a1jR
SgcsCPFwnsmefxVq0Pax5KWx25Kkg7v1JxGmLztbFxHiAVq4vl30BilJDUX0QSYQ
/0SkSp2FJkbxRWY/P0d59fXX5kaCrYeC491x5nAaAdtyhME71A9C1J1XXZ6p9To4
H3M/z6F3RkJoRi1jxdThRxVVaZECAwEAAaOB5zCB5DAJBgNVHRMEAjAAMB0GA1Ud
DgQWBBSJ8V6g6/nJns4AaRbxEPB1YDJgFjCBkgYDVR0jBIGKMIGHgBQ430YpOLIT
i6V8gEteqiTbJdzs7qFkpGIwYDELMAkGA1UEBhMCRlIxEjAQBgNVBAgMCWJvdXJn
b2duZTEOMAwGA1UEBwwFZGlqb24xDTALBgNVBAoMBGVvbGUxCzAJBgNVBAsMAmNp
MREwDwYDVQQDDAhBQ0VvbGVDSYIJAIFa/uW6cDgBMA4GA1UdDwEB/wQEAwIFoDAT
BgNVHSUEDDAKBggrBgEFBQcDATANBgkqhkiG9w0BAQsFAAOBgQBOJuiRamHpeawc
ti9iA88w0Q6bFi0TTTITQEw2a7CppZhM9wgGRFzqe2ljkOKeiPYH/znMZcjvG0kP
sGN5fI0X29v3l+Q0E/lxtfIfPHUKtkax0RtUJDIPLFe/P9B+BLAe/XM8vUQtVLcc
nmD0595BD8GIUbF+YJNxVUxUiv9uvQ==
-----END CERTIFICATE-----
