Certificate:
    Data:
        Version: 3 (0x2)
        Serial Number: 125 (0x7d)
    Signature Algorithm: sha256WithRSAEncryption
        Issuer: C=FR, ST=bourgogne, L=dijon, O=eole, OU=ci, CN=ACEoleCI
        Validity
            Not Before: Mar 17 14:36:03 2016 GMT
            Not After : Jun  3 14:36:03 2024 GMT
        Subject: CN=eclair.etb2.lan
        Subject Public Key Info:
            Public Key Algorithm: rsaEncryption
                Public-Key: (1024 bit)
                Modulus:
                    00:dd:b0:45:06:3a:ec:2b:2d:96:a2:21:d1:5b:31:
                    30:6c:34:72:3b:96:5d:f0:d0:49:94:e9:3e:a9:22:
                    3d:bb:78:ce:03:4a:0d:27:c0:79:0e:56:e4:6b:e4:
                    78:98:0f:c4:b6:3f:6e:3d:ec:94:12:89:d7:37:19:
                    e4:e2:cb:86:08:52:3d:4d:15:82:5e:0c:ca:31:7c:
                    47:68:3d:78:c3:7f:c1:c2:47:98:89:ce:73:4c:08:
                    65:37:7a:ec:61:7c:60:70:f0:82:5b:08:6e:fc:45:
                    fc:4f:c2:8d:37:5b:6d:a3:63:7e:75:bc:3b:b1:50:
                    8c:bd:16:d4:9f:a6:6d:22:37
                Exponent: 65537 (0x10001)
        X509v3 extensions:
            X509v3 Basic Constraints: 
                CA:FALSE
            X509v3 Subject Key Identifier: 
                B7:AC:D4:C5:9F:24:14:2A:57:DA:CD:D4:15:76:CB:57:43:CB:26:20
            X509v3 Authority Key Identifier: 
                keyid:38:DF:46:29:38:B2:13:8B:A5:7C:80:4B:5E:AA:24:DB:25:DC:EC:EE

            X509v3 Key Usage: critical
                Digital Signature, Non Repudiation, Key Encipherment
            X509v3 Extended Key Usage: 
                TLS Web Client Authentication, E-mail Protection
    Signature Algorithm: sha256WithRSAEncryption
         8c:f1:87:73:88:58:a1:41:6e:fa:27:3b:af:f0:70:ae:16:6e:
         2b:9d:9c:81:db:7f:b4:1a:12:1a:a2:5e:40:f9:80:31:89:93:
         6f:03:29:34:75:5c:62:54:47:99:6a:09:c9:fc:96:05:93:3b:
         48:f9:93:21:2c:c1:40:d3:fc:30:50:9b:ed:b9:6d:65:c9:a0:
         f5:c1:a3:8d:96:0a:bc:ef:6e:3e:1a:5d:b4:35:75:92:3b:f2:
         fd:db:41:ed:e6:4e:8a:c4:2e:00:43:00:00:f5:f8:fa:f4:40:
         22:96:0c:dd:d8:28:b3:b2:f0:fd:57:10:ef:fd:94:88:8d:09:
         2a:23
-----BEGIN CERTIFICATE-----
MIICbDCCAdWgAwIBAgIBfTANBgkqhkiG9w0BAQsFADBgMQswCQYDVQQGEwJGUjES
MBAGA1UECAwJYm91cmdvZ25lMQ4wDAYDVQQHDAVkaWpvbjENMAsGA1UECgwEZW9s
ZTELMAkGA1UECwwCY2kxETAPBgNVBAMMCEFDRW9sZUNJMB4XDTE2MDMxNzE0MzYw
M1oXDTI0MDYwMzE0MzYwM1owGjEYMBYGA1UEAwwPZWNsYWlyLmV0YjIubGFuMIGf
MA0GCSqGSIb3DQEBAQUAA4GNADCBiQKBgQDdsEUGOuwrLZaiIdFbMTBsNHI7ll3w
0EmU6T6pIj27eM4DSg0nwHkOVuRr5HiYD8S2P2497JQSidc3GeTiy4YIUj1NFYJe
DMoxfEdoPXjDf8HCR5iJznNMCGU3euxhfGBw8IJbCG78RfxPwo03W22jY351vDux
UIy9FtSfpm0iNwIDAQABo3wwejAJBgNVHRMEAjAAMB0GA1UdDgQWBBS3rNTFnyQU
KlfazdQVdstXQ8smIDAfBgNVHSMEGDAWgBQ430YpOLITi6V8gEteqiTbJdzs7jAO
BgNVHQ8BAf8EBAMCBeAwHQYDVR0lBBYwFAYIKwYBBQUHAwIGCCsGAQUFBwMEMA0G
CSqGSIb3DQEBCwUAA4GBAIzxh3OIWKFBbvonO6/wcK4WbiudnIHbf7QaEhqiXkD5
gDGJk28DKTR1XGJUR5lqCcn8lgWTO0j5kyEswUDT/DBQm+25bWXJoPXBo42WCrzv
bj4aXbQ1dZI78v3bQe3mTorELgBDAAD1+Pr0QCKWDN3YKLOy8P1XEO/9lIiNCSoj
-----END CERTIFICATE-----
