Certificate:
    Data:
        Version: 3 (0x2)
        Serial Number: 212 (0xd4)
    Signature Algorithm: sha256WithRSAEncryption
        Issuer: C=FR, ST=bourgogne, L=dijon, O=eole, OU=ci, CN=ACEoleCI
        Validity
            Not Before: Mar 17 14:36:24 2016 GMT
            Not After : Jun  3 14:36:24 2024 GMT
        Subject: CN=jenkins.eole.lan
        Subject Public Key Info:
            Public Key Algorithm: rsaEncryption
                Public-Key: (1024 bit)
                Modulus:
                    00:df:06:f6:ac:f4:c7:a0:60:ad:16:35:d0:26:43:
                    3a:4b:fd:4c:9e:1b:86:51:42:fd:ab:36:28:de:2b:
                    88:f4:07:c7:7c:4a:1b:39:0b:a5:c3:85:b5:db:3a:
                    a4:82:91:2a:2e:42:5b:32:ac:6b:77:20:f5:08:e1:
                    63:61:2d:03:b7:5d:41:ca:18:8d:58:f0:e6:6b:a1:
                    01:8c:43:d4:b5:08:5c:da:2c:e9:a3:27:b6:83:f0:
                    10:30:f7:05:b6:50:a7:46:b7:24:92:f6:5f:97:5c:
                    cf:f4:94:ff:cc:9d:cf:fa:6c:95:81:42:47:64:82:
                    76:62:03:e6:b1:10:3e:ab:69
                Exponent: 65537 (0x10001)
        X509v3 extensions:
            X509v3 Basic Constraints: 
                CA:FALSE
            X509v3 Subject Key Identifier: 
                41:93:F5:5C:E7:A0:1D:45:23:F3:38:C0:AB:1F:A2:1F:D2:C4:BB:24
            X509v3 Authority Key Identifier: 
                keyid:38:DF:46:29:38:B2:13:8B:A5:7C:80:4B:5E:AA:24:DB:25:DC:EC:EE

            X509v3 Key Usage: critical
                Digital Signature, Non Repudiation, Key Encipherment
            X509v3 Extended Key Usage: 
                TLS Web Client Authentication, E-mail Protection
    Signature Algorithm: sha256WithRSAEncryption
         82:1b:e5:76:d7:8d:ae:92:3a:14:61:b2:4f:26:d5:08:7b:75:
         dd:69:c3:38:fa:a7:c4:f3:68:07:ff:2e:b2:9a:32:94:04:8a:
         e0:63:23:47:9c:b6:05:c2:70:e1:33:ce:d8:ae:af:be:0b:02:
         3a:75:08:fc:4a:6f:ad:4c:d3:0a:bc:ab:59:c5:93:2d:de:f2:
         ef:4b:66:d0:1b:cb:42:38:b9:61:c6:da:3d:be:c4:69:ee:d1:
         e0:98:9d:60:68:10:19:d7:b3:8d:3e:ef:fc:76:3e:71:bd:39:
         d2:2f:f1:da:d1:b5:a4:dd:13:17:41:69:b5:dc:4b:7d:1e:bc:
         25:ea
-----BEGIN CERTIFICATE-----
MIICbjCCAdegAwIBAgICANQwDQYJKoZIhvcNAQELBQAwYDELMAkGA1UEBhMCRlIx
EjAQBgNVBAgMCWJvdXJnb2duZTEOMAwGA1UEBwwFZGlqb24xDTALBgNVBAoMBGVv
bGUxCzAJBgNVBAsMAmNpMREwDwYDVQQDDAhBQ0VvbGVDSTAeFw0xNjAzMTcxNDM2
MjRaFw0yNDA2MDMxNDM2MjRaMBsxGTAXBgNVBAMMEGplbmtpbnMuZW9sZS5sYW4w
gZ8wDQYJKoZIhvcNAQEBBQADgY0AMIGJAoGBAN8G9qz0x6BgrRY10CZDOkv9TJ4b
hlFC/as2KN4riPQHx3xKGzkLpcOFtds6pIKRKi5CWzKsa3cg9QjhY2EtA7ddQcoY
jVjw5muhAYxD1LUIXNos6aMntoPwEDD3BbZQp0a3JJL2X5dcz/SU/8ydz/pslYFC
R2SCdmID5rEQPqtpAgMBAAGjfDB6MAkGA1UdEwQCMAAwHQYDVR0OBBYEFEGT9Vzn
oB1FI/M4wKsfoh/SxLskMB8GA1UdIwQYMBaAFDjfRik4shOLpXyAS16qJNsl3Ozu
MA4GA1UdDwEB/wQEAwIF4DAdBgNVHSUEFjAUBggrBgEFBQcDAgYIKwYBBQUHAwQw
DQYJKoZIhvcNAQELBQADgYEAghvldteNrpI6FGGyTybVCHt13WnDOPqnxPNoB/8u
spoylASK4GMjR5y2BcJw4TPO2K6vvgsCOnUI/EpvrUzTCryrWcWTLd7y70tm0BvL
Qji5YcbaPb7Eae7R4JidYGgQGdezjT7v/HY+cb050i/x2tG1pN0TF0FptdxLfR68
Jeo=
-----END CERTIFICATE-----
