Certificate:
    Data:
        Version: 3 (0x2)
        Serial Number: 211 (0xd3)
    Signature Algorithm: sha256WithRSAEncryption
        Issuer: C=FR, ST=bourgogne, L=dijon, O=eole, OU=ci, CN=ACEoleCI
        Validity
            Not Before: Mar 17 14:36:23 2016 GMT
            Not After : Jun  3 14:36:23 2024 GMT
        Subject: CN=jenkins.eole.lan
        Subject Public Key Info:
            Public Key Algorithm: rsaEncryption
                Public-Key: (1024 bit)
                Modulus:
                    00:df:06:f6:ac:f4:c7:a0:60:ad:16:35:d0:26:43:
                    3a:4b:fd:4c:9e:1b:86:51:42:fd:ab:36:28:de:2b:
                    88:f4:07:c7:7c:4a:1b:39:0b:a5:c3:85:b5:db:3a:
                    a4:82:91:2a:2e:42:5b:32:ac:6b:77:20:f5:08:e1:
                    63:61:2d:03:b7:5d:41:ca:18:8d:58:f0:e6:6b:a1:
                    01:8c:43:d4:b5:08:5c:da:2c:e9:a3:27:b6:83:f0:
                    10:30:f7:05:b6:50:a7:46:b7:24:92:f6:5f:97:5c:
                    cf:f4:94:ff:cc:9d:cf:fa:6c:95:81:42:47:64:82:
                    76:62:03:e6:b1:10:3e:ab:69
                Exponent: 65537 (0x10001)
        X509v3 extensions:
            X509v3 Basic Constraints: 
                CA:FALSE
            X509v3 Subject Key Identifier: 
                41:93:F5:5C:E7:A0:1D:45:23:F3:38:C0:AB:1F:A2:1F:D2:C4:BB:24
            X509v3 Authority Key Identifier: 
                keyid:38:DF:46:29:38:B2:13:8B:A5:7C:80:4B:5E:AA:24:DB:25:DC:EC:EE
                DirName:/C=FR/ST=bourgogne/L=dijon/O=eole/OU=ci/CN=ACEoleCI
                serial:81:5A:FE:E5:BA:70:38:01

            X509v3 Key Usage: critical
                Digital Signature, Key Encipherment
            X509v3 Extended Key Usage: 
                TLS Web Server Authentication
    Signature Algorithm: sha256WithRSAEncryption
         01:5d:c5:ea:11:2d:41:1e:14:b2:5c:b2:18:e9:15:61:6c:5d:
         82:58:e9:70:16:41:40:4c:7f:f9:64:18:0c:4c:e0:0c:d5:54:
         29:a2:72:00:fc:c3:c2:c3:68:11:23:e9:de:13:64:80:be:ff:
         f5:83:79:0c:4a:ff:7b:9f:e8:2f:a9:02:b5:80:01:ae:e0:08:
         78:e4:28:a9:34:38:86:20:0f:a6:93:f8:48:e4:d3:21:ce:be:
         0a:63:22:4f:72:da:d1:ca:f1:fe:fe:70:77:98:b4:c9:61:47:
         fe:64:46:ad:3d:b3:b9:cc:9d:6e:a0:fc:ec:41:ee:84:2d:ad:
         98:22
-----BEGIN CERTIFICATE-----
MIIC2jCCAkOgAwIBAgICANMwDQYJKoZIhvcNAQELBQAwYDELMAkGA1UEBhMCRlIx
EjAQBgNVBAgMCWJvdXJnb2duZTEOMAwGA1UEBwwFZGlqb24xDTALBgNVBAoMBGVv
bGUxCzAJBgNVBAsMAmNpMREwDwYDVQQDDAhBQ0VvbGVDSTAeFw0xNjAzMTcxNDM2
MjNaFw0yNDA2MDMxNDM2MjNaMBsxGTAXBgNVBAMMEGplbmtpbnMuZW9sZS5sYW4w
gZ8wDQYJKoZIhvcNAQEBBQADgY0AMIGJAoGBAN8G9qz0x6BgrRY10CZDOkv9TJ4b
hlFC/as2KN4riPQHx3xKGzkLpcOFtds6pIKRKi5CWzKsa3cg9QjhY2EtA7ddQcoY
jVjw5muhAYxD1LUIXNos6aMntoPwEDD3BbZQp0a3JJL2X5dcz/SU/8ydz/pslYFC
R2SCdmID5rEQPqtpAgMBAAGjgecwgeQwCQYDVR0TBAIwADAdBgNVHQ4EFgQUQZP1
XOegHUUj8zjAqx+iH9LEuyQwgZIGA1UdIwSBijCBh4AUON9GKTiyE4ulfIBLXqok
2yXc7O6hZKRiMGAxCzAJBgNVBAYTAkZSMRIwEAYDVQQIDAlib3VyZ29nbmUxDjAM
BgNVBAcMBWRpam9uMQ0wCwYDVQQKDARlb2xlMQswCQYDVQQLDAJjaTERMA8GA1UE
AwwIQUNFb2xlQ0mCCQCBWv7lunA4ATAOBgNVHQ8BAf8EBAMCBaAwEwYDVR0lBAww
CgYIKwYBBQUHAwEwDQYJKoZIhvcNAQELBQADgYEAAV3F6hEtQR4UslyyGOkVYWxd
gljpcBZBQEx/+WQYDEzgDNVUKaJyAPzDwsNoESPp3hNkgL7/9YN5DEr/e5/oL6kC
tYABruAIeOQoqTQ4hiAPppP4SOTTIc6+CmMiT3La0crx/v5wd5i0yWFH/mRGrT2z
ucydbqD87EHuhC2tmCI=
-----END CERTIFICATE-----
