-----BEGIN RSA PRIVATE KEY-----
MIICXAIBAAKBgQCql/YOWifKpW5e7qbb16U16I6t3+LCFIJIoSsrZ6g6Pozbifq5
0n3t6NT2ajQhmGT7dHIQuV/MOSWwyMLtW4iRYiPRr9e8hlJxgWmS99R9ZqPWB9D5
NnxmSzkkdw/wrs+RHnraZFmNw7NWQaBM8CN8s7I8emc9xSev6AnEgVVG4QIDAQAB
AoGBAJAE+pXjRvSt9R/wGq4+wBti2hGwkZ+H8PWgGvHp8Pw7Em/FbQazzdysVB40
Sw6Rua8P/7xew6GGHWvCEc6RGBlDr2Jfnh2E+EYNr/PPYquYTpz0S0TbE9iouvhI
inzNPLVei08zxms1OCaLtOTgUcippKvKCx0aZ2IjMZIr3sKBAkEA2lmwMLylpfS5
Dd+24qdTcWvEZaGN8arRd1f6oYsNUNTh2CLzyldI8uDXIe52erSa4n/LC83bsJUM
oIcj6ZAtkwJBAMgCN+6+Ho+4IruLCYp8ZonmiUEqkI0bX4p/b//aJbzE7QnuRMYI
DEaqGFnBmosX7YkHZ+NQgNoRP0nJvxsF4jsCQDzX/Sa3ipkiBmb9TeL+qVvTodiI
Ghubc98Dnw1gyAccKwqlQrXBeMxlJs2Hu3AZ34b6AUR6ypr8DZa10aYFzQ0CQB/4
mtBC+8ele4fXFdNZR1rLyyzrjOfBdGhDLrgLOvUN1YY83Cl7p9qz3eibFgUd8g5x
bJ3dhHtXPnKhGTdMnXkCQB9wyg5QPXpwlZ47k5GvXiOOuksg2xlCemer0kS+5REQ
v6vk/LOTkNgpPZ6fG5G4rusb7TC8lTTQTfTcJYVc4EU=
-----END RSA PRIVATE KEY-----
Certificate:
    Data:
        Version: 3 (0x2)
        Serial Number: 30 (0x1e)
    Signature Algorithm: sha256WithRSAEncryption
        Issuer: C=FR, ST=bourgogne, L=dijon, O=eole, OU=ci, CN=ACEoleCI
        Validity
            Not Before: Mar 17 14:35:36 2016 GMT
            Not After : Jun  3 14:35:36 2024 GMT
        Subject: CN=ha-master.ac-test.lan
        Subject Public Key Info:
            Public Key Algorithm: rsaEncryption
                Public-Key: (1024 bit)
                Modulus:
                    00:aa:97:f6:0e:5a:27:ca:a5:6e:5e:ee:a6:db:d7:
                    a5:35:e8:8e:ad:df:e2:c2:14:82:48:a1:2b:2b:67:
                    a8:3a:3e:8c:db:89:fa:b9:d2:7d:ed:e8:d4:f6:6a:
                    34:21:98:64:fb:74:72:10:b9:5f:cc:39:25:b0:c8:
                    c2:ed:5b:88:91:62:23:d1:af:d7:bc:86:52:71:81:
                    69:92:f7:d4:7d:66:a3:d6:07:d0:f9:36:7c:66:4b:
                    39:24:77:0f:f0:ae:cf:91:1e:7a:da:64:59:8d:c3:
                    b3:56:41:a0:4c:f0:23:7c:b3:b2:3c:7a:67:3d:c5:
                    27:af:e8:09:c4:81:55:46:e1
                Exponent: 65537 (0x10001)
        X509v3 extensions:
            X509v3 Basic Constraints: 
                CA:FALSE
            X509v3 Subject Key Identifier: 
                65:19:99:05:5D:72:3D:56:77:EC:A7:99:24:68:62:84:5A:33:FB:04
            X509v3 Authority Key Identifier: 
                keyid:38:DF:46:29:38:B2:13:8B:A5:7C:80:4B:5E:AA:24:DB:25:DC:EC:EE
                DirName:/C=FR/ST=bourgogne/L=dijon/O=eole/OU=ci/CN=ACEoleCI
                serial:81:5A:FE:E5:BA:70:38:01

            X509v3 Key Usage: critical
                Digital Signature, Key Encipherment
    Signature Algorithm: sha256WithRSAEncryption
         74:ee:23:99:8f:8f:3a:40:86:84:ea:43:96:13:3c:29:d6:9f:
         24:98:d9:24:56:83:6a:86:a4:b4:13:3c:a2:77:f9:0a:ac:56:
         4e:dd:31:cf:9f:41:60:d1:c6:37:be:42:af:bf:59:0b:87:26:
         38:ed:9a:86:f0:94:bf:e1:b3:c0:2f:31:d1:29:66:8c:11:61:
         39:3e:4b:1c:aa:97:89:09:1c:5e:f8:1b:74:ca:d3:5b:1c:ac:
         b0:f2:7c:86:f4:89:14:c4:2d:29:24:93:9f:33:1c:63:e7:7c:
         3a:9d:34:ce:64:98:94:4d:c3:48:29:77:22:e1:4e:5f:56:c4:
         45:91
-----BEGIN CERTIFICATE-----
MIICyTCCAjKgAwIBAgIBHjANBgkqhkiG9w0BAQsFADBgMQswCQYDVQQGEwJGUjES
MBAGA1UECAwJYm91cmdvZ25lMQ4wDAYDVQQHDAVkaWpvbjENMAsGA1UECgwEZW9s
ZTELMAkGA1UECwwCY2kxETAPBgNVBAMMCEFDRW9sZUNJMB4XDTE2MDMxNzE0MzUz
NloXDTI0MDYwMzE0MzUzNlowIDEeMBwGA1UEAwwVaGEtbWFzdGVyLmFjLXRlc3Qu
bGFuMIGfMA0GCSqGSIb3DQEBAQUAA4GNADCBiQKBgQCql/YOWifKpW5e7qbb16U1
6I6t3+LCFIJIoSsrZ6g6Pozbifq50n3t6NT2ajQhmGT7dHIQuV/MOSWwyMLtW4iR
YiPRr9e8hlJxgWmS99R9ZqPWB9D5NnxmSzkkdw/wrs+RHnraZFmNw7NWQaBM8CN8
s7I8emc9xSev6AnEgVVG4QIDAQABo4HSMIHPMAkGA1UdEwQCMAAwHQYDVR0OBBYE
FGUZmQVdcj1Wd+ynmSRoYoRaM/sEMIGSBgNVHSMEgYowgYeAFDjfRik4shOLpXyA
S16qJNsl3OzuoWSkYjBgMQswCQYDVQQGEwJGUjESMBAGA1UECAwJYm91cmdvZ25l
MQ4wDAYDVQQHDAVkaWpvbjENMAsGA1UECgwEZW9sZTELMAkGA1UECwwCY2kxETAP
BgNVBAMMCEFDRW9sZUNJggkAgVr+5bpwOAEwDgYDVR0PAQH/BAQDAgWgMA0GCSqG
SIb3DQEBCwUAA4GBAHTuI5mPjzpAhoTqQ5YTPCnWnySY2SRWg2qGpLQTPKJ3+Qqs
Vk7dMc+fQWDRxje+Qq+/WQuHJjjtmobwlL/hs8AvMdEpZowRYTk+Sxyql4kJHF74
G3TK01scrLDyfIb0iRTELSkkk58zHGPnfDqdNM5kmJRNw0gpdyLhTl9WxEWR
-----END CERTIFICATE-----
