-----BEGIN RSA PRIVATE KEY-----
MIICWwIBAAKBgQC/NC5aGiflbEidvAbaC087tBzfXuNsaDxrlkyd2DMMz0S97iTw
KKyEJ3Op97+gG/5/b5QrEDsQaQmiTPtVne6aAWD2Y7bYCKnTX/VFHno/fEj4csfk
s2MrEaioVV4pwRhfgzP1ookA/z17useI9qkraRmUlkiiqGfIZsDIxP4NGwIDAQAB
AoGAHE+1rVHCJo5qEjENMqwKB2UcAVcjhaHJkISow5aHuJXYL+dbQNRE9yyAS+KL
VUHP5T64ScgVdtCWxJlxfbPs6E8m8xkjJnS7301mLoEGWdTELIaHFGBCQtGn4PW3
q+BUoxP8mHk6c/HYNYAd1v+tZ0UZ+6zfQWMYLZehIizkVAECQQDuo1/i+b2IXvuq
Gwo6WVkJg7homWwoVWo99gHehS/KwfWlkQRbPQ8pi7csoOrmdJh/b7Gz5Du/OFiV
EO5Pj7FbAkEAzR1YB9rfMzLjSM67BIBt27anYavBlThNs/g6DKydUATcBpaVh8zC
BlYw0FTcLTa2TXSukywZLwAk5wlKJ5gfQQI/BoZxGMO7av8t4njazr2isZ/oavPH
AVNUlF0lr+/0XpbvIJfWhqgkwf4QBChiQ+rsQI/NTB3xhEkGIw1Tdtl3AkBTkUoF
YUIgrPH2/uspKV4Y7zEA1SZ4skjOMysLcORi7qfqMz3W5zCBvmoC5yARd8IMiqZ5
pbTY9lkSnDFPMmZBAkEAgdZkcsqPfiCxpuEUcJzrd1j3YOJkxoT27ssoGOE9SIQi
LyBCKmjRfSS3TpyFksdEkt0+MVrULQaW7C9mLYhfkg==
-----END RSA PRIVATE KEY-----
Certificate:
    Data:
        Version: 3 (0x2)
        Serial Number: 70 (0x46)
    Signature Algorithm: sha256WithRSAEncryption
        Issuer: C=FR, ST=bourgogne, L=dijon, O=eole, OU=ci, CN=ACEoleCI
        Validity
            Not Before: Mar 17 14:35:47 2016 GMT
            Not After : Jun  3 14:35:47 2024 GMT
        Subject: CN=srvagriates.ac-test.lan
        Subject Public Key Info:
            Public Key Algorithm: rsaEncryption
                Public-Key: (1024 bit)
                Modulus:
                    00:bf:34:2e:5a:1a:27:e5:6c:48:9d:bc:06:da:0b:
                    4f:3b:b4:1c:df:5e:e3:6c:68:3c:6b:96:4c:9d:d8:
                    33:0c:cf:44:bd:ee:24:f0:28:ac:84:27:73:a9:f7:
                    bf:a0:1b:fe:7f:6f:94:2b:10:3b:10:69:09:a2:4c:
                    fb:55:9d:ee:9a:01:60:f6:63:b6:d8:08:a9:d3:5f:
                    f5:45:1e:7a:3f:7c:48:f8:72:c7:e4:b3:63:2b:11:
                    a8:a8:55:5e:29:c1:18:5f:83:33:f5:a2:89:00:ff:
                    3d:7b:ba:c7:88:f6:a9:2b:69:19:94:96:48:a2:a8:
                    67:c8:66:c0:c8:c4:fe:0d:1b
                Exponent: 65537 (0x10001)
        X509v3 extensions:
            X509v3 Basic Constraints: 
                CA:FALSE
            X509v3 Subject Key Identifier: 
                52:9B:90:D7:62:15:40:CF:43:4F:39:51:42:DA:2C:50:C4:8B:17:CE
            X509v3 Authority Key Identifier: 
                keyid:38:DF:46:29:38:B2:13:8B:A5:7C:80:4B:5E:AA:24:DB:25:DC:EC:EE
                DirName:/C=FR/ST=bourgogne/L=dijon/O=eole/OU=ci/CN=ACEoleCI
                serial:81:5A:FE:E5:BA:70:38:01

            X509v3 Key Usage: critical
                Digital Signature, Key Encipherment
            X509v3 Extended Key Usage: 
                TLS Web Server Authentication
    Signature Algorithm: sha256WithRSAEncryption
         41:73:ea:3d:2d:35:d4:52:16:89:b0:22:d1:7e:53:c6:7c:05:
         c3:4c:5f:01:dc:9d:df:1a:4b:e3:e8:91:f9:1e:3c:2f:16:19:
         12:9e:7f:bf:e0:72:ae:c0:8b:bd:00:23:1b:49:d3:37:2d:c0:
         0f:3c:77:fe:02:13:f1:23:df:cc:19:a0:0e:ed:8e:25:fd:64:
         f5:b5:c2:89:d3:5e:1b:0a:cf:63:35:47:ac:21:6d:3d:26:a4:
         78:78:db:98:95:4e:e8:59:b4:57:5b:71:34:af:2f:5d:53:70:
         df:a7:a0:81:5e:36:56:89:b3:25:5c:8a:62:a3:42:f9:c4:e5:
         38:0a
-----BEGIN CERTIFICATE-----
MIIC4DCCAkmgAwIBAgIBRjANBgkqhkiG9w0BAQsFADBgMQswCQYDVQQGEwJGUjES
MBAGA1UECAwJYm91cmdvZ25lMQ4wDAYDVQQHDAVkaWpvbjENMAsGA1UECgwEZW9s
ZTELMAkGA1UECwwCY2kxETAPBgNVBAMMCEFDRW9sZUNJMB4XDTE2MDMxNzE0MzU0
N1oXDTI0MDYwMzE0MzU0N1owIjEgMB4GA1UEAwwXc3J2YWdyaWF0ZXMuYWMtdGVz
dC5sYW4wgZ8wDQYJKoZIhvcNAQEBBQADgY0AMIGJAoGBAL80LloaJ+VsSJ28BtoL
Tzu0HN9e42xoPGuWTJ3YMwzPRL3uJPAorIQnc6n3v6Ab/n9vlCsQOxBpCaJM+1Wd
7poBYPZjttgIqdNf9UUeej98SPhyx+SzYysRqKhVXinBGF+DM/WiiQD/PXu6x4j2
qStpGZSWSKKoZ8hmwMjE/g0bAgMBAAGjgecwgeQwCQYDVR0TBAIwADAdBgNVHQ4E
FgQUUpuQ12IVQM9DTzlRQtosUMSLF84wgZIGA1UdIwSBijCBh4AUON9GKTiyE4ul
fIBLXqok2yXc7O6hZKRiMGAxCzAJBgNVBAYTAkZSMRIwEAYDVQQIDAlib3VyZ29n
bmUxDjAMBgNVBAcMBWRpam9uMQ0wCwYDVQQKDARlb2xlMQswCQYDVQQLDAJjaTER
MA8GA1UEAwwIQUNFb2xlQ0mCCQCBWv7lunA4ATAOBgNVHQ8BAf8EBAMCBaAwEwYD
VR0lBAwwCgYIKwYBBQUHAwEwDQYJKoZIhvcNAQELBQADgYEAQXPqPS011FIWibAi
0X5TxnwFw0xfAdyd3xpL4+iR+R48LxYZEp5/v+ByrsCLvQAjG0nTNy3ADzx3/gIT
8SPfzBmgDu2OJf1k9bXCidNeGwrPYzVHrCFtPSakeHjbmJVO6Fm0V1txNK8vXVNw
36eggV42VomzJVyKYqNC+cTlOAo=
-----END CERTIFICATE-----
