Certificate:
    Data:
        Version: 3 (0x2)
        Serial Number: 94 (0x5e)
    Signature Algorithm: sha256WithRSAEncryption
        Issuer: C=FR, ST=bourgogne, L=dijon, O=eole, OU=ci, CN=ACEoleCI
        Validity
            Not Before: Mar 17 14:35:53 2016 GMT
            Not After : Jun  3 14:35:53 2024 GMT
        Subject: CN=eolecitestsdmz.etb1.lan
        Subject Public Key Info:
            Public Key Algorithm: rsaEncryption
                Public-Key: (1024 bit)
                Modulus:
                    00:ca:15:b8:90:2f:33:9f:45:0a:00:ba:0b:3e:22:
                    2a:99:da:bc:b4:c9:5c:25:54:3d:01:0b:a8:e4:f6:
                    b5:b6:5f:8e:c0:3f:cd:6d:19:c9:22:19:3c:e1:c3:
                    34:5a:c2:29:11:05:3b:29:4f:6b:c5:91:7b:e1:0a:
                    44:6e:3c:4d:c7:d7:ce:0c:b8:69:75:69:df:0b:65:
                    15:87:9c:8b:67:7c:ce:57:2b:d5:33:02:75:01:90:
                    10:ec:e4:01:e4:f9:9d:37:da:a1:ed:16:6c:a4:c5:
                    f4:c7:d4:80:6d:6c:6e:bd:b5:62:e5:5f:2c:a3:be:
                    7a:05:27:90:dc:a3:a3:8c:c3
                Exponent: 65537 (0x10001)
        X509v3 extensions:
            X509v3 Basic Constraints: 
                CA:FALSE
            X509v3 Subject Key Identifier: 
                53:EC:D9:E6:FD:EF:E8:8E:30:EF:08:A9:0C:89:59:49:7B:E4:B9:F4
            X509v3 Authority Key Identifier: 
                keyid:38:DF:46:29:38:B2:13:8B:A5:7C:80:4B:5E:AA:24:DB:25:DC:EC:EE
                DirName:/C=FR/ST=bourgogne/L=dijon/O=eole/OU=ci/CN=ACEoleCI
                serial:81:5A:FE:E5:BA:70:38:01

            X509v3 Key Usage: critical
                Digital Signature, Key Encipherment
            X509v3 Extended Key Usage: 
                TLS Web Server Authentication
    Signature Algorithm: sha256WithRSAEncryption
         9c:ec:29:42:1f:37:f4:56:39:04:26:ec:3f:f8:ca:80:18:be:
         15:8d:ca:8f:2c:ca:be:9a:59:39:62:1e:31:7d:5b:83:37:11:
         36:73:45:dc:b1:51:79:2b:19:f2:0f:f0:8d:a1:e9:55:25:4b:
         71:19:0e:c6:16:c0:3e:ce:3e:33:a4:94:38:7e:4e:54:a0:be:
         3b:a6:90:ab:9b:58:40:fd:a4:13:48:9e:90:45:2e:29:ca:40:
         91:af:2d:af:fc:39:b5:cd:db:21:45:b7:3b:7b:25:84:4e:90:
         2c:02:8d:c6:ac:07:b3:97:e1:65:5b:a0:24:e0:d8:7f:54:4f:
         05:81
-----BEGIN CERTIFICATE-----
MIIC4DCCAkmgAwIBAgIBXjANBgkqhkiG9w0BAQsFADBgMQswCQYDVQQGEwJGUjES
MBAGA1UECAwJYm91cmdvZ25lMQ4wDAYDVQQHDAVkaWpvbjENMAsGA1UECgwEZW9s
ZTELMAkGA1UECwwCY2kxETAPBgNVBAMMCEFDRW9sZUNJMB4XDTE2MDMxNzE0MzU1
M1oXDTI0MDYwMzE0MzU1M1owIjEgMB4GA1UEAwwXZW9sZWNpdGVzdHNkbXouZXRi
MS5sYW4wgZ8wDQYJKoZIhvcNAQEBBQADgY0AMIGJAoGBAMoVuJAvM59FCgC6Cz4i
KpnavLTJXCVUPQELqOT2tbZfjsA/zW0ZySIZPOHDNFrCKREFOylPa8WRe+EKRG48
TcfXzgy4aXVp3wtlFYeci2d8zlcr1TMCdQGQEOzkAeT5nTfaoe0WbKTF9MfUgG1s
br21YuVfLKO+egUnkNyjo4zDAgMBAAGjgecwgeQwCQYDVR0TBAIwADAdBgNVHQ4E
FgQUU+zZ5v3v6I4w7wipDIlZSXvkufQwgZIGA1UdIwSBijCBh4AUON9GKTiyE4ul
fIBLXqok2yXc7O6hZKRiMGAxCzAJBgNVBAYTAkZSMRIwEAYDVQQIDAlib3VyZ29n
bmUxDjAMBgNVBAcMBWRpam9uMQ0wCwYDVQQKDARlb2xlMQswCQYDVQQLDAJjaTER
MA8GA1UEAwwIQUNFb2xlQ0mCCQCBWv7lunA4ATAOBgNVHQ8BAf8EBAMCBaAwEwYD
VR0lBAwwCgYIKwYBBQUHAwEwDQYJKoZIhvcNAQELBQADgYEAnOwpQh839FY5BCbs
P/jKgBi+FY3KjyzKvppZOWIeMX1bgzcRNnNF3LFReSsZ8g/wjaHpVSVLcRkOxhbA
Ps4+M6SUOH5OVKC+O6aQq5tYQP2kE0iekEUuKcpAka8tr/w5tc3bIUW3O3slhE6Q
LAKNxqwHs5fhZVugJODYf1RPBYE=
-----END CERTIFICATE-----
