-----BEGIN RSA PRIVATE KEY-----
MIICXQIBAAKBgQDKFbiQLzOfRQoAugs+IiqZ2ry0yVwlVD0BC6jk9rW2X47AP81t
GckiGTzhwzRawikRBTspT2vFkXvhCkRuPE3H184MuGl1ad8LZRWHnItnfM5XK9Uz
AnUBkBDs5AHk+Z032qHtFmykxfTH1IBtbG69tWLlXyyjvnoFJ5Dco6OMwwIDAQAB
AoGAJe753CbgG8+L1yMVJS6orITA03bQ0zkC0oVryL7+0SMS2sefOhGTDdGK+h34
X+j+aHGA73o3ErkCdfXFbqPnPXyKcVwiRL7BAfI+X70J72+76qWy8FnlZF8A+YNz
2audOk1ZgP4Yh5003Z4A4P/TqbA4ilYJdSDkKrh5a71syVECQQD0YkUYnrSzVs72
GUsmSx7QJhTFXyFI/7w8+rUNh9KEou0zc6hzXOaXoW4khPMbkY7qbiUYK3jFrFG7
DZcdPsfnAkEA07C+tKamjgqypdUynEGbFmI0zHqFfegCbyba5KQAPSXJFI9me1M2
tz4wzJsmZZOcK6ynqxpoD8rBBSCrzreIxQJBANHYrEJWzQ2OBgsWbwxDxwKvIHjW
lgtL5YRrNxqWPXO9P3dF4iilZjBf4uci7moG1DSDPgECGyOKM2guZEsthJMCQAWg
dxE6NMclxaXeyt+YZtTre1fMEexM1HO75qmZKmB1tqiTPzgb+CJaxtVJcnXUvJv0
lOhZZVa2HvdR7P8rpbkCQQC9XXNZ+gPHl/a/IszgrIlcwjunQahddQX8X0oOEapi
lup5NOznyS8d7jfbsuZ4S9d1Jy+x6LpcHobOOqxYpXw7
-----END RSA PRIVATE KEY-----
Certificate:
    Data:
        Version: 3 (0x2)
        Serial Number: 95 (0x5f)
    Signature Algorithm: sha256WithRSAEncryption
        Issuer: C=FR, ST=bourgogne, L=dijon, O=eole, OU=ci, CN=ACEoleCI
        Validity
            Not Before: Mar 17 14:35:54 2016 GMT
            Not After : Jun  3 14:35:54 2024 GMT
        Subject: CN=eolecitestsdmz.etb1.lan
        Subject Public Key Info:
            Public Key Algorithm: rsaEncryption
                Public-Key: (1024 bit)
                Modulus:
                    00:ca:15:b8:90:2f:33:9f:45:0a:00:ba:0b:3e:22:
                    2a:99:da:bc:b4:c9:5c:25:54:3d:01:0b:a8:e4:f6:
                    b5:b6:5f:8e:c0:3f:cd:6d:19:c9:22:19:3c:e1:c3:
                    34:5a:c2:29:11:05:3b:29:4f:6b:c5:91:7b:e1:0a:
                    44:6e:3c:4d:c7:d7:ce:0c:b8:69:75:69:df:0b:65:
                    15:87:9c:8b:67:7c:ce:57:2b:d5:33:02:75:01:90:
                    10:ec:e4:01:e4:f9:9d:37:da:a1:ed:16:6c:a4:c5:
                    f4:c7:d4:80:6d:6c:6e:bd:b5:62:e5:5f:2c:a3:be:
                    7a:05:27:90:dc:a3:a3:8c:c3
                Exponent: 65537 (0x10001)
        X509v3 extensions:
            X509v3 Basic Constraints: 
                CA:FALSE
            X509v3 Subject Key Identifier: 
                53:EC:D9:E6:FD:EF:E8:8E:30:EF:08:A9:0C:89:59:49:7B:E4:B9:F4
            X509v3 Authority Key Identifier: 
                keyid:38:DF:46:29:38:B2:13:8B:A5:7C:80:4B:5E:AA:24:DB:25:DC:EC:EE

            X509v3 Key Usage: critical
                Digital Signature, Non Repudiation, Key Encipherment
            X509v3 Extended Key Usage: 
                TLS Web Client Authentication, E-mail Protection
    Signature Algorithm: sha256WithRSAEncryption
         04:92:de:99:ff:76:3d:60:b4:4b:b3:fe:f1:d1:86:ec:9b:95:
         92:86:01:4c:26:4e:68:f6:ab:c1:a7:47:10:56:70:91:6e:49:
         c1:84:88:b7:11:5a:68:5f:60:2d:c1:53:f9:ed:74:8e:3b:c9:
         66:9f:00:a1:c4:b5:3d:40:37:3a:6e:99:0b:65:b4:73:1c:18:
         04:d4:df:9e:0a:05:e0:42:1f:13:df:af:7a:f9:ac:22:ef:37:
         1d:ba:ff:1b:17:50:9e:db:0a:10:d5:50:f0:71:e5:2c:87:fe:
         0e:1d:b9:f1:9e:eb:8f:80:30:b7:31:90:e9:c1:d7:69:5e:25:
         bc:e6
-----BEGIN CERTIFICATE-----
MIICdDCCAd2gAwIBAgIBXzANBgkqhkiG9w0BAQsFADBgMQswCQYDVQQGEwJGUjES
MBAGA1UECAwJYm91cmdvZ25lMQ4wDAYDVQQHDAVkaWpvbjENMAsGA1UECgwEZW9s
ZTELMAkGA1UECwwCY2kxETAPBgNVBAMMCEFDRW9sZUNJMB4XDTE2MDMxNzE0MzU1
NFoXDTI0MDYwMzE0MzU1NFowIjEgMB4GA1UEAwwXZW9sZWNpdGVzdHNkbXouZXRi
MS5sYW4wgZ8wDQYJKoZIhvcNAQEBBQADgY0AMIGJAoGBAMoVuJAvM59FCgC6Cz4i
KpnavLTJXCVUPQELqOT2tbZfjsA/zW0ZySIZPOHDNFrCKREFOylPa8WRe+EKRG48
TcfXzgy4aXVp3wtlFYeci2d8zlcr1TMCdQGQEOzkAeT5nTfaoe0WbKTF9MfUgG1s
br21YuVfLKO+egUnkNyjo4zDAgMBAAGjfDB6MAkGA1UdEwQCMAAwHQYDVR0OBBYE
FFPs2eb97+iOMO8IqQyJWUl75Ln0MB8GA1UdIwQYMBaAFDjfRik4shOLpXyAS16q
JNsl3OzuMA4GA1UdDwEB/wQEAwIF4DAdBgNVHSUEFjAUBggrBgEFBQcDAgYIKwYB
BQUHAwQwDQYJKoZIhvcNAQELBQADgYEABJLemf92PWC0S7P+8dGG7JuVkoYBTCZO
aParwadHEFZwkW5JwYSItxFaaF9gLcFT+e10jjvJZp8AocS1PUA3Om6ZC2W0cxwY
BNTfngoF4EIfE9+vevmsIu83Hbr/GxdQntsKENVQ8HHlLIf+Dh258Z7rj4AwtzGQ
6cHXaV4lvOY=
-----END CERTIFICATE-----
