-----BEGIN RSA PRIVATE KEY-----
MIICXQIBAAKBgQDKFbiQLzOfRQoAugs+IiqZ2ry0yVwlVD0BC6jk9rW2X47AP81t
GckiGTzhwzRawikRBTspT2vFkXvhCkRuPE3H184MuGl1ad8LZRWHnItnfM5XK9Uz
AnUBkBDs5AHk+Z032qHtFmykxfTH1IBtbG69tWLlXyyjvnoFJ5Dco6OMwwIDAQAB
AoGAJe753CbgG8+L1yMVJS6orITA03bQ0zkC0oVryL7+0SMS2sefOhGTDdGK+h34
X+j+aHGA73o3ErkCdfXFbqPnPXyKcVwiRL7BAfI+X70J72+76qWy8FnlZF8A+YNz
2audOk1ZgP4Yh5003Z4A4P/TqbA4ilYJdSDkKrh5a71syVECQQD0YkUYnrSzVs72
GUsmSx7QJhTFXyFI/7w8+rUNh9KEou0zc6hzXOaXoW4khPMbkY7qbiUYK3jFrFG7
DZcdPsfnAkEA07C+tKamjgqypdUynEGbFmI0zHqFfegCbyba5KQAPSXJFI9me1M2
tz4wzJsmZZOcK6ynqxpoD8rBBSCrzreIxQJBANHYrEJWzQ2OBgsWbwxDxwKvIHjW
lgtL5YRrNxqWPXO9P3dF4iilZjBf4uci7moG1DSDPgECGyOKM2guZEsthJMCQAWg
dxE6NMclxaXeyt+YZtTre1fMEexM1HO75qmZKmB1tqiTPzgb+CJaxtVJcnXUvJv0
lOhZZVa2HvdR7P8rpbkCQQC9XXNZ+gPHl/a/IszgrIlcwjunQahddQX8X0oOEapi
lup5NOznyS8d7jfbsuZ4S9d1Jy+x6LpcHobOOqxYpXw7
-----END RSA PRIVATE KEY-----
Certificate:
    Data:
        Version: 3 (0x2)
        Serial Number: 96 (0x60)
    Signature Algorithm: sha256WithRSAEncryption
        Issuer: C=FR, ST=bourgogne, L=dijon, O=eole, OU=ci, CN=ACEoleCI
        Validity
            Not Before: Mar 17 14:35:54 2016 GMT
            Not After : Jun  3 14:35:54 2024 GMT
        Subject: CN=eolecitestsdmz.etb1.lan
        Subject Public Key Info:
            Public Key Algorithm: rsaEncryption
                Public-Key: (1024 bit)
                Modulus:
                    00:ca:15:b8:90:2f:33:9f:45:0a:00:ba:0b:3e:22:
                    2a:99:da:bc:b4:c9:5c:25:54:3d:01:0b:a8:e4:f6:
                    b5:b6:5f:8e:c0:3f:cd:6d:19:c9:22:19:3c:e1:c3:
                    34:5a:c2:29:11:05:3b:29:4f:6b:c5:91:7b:e1:0a:
                    44:6e:3c:4d:c7:d7:ce:0c:b8:69:75:69:df:0b:65:
                    15:87:9c:8b:67:7c:ce:57:2b:d5:33:02:75:01:90:
                    10:ec:e4:01:e4:f9:9d:37:da:a1:ed:16:6c:a4:c5:
                    f4:c7:d4:80:6d:6c:6e:bd:b5:62:e5:5f:2c:a3:be:
                    7a:05:27:90:dc:a3:a3:8c:c3
                Exponent: 65537 (0x10001)
        X509v3 extensions:
            X509v3 Basic Constraints: 
                CA:FALSE
            X509v3 Subject Key Identifier: 
                53:EC:D9:E6:FD:EF:E8:8E:30:EF:08:A9:0C:89:59:49:7B:E4:B9:F4
            X509v3 Authority Key Identifier: 
                keyid:38:DF:46:29:38:B2:13:8B:A5:7C:80:4B:5E:AA:24:DB:25:DC:EC:EE
                DirName:/C=FR/ST=bourgogne/L=dijon/O=eole/OU=ci/CN=ACEoleCI
                serial:81:5A:FE:E5:BA:70:38:01

            X509v3 Key Usage: critical
                Digital Signature, Key Encipherment
    Signature Algorithm: sha256WithRSAEncryption
         1c:40:74:37:af:21:9c:db:e1:f6:c3:9e:73:e4:aa:de:6b:92:
         c2:a5:14:f3:36:38:e5:56:96:ba:0b:58:f8:75:7b:a7:b8:b9:
         24:8f:3c:89:20:66:77:fa:66:ee:2d:17:d5:78:ec:a4:5a:0b:
         4d:08:d9:30:77:82:18:65:8a:dc:b1:03:ec:33:21:c0:2b:09:
         4d:41:99:86:09:9d:89:3d:80:19:7a:a9:2f:79:af:52:8c:16:
         e8:ab:3f:76:fd:34:62:80:5d:e8:42:4c:36:76:58:6a:10:05:
         89:48:4d:a4:73:e0:5e:05:1a:78:88:d4:63:21:6e:0e:33:df:
         af:3f
-----BEGIN CERTIFICATE-----
MIICyzCCAjSgAwIBAgIBYDANBgkqhkiG9w0BAQsFADBgMQswCQYDVQQGEwJGUjES
MBAGA1UECAwJYm91cmdvZ25lMQ4wDAYDVQQHDAVkaWpvbjENMAsGA1UECgwEZW9s
ZTELMAkGA1UECwwCY2kxETAPBgNVBAMMCEFDRW9sZUNJMB4XDTE2MDMxNzE0MzU1
NFoXDTI0MDYwMzE0MzU1NFowIjEgMB4GA1UEAwwXZW9sZWNpdGVzdHNkbXouZXRi
MS5sYW4wgZ8wDQYJKoZIhvcNAQEBBQADgY0AMIGJAoGBAMoVuJAvM59FCgC6Cz4i
KpnavLTJXCVUPQELqOT2tbZfjsA/zW0ZySIZPOHDNFrCKREFOylPa8WRe+EKRG48
TcfXzgy4aXVp3wtlFYeci2d8zlcr1TMCdQGQEOzkAeT5nTfaoe0WbKTF9MfUgG1s
br21YuVfLKO+egUnkNyjo4zDAgMBAAGjgdIwgc8wCQYDVR0TBAIwADAdBgNVHQ4E
FgQUU+zZ5v3v6I4w7wipDIlZSXvkufQwgZIGA1UdIwSBijCBh4AUON9GKTiyE4ul
fIBLXqok2yXc7O6hZKRiMGAxCzAJBgNVBAYTAkZSMRIwEAYDVQQIDAlib3VyZ29n
bmUxDjAMBgNVBAcMBWRpam9uMQ0wCwYDVQQKDARlb2xlMQswCQYDVQQLDAJjaTER
MA8GA1UEAwwIQUNFb2xlQ0mCCQCBWv7lunA4ATAOBgNVHQ8BAf8EBAMCBaAwDQYJ
KoZIhvcNAQELBQADgYEAHEB0N68hnNvh9sOec+Sq3muSwqUU8zY45VaWugtY+HV7
p7i5JI88iSBmd/pm7i0X1XjspFoLTQjZMHeCGGWK3LED7DMhwCsJTUGZhgmdiT2A
GXqpL3mvUowW6Ks/dv00YoBd6EJMNnZYahAFiUhNpHPgXgUaeIjUYyFuDjPfrz8=
-----END CERTIFICATE-----
