Certificate:
    Data:
        Version: 3 (0x2)
        Serial Number: 189 (0xbd)
    Signature Algorithm: sha256WithRSAEncryption
        Issuer: C=FR, ST=bourgogne, L=dijon, O=eole, OU=ci, CN=ACEoleCI
        Validity
            Not Before: Mar 17 14:36:18 2016 GMT
            Not After : Jun  3 14:36:18 2024 GMT
        Subject: CN=pcprofs.etb4.lan
        Subject Public Key Info:
            Public Key Algorithm: rsaEncryption
                Public-Key: (1024 bit)
                Modulus:
                    00:d6:40:f9:39:25:1d:8a:59:26:6d:d6:35:29:e9:
                    98:0c:bb:66:1c:74:83:43:99:a8:f6:47:31:85:30:
                    18:20:04:27:17:f5:55:17:03:1e:7b:7a:7c:ba:82:
                    e0:1a:66:96:82:14:49:7a:55:24:3c:0f:9d:2e:0a:
                    8e:04:13:37:99:3d:1b:ba:0b:15:bd:8e:52:19:3f:
                    9f:4c:df:04:e3:59:62:87:23:71:71:64:b4:da:28:
                    ef:bc:d4:73:41:14:e0:6b:bf:9a:11:a3:83:b0:97:
                    f9:d5:16:fb:3b:f1:01:6e:cd:1b:d0:8a:b9:a0:70:
                    6a:28:6f:e1:48:dc:98:ad:7f
                Exponent: 65537 (0x10001)
        X509v3 extensions:
            X509v3 Basic Constraints: 
                CA:FALSE
            X509v3 Subject Key Identifier: 
                25:45:6E:D5:C0:87:B7:14:33:A8:45:90:56:ED:2D:E4:B4:41:EF:4B
            X509v3 Authority Key Identifier: 
                keyid:38:DF:46:29:38:B2:13:8B:A5:7C:80:4B:5E:AA:24:DB:25:DC:EC:EE
                DirName:/C=FR/ST=bourgogne/L=dijon/O=eole/OU=ci/CN=ACEoleCI
                serial:81:5A:FE:E5:BA:70:38:01

            X509v3 Key Usage: critical
                Digital Signature, Key Encipherment
    Signature Algorithm: sha256WithRSAEncryption
         03:3d:45:d7:0c:27:7a:bd:e5:46:28:8f:92:c4:c8:c0:26:7d:
         6f:c4:46:24:b0:ce:ae:cb:ce:1c:1c:fd:fe:78:7d:2a:e0:27:
         a3:13:d7:2f:44:7e:91:cd:9b:05:c0:2d:f2:3d:a0:59:49:bc:
         87:7f:24:e6:1b:6a:c2:a8:e7:24:3a:72:39:ea:0e:52:db:3f:
         e0:84:3b:fb:b5:73:49:a6:30:ff:e6:a1:39:82:96:bc:2a:4c:
         4c:f6:f0:52:ca:f7:e8:67:25:56:90:9e:07:a2:9f:8c:58:32:
         cc:fc:a1:a9:7c:db:3b:f7:01:18:aa:96:53:0e:c7:3f:f5:28:
         5f:cd
-----BEGIN CERTIFICATE-----
MIICxTCCAi6gAwIBAgICAL0wDQYJKoZIhvcNAQELBQAwYDELMAkGA1UEBhMCRlIx
EjAQBgNVBAgMCWJvdXJnb2duZTEOMAwGA1UEBwwFZGlqb24xDTALBgNVBAoMBGVv
bGUxCzAJBgNVBAsMAmNpMREwDwYDVQQDDAhBQ0VvbGVDSTAeFw0xNjAzMTcxNDM2
MThaFw0yNDA2MDMxNDM2MThaMBsxGTAXBgNVBAMMEHBjcHJvZnMuZXRiNC5sYW4w
gZ8wDQYJKoZIhvcNAQEBBQADgY0AMIGJAoGBANZA+TklHYpZJm3WNSnpmAy7Zhx0
g0OZqPZHMYUwGCAEJxf1VRcDHnt6fLqC4BpmloIUSXpVJDwPnS4KjgQTN5k9G7oL
Fb2OUhk/n0zfBONZYocjcXFktNoo77zUc0EU4Gu/mhGjg7CX+dUW+zvxAW7NG9CK
uaBwaihv4UjcmK1/AgMBAAGjgdIwgc8wCQYDVR0TBAIwADAdBgNVHQ4EFgQUJUVu
1cCHtxQzqEWQVu0t5LRB70swgZIGA1UdIwSBijCBh4AUON9GKTiyE4ulfIBLXqok
2yXc7O6hZKRiMGAxCzAJBgNVBAYTAkZSMRIwEAYDVQQIDAlib3VyZ29nbmUxDjAM
BgNVBAcMBWRpam9uMQ0wCwYDVQQKDARlb2xlMQswCQYDVQQLDAJjaTERMA8GA1UE
AwwIQUNFb2xlQ0mCCQCBWv7lunA4ATAOBgNVHQ8BAf8EBAMCBaAwDQYJKoZIhvcN
AQELBQADgYEAAz1F1wwner3lRiiPksTIwCZ9b8RGJLDOrsvOHBz9/nh9KuAnoxPX
L0R+kc2bBcAt8j2gWUm8h38k5htqwqjnJDpyOeoOUts/4IQ7+7VzSaYw/+ahOYKW
vCpMTPbwUsr36GclVpCeB6KfjFgyzPyhqXzbO/cBGKqWUw7HP/UoX80=
-----END CERTIFICATE-----
