Certificate:
    Data:
        Version: 3 (0x2)
        Serial Number: 187 (0xbb)
    Signature Algorithm: sha256WithRSAEncryption
        Issuer: C=FR, ST=bourgogne, L=dijon, O=eole, OU=ci, CN=ACEoleCI
        Validity
            Not Before: Mar 17 14:36:17 2016 GMT
            Not After : Jun  3 14:36:17 2024 GMT
        Subject: CN=pcprofs.etb4.lan
        Subject Public Key Info:
            Public Key Algorithm: rsaEncryption
                Public-Key: (1024 bit)
                Modulus:
                    00:d6:40:f9:39:25:1d:8a:59:26:6d:d6:35:29:e9:
                    98:0c:bb:66:1c:74:83:43:99:a8:f6:47:31:85:30:
                    18:20:04:27:17:f5:55:17:03:1e:7b:7a:7c:ba:82:
                    e0:1a:66:96:82:14:49:7a:55:24:3c:0f:9d:2e:0a:
                    8e:04:13:37:99:3d:1b:ba:0b:15:bd:8e:52:19:3f:
                    9f:4c:df:04:e3:59:62:87:23:71:71:64:b4:da:28:
                    ef:bc:d4:73:41:14:e0:6b:bf:9a:11:a3:83:b0:97:
                    f9:d5:16:fb:3b:f1:01:6e:cd:1b:d0:8a:b9:a0:70:
                    6a:28:6f:e1:48:dc:98:ad:7f
                Exponent: 65537 (0x10001)
        X509v3 extensions:
            X509v3 Basic Constraints: 
                CA:FALSE
            X509v3 Subject Key Identifier: 
                25:45:6E:D5:C0:87:B7:14:33:A8:45:90:56:ED:2D:E4:B4:41:EF:4B
            X509v3 Authority Key Identifier: 
                keyid:38:DF:46:29:38:B2:13:8B:A5:7C:80:4B:5E:AA:24:DB:25:DC:EC:EE
                DirName:/C=FR/ST=bourgogne/L=dijon/O=eole/OU=ci/CN=ACEoleCI
                serial:81:5A:FE:E5:BA:70:38:01

            X509v3 Key Usage: critical
                Digital Signature, Key Encipherment
            X509v3 Extended Key Usage: 
                TLS Web Server Authentication
    Signature Algorithm: sha256WithRSAEncryption
         6b:0b:d8:22:55:bf:31:1c:54:b6:2b:5c:74:12:1c:ec:71:ad:
         0f:8e:81:f4:d5:85:cb:b0:8e:23:19:20:7b:fb:ad:90:89:40:
         8a:b9:64:b1:a8:9d:c1:16:41:dc:a3:51:0a:be:6d:09:73:f0:
         53:c1:f7:2c:49:9c:ba:42:b0:d1:1b:bb:a4:f2:40:76:2d:02:
         a2:7a:8c:9e:7a:68:6e:05:ae:d9:7b:79:b9:03:16:6b:43:d2:
         00:9a:47:24:04:aa:f4:f3:28:b4:ad:38:48:ae:a0:08:d0:4b:
         11:f1:42:a9:ad:b3:a9:59:a8:f8:48:1d:95:66:9b:fe:b5:c2:
         cd:dc
-----BEGIN CERTIFICATE-----
MIIC2jCCAkOgAwIBAgICALswDQYJKoZIhvcNAQELBQAwYDELMAkGA1UEBhMCRlIx
EjAQBgNVBAgMCWJvdXJnb2duZTEOMAwGA1UEBwwFZGlqb24xDTALBgNVBAoMBGVv
bGUxCzAJBgNVBAsMAmNpMREwDwYDVQQDDAhBQ0VvbGVDSTAeFw0xNjAzMTcxNDM2
MTdaFw0yNDA2MDMxNDM2MTdaMBsxGTAXBgNVBAMMEHBjcHJvZnMuZXRiNC5sYW4w
gZ8wDQYJKoZIhvcNAQEBBQADgY0AMIGJAoGBANZA+TklHYpZJm3WNSnpmAy7Zhx0
g0OZqPZHMYUwGCAEJxf1VRcDHnt6fLqC4BpmloIUSXpVJDwPnS4KjgQTN5k9G7oL
Fb2OUhk/n0zfBONZYocjcXFktNoo77zUc0EU4Gu/mhGjg7CX+dUW+zvxAW7NG9CK
uaBwaihv4UjcmK1/AgMBAAGjgecwgeQwCQYDVR0TBAIwADAdBgNVHQ4EFgQUJUVu
1cCHtxQzqEWQVu0t5LRB70swgZIGA1UdIwSBijCBh4AUON9GKTiyE4ulfIBLXqok
2yXc7O6hZKRiMGAxCzAJBgNVBAYTAkZSMRIwEAYDVQQIDAlib3VyZ29nbmUxDjAM
BgNVBAcMBWRpam9uMQ0wCwYDVQQKDARlb2xlMQswCQYDVQQLDAJjaTERMA8GA1UE
AwwIQUNFb2xlQ0mCCQCBWv7lunA4ATAOBgNVHQ8BAf8EBAMCBaAwEwYDVR0lBAww
CgYIKwYBBQUHAwEwDQYJKoZIhvcNAQELBQADgYEAawvYIlW/MRxUtitcdBIc7HGt
D46B9NWFy7COIxkge/utkIlAirlksaidwRZB3KNRCr5tCXPwU8H3LEmcukKw0Ru7
pPJAdi0ConqMnnpobgWu2Xt5uQMWa0PSAJpHJASq9PMotK04SK6gCNBLEfFCqa2z
qVmo+EgdlWab/rXCzdw=
-----END CERTIFICATE-----
