Certificate:
    Data:
        Version: 3 (0x2)
        Serial Number: 13 (0xd)
    Signature Algorithm: sha256WithRSAEncryption
        Issuer: C=FR, ST=bourgogne, L=dijon, O=eole, OU=ci, CN=ACEoleCI
        Validity
            Not Before: Mar 17 14:35:32 2016 GMT
            Not After : Jun  3 14:35:32 2024 GMT
        Subject: CN=eolebase.ac-test.lan
        Subject Public Key Info:
            Public Key Algorithm: rsaEncryption
                Public-Key: (1024 bit)
                Modulus:
                    00:a4:e4:3e:a7:0d:00:b0:45:b4:6f:66:3e:76:04:
                    74:55:29:72:74:64:0a:d0:37:5a:44:2c:e0:78:18:
                    5d:6b:8c:7d:58:54:ef:19:57:a5:4c:f0:7f:5d:2c:
                    23:e5:ad:d9:06:6e:c2:99:29:97:67:10:57:e6:b7:
                    8a:44:1f:a3:e5:87:ed:c5:24:fa:37:a6:0f:9b:7f:
                    e8:2b:41:0a:21:0b:d8:4f:14:c5:6c:9b:59:1d:20:
                    92:f2:ca:d4:8c:39:68:43:0e:50:46:68:cb:08:19:
                    3a:c2:21:bd:31:28:5a:fc:87:b8:02:1b:8d:96:b0:
                    22:ce:36:86:58:5a:72:89:63
                Exponent: 65537 (0x10001)
        X509v3 extensions:
            X509v3 Basic Constraints: 
                CA:FALSE
            X509v3 Subject Key Identifier: 
                2A:01:C5:CC:AF:F5:41:A2:1E:F7:74:88:D5:44:EF:5A:DD:19:DD:CC
            X509v3 Authority Key Identifier: 
                keyid:38:DF:46:29:38:B2:13:8B:A5:7C:80:4B:5E:AA:24:DB:25:DC:EC:EE
                DirName:/C=FR/ST=bourgogne/L=dijon/O=eole/OU=ci/CN=ACEoleCI
                serial:81:5A:FE:E5:BA:70:38:01

            X509v3 Key Usage: critical
                Digital Signature, Key Encipherment
            X509v3 Extended Key Usage: 
                TLS Web Server Authentication
    Signature Algorithm: sha256WithRSAEncryption
         49:21:fa:38:43:f3:86:31:af:a3:cb:6c:e6:30:77:02:4a:b9:
         c7:c3:fc:23:ca:db:f8:f6:67:30:e2:2b:0d:c5:6d:9b:4d:12:
         70:47:a5:8d:5d:40:b6:4b:9d:b2:5f:03:a7:d3:dd:9e:84:28:
         a7:94:cd:82:9f:52:ee:22:02:15:62:38:f8:f7:4b:bb:53:7b:
         55:8c:96:30:79:1e:fe:9b:c9:0e:aa:6d:4f:94:e2:07:85:ab:
         cd:a6:0b:37:44:bd:49:59:23:30:87:f7:55:51:12:1c:22:b3:
         6e:cc:0d:44:98:f6:a1:d8:63:d6:ec:cb:6e:52:84:7e:fb:83:
         24:68
-----BEGIN CERTIFICATE-----
MIIC3TCCAkagAwIBAgIBDTANBgkqhkiG9w0BAQsFADBgMQswCQYDVQQGEwJGUjES
MBAGA1UECAwJYm91cmdvZ25lMQ4wDAYDVQQHDAVkaWpvbjENMAsGA1UECgwEZW9s
ZTELMAkGA1UECwwCY2kxETAPBgNVBAMMCEFDRW9sZUNJMB4XDTE2MDMxNzE0MzUz
MloXDTI0MDYwMzE0MzUzMlowHzEdMBsGA1UEAwwUZW9sZWJhc2UuYWMtdGVzdC5s
YW4wgZ8wDQYJKoZIhvcNAQEBBQADgY0AMIGJAoGBAKTkPqcNALBFtG9mPnYEdFUp
cnRkCtA3WkQs4HgYXWuMfVhU7xlXpUzwf10sI+Wt2QZuwpkpl2cQV+a3ikQfo+WH
7cUk+jemD5t/6CtBCiEL2E8UxWybWR0gkvLK1Iw5aEMOUEZoywgZOsIhvTEoWvyH
uAIbjZawIs42hlhacoljAgMBAAGjgecwgeQwCQYDVR0TBAIwADAdBgNVHQ4EFgQU
KgHFzK/1QaIe93SI1UTvWt0Z3cwwgZIGA1UdIwSBijCBh4AUON9GKTiyE4ulfIBL
Xqok2yXc7O6hZKRiMGAxCzAJBgNVBAYTAkZSMRIwEAYDVQQIDAlib3VyZ29nbmUx
DjAMBgNVBAcMBWRpam9uMQ0wCwYDVQQKDARlb2xlMQswCQYDVQQLDAJjaTERMA8G
A1UEAwwIQUNFb2xlQ0mCCQCBWv7lunA4ATAOBgNVHQ8BAf8EBAMCBaAwEwYDVR0l
BAwwCgYIKwYBBQUHAwEwDQYJKoZIhvcNAQELBQADgYEASSH6OEPzhjGvo8ts5jB3
Akq5x8P8I8rb+PZnMOIrDcVtm00ScEeljV1Atkudsl8Dp9PdnoQop5TNgp9S7iIC
FWI4+PdLu1N7VYyWMHke/pvJDqptT5TiB4WrzaYLN0S9SVkjMIf3VVESHCKzbswN
RJj2odhj1uzLblKEfvuDJGg=
-----END CERTIFICATE-----
