Certificate:
    Data:
        Version: 3 (0x2)
        Serial Number: 15 (0xf)
    Signature Algorithm: sha256WithRSAEncryption
        Issuer: C=FR, ST=bourgogne, L=dijon, O=eole, OU=ci, CN=ACEoleCI
        Validity
            Not Before: Mar 17 14:35:32 2016 GMT
            Not After : Jun  3 14:35:32 2024 GMT
        Subject: CN=eolebase.ac-test.lan
        Subject Public Key Info:
            Public Key Algorithm: rsaEncryption
                Public-Key: (1024 bit)
                Modulus:
                    00:a4:e4:3e:a7:0d:00:b0:45:b4:6f:66:3e:76:04:
                    74:55:29:72:74:64:0a:d0:37:5a:44:2c:e0:78:18:
                    5d:6b:8c:7d:58:54:ef:19:57:a5:4c:f0:7f:5d:2c:
                    23:e5:ad:d9:06:6e:c2:99:29:97:67:10:57:e6:b7:
                    8a:44:1f:a3:e5:87:ed:c5:24:fa:37:a6:0f:9b:7f:
                    e8:2b:41:0a:21:0b:d8:4f:14:c5:6c:9b:59:1d:20:
                    92:f2:ca:d4:8c:39:68:43:0e:50:46:68:cb:08:19:
                    3a:c2:21:bd:31:28:5a:fc:87:b8:02:1b:8d:96:b0:
                    22:ce:36:86:58:5a:72:89:63
                Exponent: 65537 (0x10001)
        X509v3 extensions:
            X509v3 Basic Constraints: 
                CA:FALSE
            X509v3 Subject Key Identifier: 
                2A:01:C5:CC:AF:F5:41:A2:1E:F7:74:88:D5:44:EF:5A:DD:19:DD:CC
            X509v3 Authority Key Identifier: 
                keyid:38:DF:46:29:38:B2:13:8B:A5:7C:80:4B:5E:AA:24:DB:25:DC:EC:EE
                DirName:/C=FR/ST=bourgogne/L=dijon/O=eole/OU=ci/CN=ACEoleCI
                serial:81:5A:FE:E5:BA:70:38:01

            X509v3 Key Usage: critical
                Digital Signature, Key Encipherment
    Signature Algorithm: sha256WithRSAEncryption
         75:9f:e4:66:0a:e3:2e:b8:81:76:f9:1e:2e:e5:06:ed:d3:38:
         a0:61:18:8a:c2:71:ea:54:05:93:cc:c2:41:9c:35:72:f7:52:
         b4:26:81:57:52:93:f9:b3:81:d9:1e:0d:ce:bc:fa:26:d2:df:
         09:7a:6a:dc:d4:37:02:8f:13:5a:d1:b7:31:40:cc:d0:bf:bf:
         a9:d8:2e:4e:69:cf:30:2b:1c:64:d7:67:bb:50:99:c8:35:90:
         68:47:fe:bb:5e:74:74:cc:27:45:00:a8:9a:6a:dd:67:1b:8e:
         e9:68:1f:3f:9c:9c:20:3d:5e:ae:04:15:e9:b5:a9:4e:5b:09:
         8c:35
-----BEGIN CERTIFICATE-----
MIICyDCCAjGgAwIBAgIBDzANBgkqhkiG9w0BAQsFADBgMQswCQYDVQQGEwJGUjES
MBAGA1UECAwJYm91cmdvZ25lMQ4wDAYDVQQHDAVkaWpvbjENMAsGA1UECgwEZW9s
ZTELMAkGA1UECwwCY2kxETAPBgNVBAMMCEFDRW9sZUNJMB4XDTE2MDMxNzE0MzUz
MloXDTI0MDYwMzE0MzUzMlowHzEdMBsGA1UEAwwUZW9sZWJhc2UuYWMtdGVzdC5s
YW4wgZ8wDQYJKoZIhvcNAQEBBQADgY0AMIGJAoGBAKTkPqcNALBFtG9mPnYEdFUp
cnRkCtA3WkQs4HgYXWuMfVhU7xlXpUzwf10sI+Wt2QZuwpkpl2cQV+a3ikQfo+WH
7cUk+jemD5t/6CtBCiEL2E8UxWybWR0gkvLK1Iw5aEMOUEZoywgZOsIhvTEoWvyH
uAIbjZawIs42hlhacoljAgMBAAGjgdIwgc8wCQYDVR0TBAIwADAdBgNVHQ4EFgQU
KgHFzK/1QaIe93SI1UTvWt0Z3cwwgZIGA1UdIwSBijCBh4AUON9GKTiyE4ulfIBL
Xqok2yXc7O6hZKRiMGAxCzAJBgNVBAYTAkZSMRIwEAYDVQQIDAlib3VyZ29nbmUx
DjAMBgNVBAcMBWRpam9uMQ0wCwYDVQQKDARlb2xlMQswCQYDVQQLDAJjaTERMA8G
A1UEAwwIQUNFb2xlQ0mCCQCBWv7lunA4ATAOBgNVHQ8BAf8EBAMCBaAwDQYJKoZI
hvcNAQELBQADgYEAdZ/kZgrjLriBdvkeLuUG7dM4oGEYisJx6lQFk8zCQZw1cvdS
tCaBV1KT+bOB2R4Nzrz6JtLfCXpq3NQ3Ao8TWtG3MUDM0L+/qdguTmnPMCscZNdn
u1CZyDWQaEf+u150dMwnRQCommrdZxuO6WgfP5ycID1ergQV6bWpTlsJjDU=
-----END CERTIFICATE-----
