Certificate:
    Data:
        Version: 3 (0x2)
        Serial Number: 166 (0xa6)
    Signature Algorithm: sha256WithRSAEncryption
        Issuer: C=FR, ST=bourgogne, L=dijon, O=eole, OU=ci, CN=ACEoleCI
        Validity
            Not Before: Mar 17 14:36:12 2016 GMT
            Not After : Jun  3 14:36:12 2024 GMT
        Subject: CN=eolecitestspedago.etb3.lan
        Subject Public Key Info:
            Public Key Algorithm: rsaEncryption
                Public-Key: (1024 bit)
                Modulus:
                    00:a5:fd:75:e2:a8:7c:06:a2:89:0a:58:08:ef:54:
                    ef:c5:9d:2f:7c:94:62:f6:af:e8:4e:9d:e6:60:18:
                    19:17:01:08:c2:a6:71:72:7d:78:cd:19:0d:50:ce:
                    25:97:25:3d:e8:4a:38:bc:5c:7e:a5:1d:15:96:c4:
                    62:fb:9a:14:5c:49:7f:27:35:f9:8b:25:97:b3:fb:
                    3b:92:81:7a:a5:4a:bb:65:1b:5e:09:40:f0:fe:ab:
                    f0:d3:76:58:08:35:d9:28:35:81:d4:26:a7:e4:b6:
                    5c:11:cd:f1:2c:5b:78:5f:20:e3:4e:0a:6e:24:2c:
                    d8:51:28:60:05:54:07:aa:cb
                Exponent: 65537 (0x10001)
        X509v3 extensions:
            X509v3 Basic Constraints: 
                CA:FALSE
            X509v3 Subject Key Identifier: 
                91:0B:25:9D:B1:5E:C0:BA:C1:09:5D:FD:19:00:DC:AD:23:02:51:13
            X509v3 Authority Key Identifier: 
                keyid:38:DF:46:29:38:B2:13:8B:A5:7C:80:4B:5E:AA:24:DB:25:DC:EC:EE
                DirName:/C=FR/ST=bourgogne/L=dijon/O=eole/OU=ci/CN=ACEoleCI
                serial:81:5A:FE:E5:BA:70:38:01

            X509v3 Key Usage: critical
                Digital Signature, Key Encipherment
            X509v3 Extended Key Usage: 
                TLS Web Server Authentication
    Signature Algorithm: sha256WithRSAEncryption
         20:6d:34:b2:ee:08:9c:7b:92:d7:51:75:99:7f:3b:9e:3a:88:
         e3:8c:32:f8:71:71:d1:e9:40:43:22:c1:6e:28:89:5f:e1:11:
         31:9d:ee:65:46:2a:41:a1:f4:61:31:ff:d2:2e:e6:da:8b:88:
         23:f6:58:2f:08:f0:7f:f8:5e:89:26:cc:43:58:e0:e5:31:e6:
         c2:2d:20:33:24:27:0e:fe:bf:5c:da:ae:65:d0:d8:c2:47:ea:
         f1:e2:39:b0:5c:99:4b:f4:4a:82:6a:ec:5a:cc:b4:6c:b3:db:
         02:cf:78:c1:59:cd:f8:9d:0d:71:12:54:f5:c5:ae:75:69:06:
         80:fc
-----BEGIN CERTIFICATE-----
MIIC5DCCAk2gAwIBAgICAKYwDQYJKoZIhvcNAQELBQAwYDELMAkGA1UEBhMCRlIx
EjAQBgNVBAgMCWJvdXJnb2duZTEOMAwGA1UEBwwFZGlqb24xDTALBgNVBAoMBGVv
bGUxCzAJBgNVBAsMAmNpMREwDwYDVQQDDAhBQ0VvbGVDSTAeFw0xNjAzMTcxNDM2
MTJaFw0yNDA2MDMxNDM2MTJaMCUxIzAhBgNVBAMMGmVvbGVjaXRlc3RzcGVkYWdv
LmV0YjMubGFuMIGfMA0GCSqGSIb3DQEBAQUAA4GNADCBiQKBgQCl/XXiqHwGookK
WAjvVO/FnS98lGL2r+hOneZgGBkXAQjCpnFyfXjNGQ1QziWXJT3oSji8XH6lHRWW
xGL7mhRcSX8nNfmLJZez+zuSgXqlSrtlG14JQPD+q/DTdlgINdkoNYHUJqfktlwR
zfEsW3hfIONOCm4kLNhRKGAFVAeqywIDAQABo4HnMIHkMAkGA1UdEwQCMAAwHQYD
VR0OBBYEFJELJZ2xXsC6wQld/RkA3K0jAlETMIGSBgNVHSMEgYowgYeAFDjfRik4
shOLpXyAS16qJNsl3OzuoWSkYjBgMQswCQYDVQQGEwJGUjESMBAGA1UECAwJYm91
cmdvZ25lMQ4wDAYDVQQHDAVkaWpvbjENMAsGA1UECgwEZW9sZTELMAkGA1UECwwC
Y2kxETAPBgNVBAMMCEFDRW9sZUNJggkAgVr+5bpwOAEwDgYDVR0PAQH/BAQDAgWg
MBMGA1UdJQQMMAoGCCsGAQUFBwMBMA0GCSqGSIb3DQEBCwUAA4GBACBtNLLuCJx7
ktdRdZl/O546iOOMMvhxcdHpQEMiwW4oiV/hETGd7mVGKkGh9GEx/9Iu5tqLiCP2
WC8I8H/4XokmzENY4OUx5sItIDMkJw7+v1zarmXQ2MJH6vHiObBcmUv0SoJq7FrM
tGyz2wLPeMFZzfidDXESVPXFrnVpBoD8
-----END CERTIFICATE-----
