Certificate:
    Data:
        Version: 3 (0x2)
        Serial Number: 168 (0xa8)
    Signature Algorithm: sha256WithRSAEncryption
        Issuer: C=FR, ST=bourgogne, L=dijon, O=eole, OU=ci, CN=ACEoleCI
        Validity
            Not Before: Mar 17 14:36:13 2016 GMT
            Not After : Jun  3 14:36:13 2024 GMT
        Subject: CN=eolecitestspedago.etb3.lan
        Subject Public Key Info:
            Public Key Algorithm: rsaEncryption
                Public-Key: (1024 bit)
                Modulus:
                    00:a5:fd:75:e2:a8:7c:06:a2:89:0a:58:08:ef:54:
                    ef:c5:9d:2f:7c:94:62:f6:af:e8:4e:9d:e6:60:18:
                    19:17:01:08:c2:a6:71:72:7d:78:cd:19:0d:50:ce:
                    25:97:25:3d:e8:4a:38:bc:5c:7e:a5:1d:15:96:c4:
                    62:fb:9a:14:5c:49:7f:27:35:f9:8b:25:97:b3:fb:
                    3b:92:81:7a:a5:4a:bb:65:1b:5e:09:40:f0:fe:ab:
                    f0:d3:76:58:08:35:d9:28:35:81:d4:26:a7:e4:b6:
                    5c:11:cd:f1:2c:5b:78:5f:20:e3:4e:0a:6e:24:2c:
                    d8:51:28:60:05:54:07:aa:cb
                Exponent: 65537 (0x10001)
        X509v3 extensions:
            X509v3 Basic Constraints: 
                CA:FALSE
            X509v3 Subject Key Identifier: 
                91:0B:25:9D:B1:5E:C0:BA:C1:09:5D:FD:19:00:DC:AD:23:02:51:13
            X509v3 Authority Key Identifier: 
                keyid:38:DF:46:29:38:B2:13:8B:A5:7C:80:4B:5E:AA:24:DB:25:DC:EC:EE
                DirName:/C=FR/ST=bourgogne/L=dijon/O=eole/OU=ci/CN=ACEoleCI
                serial:81:5A:FE:E5:BA:70:38:01

            X509v3 Key Usage: critical
                Digital Signature, Key Encipherment
    Signature Algorithm: sha256WithRSAEncryption
         03:20:8b:42:51:86:f2:22:d6:5e:86:92:d5:67:67:27:24:b4:
         43:4f:56:4c:53:d1:d4:7a:2c:ad:d6:cd:3c:be:7e:b4:8b:98:
         48:9d:3b:df:ac:32:dd:04:8b:aa:81:30:56:08:42:80:1b:d5:
         b2:96:fd:0a:88:05:bd:52:cc:ac:27:55:df:f0:85:54:48:b1:
         f8:5c:34:89:c9:96:f4:18:84:53:b4:21:be:be:7e:8a:ab:63:
         85:2d:4e:ac:e3:99:28:6c:af:a7:13:bd:c8:be:f8:05:10:91:
         3d:6e:b3:30:9b:62:5a:8a:0f:a9:15:6f:0b:1b:ae:26:2c:7e:
         63:02
-----BEGIN CERTIFICATE-----
MIICzzCCAjigAwIBAgICAKgwDQYJKoZIhvcNAQELBQAwYDELMAkGA1UEBhMCRlIx
EjAQBgNVBAgMCWJvdXJnb2duZTEOMAwGA1UEBwwFZGlqb24xDTALBgNVBAoMBGVv
bGUxCzAJBgNVBAsMAmNpMREwDwYDVQQDDAhBQ0VvbGVDSTAeFw0xNjAzMTcxNDM2
MTNaFw0yNDA2MDMxNDM2MTNaMCUxIzAhBgNVBAMMGmVvbGVjaXRlc3RzcGVkYWdv
LmV0YjMubGFuMIGfMA0GCSqGSIb3DQEBAQUAA4GNADCBiQKBgQCl/XXiqHwGookK
WAjvVO/FnS98lGL2r+hOneZgGBkXAQjCpnFyfXjNGQ1QziWXJT3oSji8XH6lHRWW
xGL7mhRcSX8nNfmLJZez+zuSgXqlSrtlG14JQPD+q/DTdlgINdkoNYHUJqfktlwR
zfEsW3hfIONOCm4kLNhRKGAFVAeqywIDAQABo4HSMIHPMAkGA1UdEwQCMAAwHQYD
VR0OBBYEFJELJZ2xXsC6wQld/RkA3K0jAlETMIGSBgNVHSMEgYowgYeAFDjfRik4
shOLpXyAS16qJNsl3OzuoWSkYjBgMQswCQYDVQQGEwJGUjESMBAGA1UECAwJYm91
cmdvZ25lMQ4wDAYDVQQHDAVkaWpvbjENMAsGA1UECgwEZW9sZTELMAkGA1UECwwC
Y2kxETAPBgNVBAMMCEFDRW9sZUNJggkAgVr+5bpwOAEwDgYDVR0PAQH/BAQDAgWg
MA0GCSqGSIb3DQEBCwUAA4GBAAMgi0JRhvIi1l6GktVnZycktENPVkxT0dR6LK3W
zTy+frSLmEidO9+sMt0Ei6qBMFYIQoAb1bKW/QqIBb1SzKwnVd/whVRIsfhcNInJ
lvQYhFO0Ib6+foqrY4UtTqzjmShsr6cTvci++AUQkT1uszCbYlqKD6kVbwsbriYs
fmMC
-----END CERTIFICATE-----
