-----BEGIN RSA PRIVATE KEY-----
MIICXAIBAAKBgQC6mnUeUJzxMhEFJC2IAlwnMuMbZkQwu1S+SOk5FXTj++EK1191
jqBoYtdB9NvECTxtQE114IU6S9py8k7zgZs5sGzP93MGbkx9/rJ4v5zZuHSqUWIW
+VqLIurFnogf1cUjFaFXDYD0LLDhIobokqeBnEh/nARmOd4hXkdTTGOr2QIDAQAB
AoGAGWo8FVrpZThqdQbOZL3di0E1CWBOXUzGZ/xKN4oil4KQzgczazF3y3/azZLp
87NGVaLyaeGgg6YdJJa4BhZa666gsQsIiFDbhvn10xzztUH8b/CbpNQ0zKEwsu3y
NxbtI2OzOCqh+5fF8PE7ZQ03v6Td9bZsKBYE+OhdzGdJO7kCQQD0dIcN/pzRRQBM
mUWJFiaq1RQEsZbQMGVk0RyRRWd7laCS8H8i5KxvUIq01uZC8Toq1/Tvf0Tb+F2q
XiOWBGZjAkEAw2p/waihGTgjMgv58eZBi6c32qsup+J67FohUXyf4kuqLhEKdI7o
pJwk5Idjv9QyURmCWH2Z/axvSXyjYKDrkwJABG1z4MICzxuD1N9VzhTToHZ5hVg+
Fgk6XOgYr1zlceyU2vR2KQihQubfjET0KLQ7zHja29efRKir8aEA3f+4ZwJABEIJ
zppyCC6k9a41IAQ4YWafXPBl79qLeyLrnu7sPO4RIzfT1n5Wq1+Lnj8k+UUSY5n+
sRbriA99zUgd9zkKaQJBAMO8VbSvrO7/imzBP5uh4bSng8pgxHzJ54XpIcY4IzmZ
6fcFL15tmeITHVluSmoPSsJU92jGJlEtZcizHAmxh7M=
-----END RSA PRIVATE KEY-----
Certificate:
    Data:
        Version: 3 (0x2)
        Serial Number: 82 (0x52)
    Signature Algorithm: sha256WithRSAEncryption
        Issuer: C=FR, ST=bourgogne, L=dijon, O=eole, OU=ci, CN=ACEoleCI
        Validity
            Not Before: Mar 17 14:35:50 2016 GMT
            Not After : Jun  3 14:35:50 2024 GMT
        Subject: CN=amon.etb1.lan
        Subject Public Key Info:
            Public Key Algorithm: rsaEncryption
                Public-Key: (1024 bit)
                Modulus:
                    00:ba:9a:75:1e:50:9c:f1:32:11:05:24:2d:88:02:
                    5c:27:32:e3:1b:66:44:30:bb:54:be:48:e9:39:15:
                    74:e3:fb:e1:0a:d7:5f:75:8e:a0:68:62:d7:41:f4:
                    db:c4:09:3c:6d:40:4d:75:e0:85:3a:4b:da:72:f2:
                    4e:f3:81:9b:39:b0:6c:cf:f7:73:06:6e:4c:7d:fe:
                    b2:78:bf:9c:d9:b8:74:aa:51:62:16:f9:5a:8b:22:
                    ea:c5:9e:88:1f:d5:c5:23:15:a1:57:0d:80:f4:2c:
                    b0:e1:22:86:e8:92:a7:81:9c:48:7f:9c:04:66:39:
                    de:21:5e:47:53:4c:63:ab:d9
                Exponent: 65537 (0x10001)
        X509v3 extensions:
            X509v3 Basic Constraints: 
                CA:FALSE
            X509v3 Subject Key Identifier: 
                F0:EC:A6:CB:71:1D:FE:A2:28:C3:33:AA:B8:95:CC:C0:55:0A:69:62
            X509v3 Authority Key Identifier: 
                keyid:38:DF:46:29:38:B2:13:8B:A5:7C:80:4B:5E:AA:24:DB:25:DC:EC:EE
                DirName:/C=FR/ST=bourgogne/L=dijon/O=eole/OU=ci/CN=ACEoleCI
                serial:81:5A:FE:E5:BA:70:38:01

            X509v3 Key Usage: critical
                Digital Signature, Key Encipherment
            X509v3 Extended Key Usage: 
                TLS Web Server Authentication
    Signature Algorithm: sha256WithRSAEncryption
         80:7f:6e:79:ec:02:6f:5b:c3:2c:af:a7:53:ed:9d:ff:0a:ff:
         d2:bb:aa:9e:3c:1d:81:26:d3:3a:c0:65:64:5d:2a:b9:19:17:
         3b:a3:d3:d4:fc:ba:a7:43:da:7f:b0:f9:1c:c8:1f:64:ef:91:
         4e:28:3f:37:81:fe:24:91:eb:a2:de:5b:67:72:98:38:01:e6:
         ef:20:e0:d1:44:02:f4:2c:cc:94:76:34:b9:b6:95:65:9e:96:
         94:f3:ce:3f:ba:f2:49:00:8a:f2:2e:e2:95:a2:e5:0f:6e:65:
         1a:b5:20:8e:b4:4e:bf:e4:8b:0e:38:a4:37:a8:ec:f4:d7:d5:
         41:69
-----BEGIN CERTIFICATE-----
MIIC1jCCAj+gAwIBAgIBUjANBgkqhkiG9w0BAQsFADBgMQswCQYDVQQGEwJGUjES
MBAGA1UECAwJYm91cmdvZ25lMQ4wDAYDVQQHDAVkaWpvbjENMAsGA1UECgwEZW9s
ZTELMAkGA1UECwwCY2kxETAPBgNVBAMMCEFDRW9sZUNJMB4XDTE2MDMxNzE0MzU1
MFoXDTI0MDYwMzE0MzU1MFowGDEWMBQGA1UEAwwNYW1vbi5ldGIxLmxhbjCBnzAN
BgkqhkiG9w0BAQEFAAOBjQAwgYkCgYEAupp1HlCc8TIRBSQtiAJcJzLjG2ZEMLtU
vkjpORV04/vhCtdfdY6gaGLXQfTbxAk8bUBNdeCFOkvacvJO84GbObBsz/dzBm5M
ff6yeL+c2bh0qlFiFvlaiyLqxZ6IH9XFIxWhVw2A9Cyw4SKG6JKngZxIf5wEZjne
IV5HU0xjq9kCAwEAAaOB5zCB5DAJBgNVHRMEAjAAMB0GA1UdDgQWBBTw7KbLcR3+
oijDM6q4lczAVQppYjCBkgYDVR0jBIGKMIGHgBQ430YpOLITi6V8gEteqiTbJdzs
7qFkpGIwYDELMAkGA1UEBhMCRlIxEjAQBgNVBAgMCWJvdXJnb2duZTEOMAwGA1UE
BwwFZGlqb24xDTALBgNVBAoMBGVvbGUxCzAJBgNVBAsMAmNpMREwDwYDVQQDDAhB
Q0VvbGVDSYIJAIFa/uW6cDgBMA4GA1UdDwEB/wQEAwIFoDATBgNVHSUEDDAKBggr
BgEFBQcDATANBgkqhkiG9w0BAQsFAAOBgQCAf2557AJvW8Msr6dT7Z3/Cv/Su6qe
PB2BJtM6wGVkXSq5GRc7o9PU/LqnQ9p/sPkcyB9k75FOKD83gf4kkeui3ltncpg4
AebvIODRRAL0LMyUdjS5tpVlnpaU884/uvJJAIryLuKVouUPbmUatSCOtE6/5IsO
OKQ3qOz019VBaQ==
-----END CERTIFICATE-----
