Certificate:
    Data:
        Version: 3 (0x2)
        Serial Number: 84 (0x54)
    Signature Algorithm: sha256WithRSAEncryption
        Issuer: C=FR, ST=bourgogne, L=dijon, O=eole, OU=ci, CN=ACEoleCI
        Validity
            Not Before: Mar 17 14:35:50 2016 GMT
            Not After : Jun  3 14:35:50 2024 GMT
        Subject: CN=amon.etb1.lan
        Subject Public Key Info:
            Public Key Algorithm: rsaEncryption
                Public-Key: (1024 bit)
                Modulus:
                    00:ba:9a:75:1e:50:9c:f1:32:11:05:24:2d:88:02:
                    5c:27:32:e3:1b:66:44:30:bb:54:be:48:e9:39:15:
                    74:e3:fb:e1:0a:d7:5f:75:8e:a0:68:62:d7:41:f4:
                    db:c4:09:3c:6d:40:4d:75:e0:85:3a:4b:da:72:f2:
                    4e:f3:81:9b:39:b0:6c:cf:f7:73:06:6e:4c:7d:fe:
                    b2:78:bf:9c:d9:b8:74:aa:51:62:16:f9:5a:8b:22:
                    ea:c5:9e:88:1f:d5:c5:23:15:a1:57:0d:80:f4:2c:
                    b0:e1:22:86:e8:92:a7:81:9c:48:7f:9c:04:66:39:
                    de:21:5e:47:53:4c:63:ab:d9
                Exponent: 65537 (0x10001)
        X509v3 extensions:
            X509v3 Basic Constraints: 
                CA:FALSE
            X509v3 Subject Key Identifier: 
                F0:EC:A6:CB:71:1D:FE:A2:28:C3:33:AA:B8:95:CC:C0:55:0A:69:62
            X509v3 Authority Key Identifier: 
                keyid:38:DF:46:29:38:B2:13:8B:A5:7C:80:4B:5E:AA:24:DB:25:DC:EC:EE
                DirName:/C=FR/ST=bourgogne/L=dijon/O=eole/OU=ci/CN=ACEoleCI
                serial:81:5A:FE:E5:BA:70:38:01

            X509v3 Key Usage: critical
                Digital Signature, Key Encipherment
    Signature Algorithm: sha256WithRSAEncryption
         5b:12:70:88:93:23:7b:a0:b9:52:9e:71:0d:d5:41:82:e5:2f:
         79:d1:03:37:b5:8a:d5:82:c7:7a:2e:78:7d:b0:c1:6b:ff:56:
         df:56:11:45:b9:0d:c0:cf:0b:84:9a:a6:b9:67:4b:1d:e5:08:
         3f:54:5c:84:a7:d7:92:9a:6d:71:e3:86:ef:3b:5c:7e:88:3e:
         cb:18:58:cd:41:aa:55:82:ae:61:85:d1:be:64:d8:44:4d:4f:
         d9:d6:24:c4:58:44:47:f7:c4:37:db:e0:49:75:8a:bb:17:b9:
         1f:eb:d5:6b:33:af:d0:c4:12:48:b3:e3:e6:89:e8:ec:24:be:
         96:17
-----BEGIN CERTIFICATE-----
MIICwTCCAiqgAwIBAgIBVDANBgkqhkiG9w0BAQsFADBgMQswCQYDVQQGEwJGUjES
MBAGA1UECAwJYm91cmdvZ25lMQ4wDAYDVQQHDAVkaWpvbjENMAsGA1UECgwEZW9s
ZTELMAkGA1UECwwCY2kxETAPBgNVBAMMCEFDRW9sZUNJMB4XDTE2MDMxNzE0MzU1
MFoXDTI0MDYwMzE0MzU1MFowGDEWMBQGA1UEAwwNYW1vbi5ldGIxLmxhbjCBnzAN
BgkqhkiG9w0BAQEFAAOBjQAwgYkCgYEAupp1HlCc8TIRBSQtiAJcJzLjG2ZEMLtU
vkjpORV04/vhCtdfdY6gaGLXQfTbxAk8bUBNdeCFOkvacvJO84GbObBsz/dzBm5M
ff6yeL+c2bh0qlFiFvlaiyLqxZ6IH9XFIxWhVw2A9Cyw4SKG6JKngZxIf5wEZjne
IV5HU0xjq9kCAwEAAaOB0jCBzzAJBgNVHRMEAjAAMB0GA1UdDgQWBBTw7KbLcR3+
oijDM6q4lczAVQppYjCBkgYDVR0jBIGKMIGHgBQ430YpOLITi6V8gEteqiTbJdzs
7qFkpGIwYDELMAkGA1UEBhMCRlIxEjAQBgNVBAgMCWJvdXJnb2duZTEOMAwGA1UE
BwwFZGlqb24xDTALBgNVBAoMBGVvbGUxCzAJBgNVBAsMAmNpMREwDwYDVQQDDAhB
Q0VvbGVDSYIJAIFa/uW6cDgBMA4GA1UdDwEB/wQEAwIFoDANBgkqhkiG9w0BAQsF
AAOBgQBbEnCIkyN7oLlSnnEN1UGC5S950QM3tYrVgsd6Lnh9sMFr/1bfVhFFuQ3A
zwuEmqa5Z0sd5Qg/VFyEp9eSmm1x44bvO1x+iD7LGFjNQapVgq5hhdG+ZNhETU/Z
1iTEWERH98Q32+BJdYq7F7kf69VrM6/QxBJIs+PmiejsJL6WFw==
-----END CERTIFICATE-----
