-----BEGIN RSA PRIVATE KEY-----
MIICXAIBAAKBgQC6mnUeUJzxMhEFJC2IAlwnMuMbZkQwu1S+SOk5FXTj++EK1191
jqBoYtdB9NvECTxtQE114IU6S9py8k7zgZs5sGzP93MGbkx9/rJ4v5zZuHSqUWIW
+VqLIurFnogf1cUjFaFXDYD0LLDhIobokqeBnEh/nARmOd4hXkdTTGOr2QIDAQAB
AoGAGWo8FVrpZThqdQbOZL3di0E1CWBOXUzGZ/xKN4oil4KQzgczazF3y3/azZLp
87NGVaLyaeGgg6YdJJa4BhZa666gsQsIiFDbhvn10xzztUH8b/CbpNQ0zKEwsu3y
NxbtI2OzOCqh+5fF8PE7ZQ03v6Td9bZsKBYE+OhdzGdJO7kCQQD0dIcN/pzRRQBM
mUWJFiaq1RQEsZbQMGVk0RyRRWd7laCS8H8i5KxvUIq01uZC8Toq1/Tvf0Tb+F2q
XiOWBGZjAkEAw2p/waihGTgjMgv58eZBi6c32qsup+J67FohUXyf4kuqLhEKdI7o
pJwk5Idjv9QyURmCWH2Z/axvSXyjYKDrkwJABG1z4MICzxuD1N9VzhTToHZ5hVg+
Fgk6XOgYr1zlceyU2vR2KQihQubfjET0KLQ7zHja29efRKir8aEA3f+4ZwJABEIJ
zppyCC6k9a41IAQ4YWafXPBl79qLeyLrnu7sPO4RIzfT1n5Wq1+Lnj8k+UUSY5n+
sRbriA99zUgd9zkKaQJBAMO8VbSvrO7/imzBP5uh4bSng8pgxHzJ54XpIcY4IzmZ
6fcFL15tmeITHVluSmoPSsJU92jGJlEtZcizHAmxh7M=
-----END RSA PRIVATE KEY-----
Certificate:
    Data:
        Version: 3 (0x2)
        Serial Number: 83 (0x53)
    Signature Algorithm: sha256WithRSAEncryption
        Issuer: C=FR, ST=bourgogne, L=dijon, O=eole, OU=ci, CN=ACEoleCI
        Validity
            Not Before: Mar 17 14:35:50 2016 GMT
            Not After : Jun  3 14:35:50 2024 GMT
        Subject: CN=amon.etb1.lan
        Subject Public Key Info:
            Public Key Algorithm: rsaEncryption
                Public-Key: (1024 bit)
                Modulus:
                    00:ba:9a:75:1e:50:9c:f1:32:11:05:24:2d:88:02:
                    5c:27:32:e3:1b:66:44:30:bb:54:be:48:e9:39:15:
                    74:e3:fb:e1:0a:d7:5f:75:8e:a0:68:62:d7:41:f4:
                    db:c4:09:3c:6d:40:4d:75:e0:85:3a:4b:da:72:f2:
                    4e:f3:81:9b:39:b0:6c:cf:f7:73:06:6e:4c:7d:fe:
                    b2:78:bf:9c:d9:b8:74:aa:51:62:16:f9:5a:8b:22:
                    ea:c5:9e:88:1f:d5:c5:23:15:a1:57:0d:80:f4:2c:
                    b0:e1:22:86:e8:92:a7:81:9c:48:7f:9c:04:66:39:
                    de:21:5e:47:53:4c:63:ab:d9
                Exponent: 65537 (0x10001)
        X509v3 extensions:
            X509v3 Basic Constraints: 
                CA:FALSE
            X509v3 Subject Key Identifier: 
                F0:EC:A6:CB:71:1D:FE:A2:28:C3:33:AA:B8:95:CC:C0:55:0A:69:62
            X509v3 Authority Key Identifier: 
                keyid:38:DF:46:29:38:B2:13:8B:A5:7C:80:4B:5E:AA:24:DB:25:DC:EC:EE

            X509v3 Key Usage: critical
                Digital Signature, Non Repudiation, Key Encipherment
            X509v3 Extended Key Usage: 
                TLS Web Client Authentication, E-mail Protection
    Signature Algorithm: sha256WithRSAEncryption
         31:4b:77:bf:78:e0:2c:00:70:29:ca:10:c6:ab:78:43:f2:bb:
         2e:6f:5a:9a:26:cd:3b:5f:9d:97:51:9a:f6:f3:f2:86:8a:42:
         5a:e9:29:29:92:9b:4d:be:91:fc:f9:ad:74:46:4a:ab:99:5f:
         4b:42:3f:23:7a:eb:73:8f:86:63:88:fc:d1:26:16:0d:2a:9c:
         d3:04:58:32:12:11:9e:87:cf:b0:ac:71:17:2f:b2:4b:54:e1:
         ad:b5:d7:fe:36:dd:92:69:2d:9a:a6:3c:2b:17:64:ca:dd:2c:
         47:e9:c2:74:1f:60:17:37:c6:ff:1c:ac:25:21:18:55:3d:1b:
         24:d6
-----BEGIN CERTIFICATE-----
MIICajCCAdOgAwIBAgIBUzANBgkqhkiG9w0BAQsFADBgMQswCQYDVQQGEwJGUjES
MBAGA1UECAwJYm91cmdvZ25lMQ4wDAYDVQQHDAVkaWpvbjENMAsGA1UECgwEZW9s
ZTELMAkGA1UECwwCY2kxETAPBgNVBAMMCEFDRW9sZUNJMB4XDTE2MDMxNzE0MzU1
MFoXDTI0MDYwMzE0MzU1MFowGDEWMBQGA1UEAwwNYW1vbi5ldGIxLmxhbjCBnzAN
BgkqhkiG9w0BAQEFAAOBjQAwgYkCgYEAupp1HlCc8TIRBSQtiAJcJzLjG2ZEMLtU
vkjpORV04/vhCtdfdY6gaGLXQfTbxAk8bUBNdeCFOkvacvJO84GbObBsz/dzBm5M
ff6yeL+c2bh0qlFiFvlaiyLqxZ6IH9XFIxWhVw2A9Cyw4SKG6JKngZxIf5wEZjne
IV5HU0xjq9kCAwEAAaN8MHowCQYDVR0TBAIwADAdBgNVHQ4EFgQU8Oymy3Ed/qIo
wzOquJXMwFUKaWIwHwYDVR0jBBgwFoAUON9GKTiyE4ulfIBLXqok2yXc7O4wDgYD
VR0PAQH/BAQDAgXgMB0GA1UdJQQWMBQGCCsGAQUFBwMCBggrBgEFBQcDBDANBgkq
hkiG9w0BAQsFAAOBgQAxS3e/eOAsAHApyhDGq3hD8rsub1qaJs07X52XUZr28/KG
ikJa6SkpkptNvpH8+a10RkqrmV9LQj8jeutzj4ZjiPzRJhYNKpzTBFgyEhGeh8+w
rHEXL7JLVOGttdf+Nt2SaS2apjwrF2TK3SxH6cJ0H2AXN8b/HKwlIRhVPRsk1g==
-----END CERTIFICATE-----
