Certificate:
    Data:
        Version: 3 (0x2)
        Serial Number: 5 (0x5)
    Signature Algorithm: sha256WithRSAEncryption
        Issuer: C=FR, ST=bourgogne, L=dijon, O=eole, OU=ci, CN=ACEoleCI
        Validity
            Not Before: Mar 17 14:35:30 2016 GMT
            Not After : Jun  3 14:35:30 2024 GMT
        Subject: CN=dc2.ac-test.lan
        Subject Public Key Info:
            Public Key Algorithm: rsaEncryption
                Public-Key: (1024 bit)
                Modulus:
                    00:c9:b5:23:4d:ce:11:6e:ff:fb:29:23:fe:34:c6:
                    e8:27:90:0e:7f:09:c3:99:48:d7:fe:83:32:83:15:
                    ae:62:2a:f8:eb:d4:03:d1:fb:75:9a:88:f4:16:06:
                    2d:c6:2c:c8:00:44:29:93:75:ff:c4:73:3c:5a:f9:
                    5b:ad:88:7a:2f:1a:4e:c6:d4:20:86:11:53:42:ab:
                    cc:4d:c8:a3:c2:36:22:bc:25:4b:1a:79:16:17:73:
                    f2:06:1d:e5:5e:54:f2:62:49:29:d7:fc:5f:a7:30:
                    ee:10:37:c9:6c:12:eb:45:b5:56:98:1d:0c:47:43:
                    2c:ed:23:96:91:f0:e3:51:bf
                Exponent: 65537 (0x10001)
        X509v3 extensions:
            X509v3 Basic Constraints: 
                CA:FALSE
            X509v3 Subject Key Identifier: 
                9C:C5:C6:AE:52:2A:5F:6A:84:D4:73:F4:8E:1D:26:1C:18:CC:D9:21
            X509v3 Authority Key Identifier: 
                keyid:38:DF:46:29:38:B2:13:8B:A5:7C:80:4B:5E:AA:24:DB:25:DC:EC:EE

            X509v3 Key Usage: critical
                Digital Signature, Non Repudiation, Key Encipherment
            X509v3 Extended Key Usage: 
                TLS Web Client Authentication, E-mail Protection
    Signature Algorithm: sha256WithRSAEncryption
         6a:1d:e0:e5:ee:d5:e5:f5:fc:2b:ca:50:2b:aa:7b:5e:6e:33:
         78:23:32:ed:8b:af:bf:0d:6c:b3:da:61:9f:36:f4:d6:e1:0b:
         bb:4f:8a:c8:59:ce:35:bf:9a:7d:93:b6:f2:f2:15:00:f2:5d:
         ba:db:fb:07:07:ca:81:c5:a0:1d:fa:d2:9e:5c:5c:e2:79:f6:
         80:58:10:90:91:9a:37:06:63:07:d0:89:6d:a3:9b:e7:d6:04:
         69:58:df:82:9c:5d:25:fd:dc:92:5f:34:8b:57:2c:de:d2:49:
         97:a4:98:ff:06:a2:59:09:21:7e:17:ff:1a:3e:ba:49:e5:69:
         9b:4d
-----BEGIN CERTIFICATE-----
MIICbDCCAdWgAwIBAgIBBTANBgkqhkiG9w0BAQsFADBgMQswCQYDVQQGEwJGUjES
MBAGA1UECAwJYm91cmdvZ25lMQ4wDAYDVQQHDAVkaWpvbjENMAsGA1UECgwEZW9s
ZTELMAkGA1UECwwCY2kxETAPBgNVBAMMCEFDRW9sZUNJMB4XDTE2MDMxNzE0MzUz
MFoXDTI0MDYwMzE0MzUzMFowGjEYMBYGA1UEAwwPZGMyLmFjLXRlc3QubGFuMIGf
MA0GCSqGSIb3DQEBAQUAA4GNADCBiQKBgQDJtSNNzhFu//spI/40xugnkA5/CcOZ
SNf+gzKDFa5iKvjr1APR+3WaiPQWBi3GLMgARCmTdf/Eczxa+VutiHovGk7G1CCG
EVNCq8xNyKPCNiK8JUsaeRYXc/IGHeVeVPJiSSnX/F+nMO4QN8lsEutFtVaYHQxH
QyztI5aR8ONRvwIDAQABo3wwejAJBgNVHRMEAjAAMB0GA1UdDgQWBBScxcauUipf
aoTUc/SOHSYcGMzZITAfBgNVHSMEGDAWgBQ430YpOLITi6V8gEteqiTbJdzs7jAO
BgNVHQ8BAf8EBAMCBeAwHQYDVR0lBBYwFAYIKwYBBQUHAwIGCCsGAQUFBwMEMA0G
CSqGSIb3DQEBCwUAA4GBAGod4OXu1eX1/CvKUCuqe15uM3gjMu2Lr78NbLPaYZ82
9NbhC7tPishZzjW/mn2TtvLyFQDyXbrb+wcHyoHFoB360p5cXOJ59oBYEJCRmjcG
YwfQiW2jm+fWBGlY34KcXSX93JJfNItXLN7SSZekmP8GolkJIX4X/xo+uknlaZtN
-----END CERTIFICATE-----
