-----BEGIN RSA PRIVATE KEY-----
MIICXQIBAAKBgQDHYRPe9SbOQgU2bA8MGFAGpvFWk+mOKy46KlZv+1mAWxoOeMLf
s2L1bBtwj6eX/ZT9FrduoqvGOUlw5TGBwZGBfTl/3zpw+PzOWT9FcLdWlWqND7Au
9uHXorP5NU31MlC/t1M8jNpCQ6nB7KCc3U2N5DAFO3CXyXQEIydGv7eUawIDAQAB
AoGATcvPWRwHPEv+hLG9XVbPQwk4+jNU2qh2rTN/7soArljd3e+4+ligsGqyekVT
e7byv55xjLXkmMAZq/eCTcMd5tuZ2MqO0wfSJu7zn+MjeN7ByQILToBwiWHDCtl4
qVYs2m/Nk8j7bo3KBV9Ev7Ka5/i3LBMaxlkajbjHCD91WQECQQD6gOIIz0Lfp9he
l7cOR4eHXlexp19/bjOsubbzj5GvkVFMdwf0uM/23/GRj1mQb5mFBmtJySZpF63x
MxxvlG6LAkEAy8EFlkW5JQNIstSTuQSSST7yQXCjdgUPshld4cN8eDwAXtjOS/ml
yLfXtfxUkMuWtovw5XPFlvit8BL9HmMNoQJBAIQE5psz+A99GtgHZw8cfX3HJ7pV
9ktnXc569cN495Oqp0kANm4v9FIshdhrzw0C88qarnJtk1OxihdjE2putK8CQQCS
HDR5cj42QIidVLsp7hFI3Q6zxqYxN6ftuysLfjd/sOdDHI2zBa7QpKTXJ78sphHJ
jciNgdurS2DPy44fgECBAkBwzsLsdI81PXOXOkh5mHE++2PQVh/yHUVVBBuu/GZI
4wlVNmvuvCWt4C5R5y6XjsQ9jDUECwJLL81fJWvZAQ/v
-----END RSA PRIVATE KEY-----
Certificate:
    Data:
        Version: 3 (0x2)
        Serial Number: 174 (0xae)
    Signature Algorithm: sha256WithRSAEncryption
        Issuer: C=FR, ST=bourgogne, L=dijon, O=eole, OU=ci, CN=ACEoleCI
        Validity
            Not Before: Mar 17 14:36:14 2016 GMT
            Not After : Jun  3 14:36:14 2024 GMT
        Subject: CN=pcprofs.etb3.lan
        Subject Public Key Info:
            Public Key Algorithm: rsaEncryption
                Public-Key: (1024 bit)
                Modulus:
                    00:c7:61:13:de:f5:26:ce:42:05:36:6c:0f:0c:18:
                    50:06:a6:f1:56:93:e9:8e:2b:2e:3a:2a:56:6f:fb:
                    59:80:5b:1a:0e:78:c2:df:b3:62:f5:6c:1b:70:8f:
                    a7:97:fd:94:fd:16:b7:6e:a2:ab:c6:39:49:70:e5:
                    31:81:c1:91:81:7d:39:7f:df:3a:70:f8:fc:ce:59:
                    3f:45:70:b7:56:95:6a:8d:0f:b0:2e:f6:e1:d7:a2:
                    b3:f9:35:4d:f5:32:50:bf:b7:53:3c:8c:da:42:43:
                    a9:c1:ec:a0:9c:dd:4d:8d:e4:30:05:3b:70:97:c9:
                    74:04:23:27:46:bf:b7:94:6b
                Exponent: 65537 (0x10001)
        X509v3 extensions:
            X509v3 Basic Constraints: 
                CA:FALSE
            X509v3 Subject Key Identifier: 
                67:43:2C:C5:5A:BE:24:58:B0:09:DA:BB:F9:33:E3:E2:4F:EE:07:12
            X509v3 Authority Key Identifier: 
                keyid:38:DF:46:29:38:B2:13:8B:A5:7C:80:4B:5E:AA:24:DB:25:DC:EC:EE
                DirName:/C=FR/ST=bourgogne/L=dijon/O=eole/OU=ci/CN=ACEoleCI
                serial:81:5A:FE:E5:BA:70:38:01

            X509v3 Key Usage: critical
                Digital Signature, Key Encipherment
    Signature Algorithm: sha256WithRSAEncryption
         5e:a1:06:03:50:62:c0:f9:ae:ed:20:9d:ed:a0:39:19:91:93:
         b3:8c:7a:49:86:b6:4b:b2:4a:a2:dd:60:85:d6:7c:27:74:4b:
         9e:71:92:92:19:5a:61:93:20:b1:37:b6:75:7f:51:6f:37:54:
         cb:c5:41:36:e3:75:1a:c9:d4:cc:47:c8:92:46:87:2a:66:ae:
         c4:9c:ff:6d:8f:c0:41:f5:45:77:99:92:bd:14:b2:a9:c2:6f:
         41:9a:25:60:d2:88:ce:da:72:4b:31:7e:2d:2e:bc:a8:1e:14:
         96:69:db:72:0d:f5:92:f1:e4:69:c0:1d:3f:1b:e5:55:b9:90:
         a2:63
-----BEGIN CERTIFICATE-----
MIICxTCCAi6gAwIBAgICAK4wDQYJKoZIhvcNAQELBQAwYDELMAkGA1UEBhMCRlIx
EjAQBgNVBAgMCWJvdXJnb2duZTEOMAwGA1UEBwwFZGlqb24xDTALBgNVBAoMBGVv
bGUxCzAJBgNVBAsMAmNpMREwDwYDVQQDDAhBQ0VvbGVDSTAeFw0xNjAzMTcxNDM2
MTRaFw0yNDA2MDMxNDM2MTRaMBsxGTAXBgNVBAMMEHBjcHJvZnMuZXRiMy5sYW4w
gZ8wDQYJKoZIhvcNAQEBBQADgY0AMIGJAoGBAMdhE971Js5CBTZsDwwYUAam8VaT
6Y4rLjoqVm/7WYBbGg54wt+zYvVsG3CPp5f9lP0Wt26iq8Y5SXDlMYHBkYF9OX/f
OnD4/M5ZP0Vwt1aVao0PsC724deis/k1TfUyUL+3UzyM2kJDqcHsoJzdTY3kMAU7
cJfJdAQjJ0a/t5RrAgMBAAGjgdIwgc8wCQYDVR0TBAIwADAdBgNVHQ4EFgQUZ0Ms
xVq+JFiwCdq7+TPj4k/uBxIwgZIGA1UdIwSBijCBh4AUON9GKTiyE4ulfIBLXqok
2yXc7O6hZKRiMGAxCzAJBgNVBAYTAkZSMRIwEAYDVQQIDAlib3VyZ29nbmUxDjAM
BgNVBAcMBWRpam9uMQ0wCwYDVQQKDARlb2xlMQswCQYDVQQLDAJjaTERMA8GA1UE
AwwIQUNFb2xlQ0mCCQCBWv7lunA4ATAOBgNVHQ8BAf8EBAMCBaAwDQYJKoZIhvcN
AQELBQADgYEAXqEGA1BiwPmu7SCd7aA5GZGTs4x6SYa2S7JKot1ghdZ8J3RLnnGS
khlaYZMgsTe2dX9RbzdUy8VBNuN1GsnUzEfIkkaHKmauxJz/bY/AQfVFd5mSvRSy
qcJvQZolYNKIztpySzF+LS68qB4Ulmnbcg31kvHkacAdPxvlVbmQomM=
-----END CERTIFICATE-----
