Certificate:
    Data:
        Version: 3 (0x2)
        Serial Number: 85 (0x55)
    Signature Algorithm: sha256WithRSAEncryption
        Issuer: C=FR, ST=bourgogne, L=dijon, O=eole, OU=ci, CN=ACEoleCI
        Validity
            Not Before: Mar 17 14:35:51 2016 GMT
            Not After : Jun  3 14:35:51 2024 GMT
        Subject: CN=eclair.etb1.lan
        Subject Public Key Info:
            Public Key Algorithm: rsaEncryption
                Public-Key: (1024 bit)
                Modulus:
                    00:c9:47:68:d8:23:aa:1e:f0:ff:e4:c7:93:e9:d0:
                    cb:56:8c:69:16:c3:1c:5d:8e:ed:4c:4e:ed:20:e9:
                    f0:f6:c4:8a:93:2c:09:45:35:a9:91:db:c4:15:55:
                    38:0d:af:38:60:a8:55:9d:5d:91:21:0c:f8:52:9b:
                    de:b2:3b:f6:be:a0:44:96:89:f7:4c:a4:3f:0d:bf:
                    d1:da:a7:94:89:3c:4d:f3:0c:42:0b:5b:e6:f5:66:
                    29:7c:a2:08:77:f0:05:58:10:9b:dc:74:d5:2f:29:
                    75:3b:52:2e:ab:a8:87:3a:a1:76:36:be:e5:38:31:
                    ec:1a:91:15:30:e6:d7:8a:1d
                Exponent: 65537 (0x10001)
        X509v3 extensions:
            X509v3 Basic Constraints: 
                CA:FALSE
            X509v3 Subject Key Identifier: 
                A8:E0:2B:22:EA:B6:38:AD:50:7A:C0:B0:46:58:16:84:59:9B:B2:74
            X509v3 Authority Key Identifier: 
                keyid:38:DF:46:29:38:B2:13:8B:A5:7C:80:4B:5E:AA:24:DB:25:DC:EC:EE
                DirName:/C=FR/ST=bourgogne/L=dijon/O=eole/OU=ci/CN=ACEoleCI
                serial:81:5A:FE:E5:BA:70:38:01

            X509v3 Key Usage: critical
                Digital Signature, Key Encipherment
            X509v3 Extended Key Usage: 
                TLS Web Server Authentication
    Signature Algorithm: sha256WithRSAEncryption
         30:7c:b6:1d:e8:9b:b5:9d:44:59:ff:e2:f3:14:55:8f:f4:ad:
         ac:35:2d:ab:5b:98:4b:fa:ab:eb:06:2a:96:9a:ec:ec:cb:5b:
         db:8c:e3:eb:8a:29:0d:99:e1:86:f8:bd:39:b1:c3:df:bf:9d:
         6b:95:b6:f2:42:e4:8b:3f:2d:14:d6:c9:e3:bd:a2:02:84:c4:
         56:2e:54:19:6b:59:d7:8a:e7:e4:6d:1d:0d:dc:60:03:aa:cc:
         5a:11:50:f0:39:a4:a8:e7:dd:04:23:a5:82:83:8b:07:f5:f6:
         db:08:2e:c2:43:e1:4c:91:e6:69:98:da:07:0a:50:8a:2f:96:
         2b:c6
-----BEGIN CERTIFICATE-----
MIIC2DCCAkGgAwIBAgIBVTANBgkqhkiG9w0BAQsFADBgMQswCQYDVQQGEwJGUjES
MBAGA1UECAwJYm91cmdvZ25lMQ4wDAYDVQQHDAVkaWpvbjENMAsGA1UECgwEZW9s
ZTELMAkGA1UECwwCY2kxETAPBgNVBAMMCEFDRW9sZUNJMB4XDTE2MDMxNzE0MzU1
MVoXDTI0MDYwMzE0MzU1MVowGjEYMBYGA1UEAwwPZWNsYWlyLmV0YjEubGFuMIGf
MA0GCSqGSIb3DQEBAQUAA4GNADCBiQKBgQDJR2jYI6oe8P/kx5Pp0MtWjGkWwxxd
ju1MTu0g6fD2xIqTLAlFNamR28QVVTgNrzhgqFWdXZEhDPhSm96yO/a+oESWifdM
pD8Nv9Hap5SJPE3zDEILW+b1Zil8ogh38AVYEJvcdNUvKXU7Ui6rqIc6oXY2vuU4
MewakRUw5teKHQIDAQABo4HnMIHkMAkGA1UdEwQCMAAwHQYDVR0OBBYEFKjgKyLq
tjitUHrAsEZYFoRZm7J0MIGSBgNVHSMEgYowgYeAFDjfRik4shOLpXyAS16qJNsl
3OzuoWSkYjBgMQswCQYDVQQGEwJGUjESMBAGA1UECAwJYm91cmdvZ25lMQ4wDAYD
VQQHDAVkaWpvbjENMAsGA1UECgwEZW9sZTELMAkGA1UECwwCY2kxETAPBgNVBAMM
CEFDRW9sZUNJggkAgVr+5bpwOAEwDgYDVR0PAQH/BAQDAgWgMBMGA1UdJQQMMAoG
CCsGAQUFBwMBMA0GCSqGSIb3DQEBCwUAA4GBADB8th3om7WdRFn/4vMUVY/0raw1
LatbmEv6q+sGKpaa7OzLW9uM4+uKKQ2Z4Yb4vTmxw9+/nWuVtvJC5Is/LRTWyeO9
ogKExFYuVBlrWdeK5+RtHQ3cYAOqzFoRUPA5pKjn3QQjpYKDiwf19tsILsJD4UyR
5mmY2gcKUIovlivG
-----END CERTIFICATE-----
