-----BEGIN RSA PRIVATE KEY-----
MIICXQIBAAKBgQDJR2jYI6oe8P/kx5Pp0MtWjGkWwxxdju1MTu0g6fD2xIqTLAlF
NamR28QVVTgNrzhgqFWdXZEhDPhSm96yO/a+oESWifdMpD8Nv9Hap5SJPE3zDEIL
W+b1Zil8ogh38AVYEJvcdNUvKXU7Ui6rqIc6oXY2vuU4MewakRUw5teKHQIDAQAB
AoGAUQpacWPytCCOt3uP132E0WUZTtviCN1qN+YzXaQzq/e4X8dEOESB8MNOcNRu
DDx3c5tzVTf+HhONzB0MDjFMh/78lhxgaJtd9CixiztCwxaTOZTBLz6hJgRzfIt5
SpuAe+TY0XULNnm6rxx8uDVcUHbDDRQD/Mxw/jZ5rIyzvQECQQDw1S6xLQf9JVd0
pjyuH8hJlp6hRCcr8M3OqfyFbb0lkEcwIml0a97uq5Gj0GCNHkzOGRcSNoRZat3u
7mih8FjdAkEA1fSFuoP/ov28od46G0bDl+oY9MS/gcDO5IFw2e0HXmX50oG2UEx8
Bh2LsP1MW5nsrhqjoxY2VvqUd+47BwhCQQJAT0lf/eSdZLIOgNDZ2VmNTuzPfLg7
TTQSDZ/ZCvR9+Qfu5+HsZe+9jUXexNetccgv8QpBljVsjSOpvSewOuAt4QJBAL+H
wh8SA0q5sp+E/KdmVbosymJzrqxNGejdJ1UvJyWOTHHxxG9lyLEAygiK+EwYIxRI
rKxWOhbrAvXJwfWtowECQQDM7kN6CIq+5ffNqsJg7GI5GYNhEphP/1oWuyWC65CN
zOF+QyHlnnyJ5pbt89X2Q0d8A1DLu3bZ4mO6xCkp+lyW
-----END RSA PRIVATE KEY-----
Certificate:
    Data:
        Version: 3 (0x2)
        Serial Number: 87 (0x57)
    Signature Algorithm: sha256WithRSAEncryption
        Issuer: C=FR, ST=bourgogne, L=dijon, O=eole, OU=ci, CN=ACEoleCI
        Validity
            Not Before: Mar 17 14:35:51 2016 GMT
            Not After : Jun  3 14:35:51 2024 GMT
        Subject: CN=eclair.etb1.lan
        Subject Public Key Info:
            Public Key Algorithm: rsaEncryption
                Public-Key: (1024 bit)
                Modulus:
                    00:c9:47:68:d8:23:aa:1e:f0:ff:e4:c7:93:e9:d0:
                    cb:56:8c:69:16:c3:1c:5d:8e:ed:4c:4e:ed:20:e9:
                    f0:f6:c4:8a:93:2c:09:45:35:a9:91:db:c4:15:55:
                    38:0d:af:38:60:a8:55:9d:5d:91:21:0c:f8:52:9b:
                    de:b2:3b:f6:be:a0:44:96:89:f7:4c:a4:3f:0d:bf:
                    d1:da:a7:94:89:3c:4d:f3:0c:42:0b:5b:e6:f5:66:
                    29:7c:a2:08:77:f0:05:58:10:9b:dc:74:d5:2f:29:
                    75:3b:52:2e:ab:a8:87:3a:a1:76:36:be:e5:38:31:
                    ec:1a:91:15:30:e6:d7:8a:1d
                Exponent: 65537 (0x10001)
        X509v3 extensions:
            X509v3 Basic Constraints: 
                CA:FALSE
            X509v3 Subject Key Identifier: 
                A8:E0:2B:22:EA:B6:38:AD:50:7A:C0:B0:46:58:16:84:59:9B:B2:74
            X509v3 Authority Key Identifier: 
                keyid:38:DF:46:29:38:B2:13:8B:A5:7C:80:4B:5E:AA:24:DB:25:DC:EC:EE
                DirName:/C=FR/ST=bourgogne/L=dijon/O=eole/OU=ci/CN=ACEoleCI
                serial:81:5A:FE:E5:BA:70:38:01

            X509v3 Key Usage: critical
                Digital Signature, Key Encipherment
    Signature Algorithm: sha256WithRSAEncryption
         84:88:6b:63:7f:9f:63:f5:91:3d:f6:68:ff:5d:cb:86:79:b1:
         7b:f0:60:48:93:01:a7:b2:94:79:93:84:90:45:21:be:19:4c:
         14:77:ba:4f:3c:5c:d7:1a:cd:f6:5d:5e:9e:75:ed:e0:f0:0d:
         48:ee:2f:a5:a6:b2:77:e0:51:5b:cf:e3:69:19:e4:73:2e:87:
         8f:97:1b:c6:76:59:14:e2:1b:8a:c0:79:21:0e:56:4e:d3:36:
         02:5b:4c:1a:80:ec:73:8c:ba:1f:31:2a:36:10:11:6f:a6:0f:
         24:14:28:eb:49:b8:e8:19:79:7e:08:7f:dd:38:f3:4d:d1:76:
         de:ed
-----BEGIN CERTIFICATE-----
MIICwzCCAiygAwIBAgIBVzANBgkqhkiG9w0BAQsFADBgMQswCQYDVQQGEwJGUjES
MBAGA1UECAwJYm91cmdvZ25lMQ4wDAYDVQQHDAVkaWpvbjENMAsGA1UECgwEZW9s
ZTELMAkGA1UECwwCY2kxETAPBgNVBAMMCEFDRW9sZUNJMB4XDTE2MDMxNzE0MzU1
MVoXDTI0MDYwMzE0MzU1MVowGjEYMBYGA1UEAwwPZWNsYWlyLmV0YjEubGFuMIGf
MA0GCSqGSIb3DQEBAQUAA4GNADCBiQKBgQDJR2jYI6oe8P/kx5Pp0MtWjGkWwxxd
ju1MTu0g6fD2xIqTLAlFNamR28QVVTgNrzhgqFWdXZEhDPhSm96yO/a+oESWifdM
pD8Nv9Hap5SJPE3zDEILW+b1Zil8ogh38AVYEJvcdNUvKXU7Ui6rqIc6oXY2vuU4
MewakRUw5teKHQIDAQABo4HSMIHPMAkGA1UdEwQCMAAwHQYDVR0OBBYEFKjgKyLq
tjitUHrAsEZYFoRZm7J0MIGSBgNVHSMEgYowgYeAFDjfRik4shOLpXyAS16qJNsl
3OzuoWSkYjBgMQswCQYDVQQGEwJGUjESMBAGA1UECAwJYm91cmdvZ25lMQ4wDAYD
VQQHDAVkaWpvbjENMAsGA1UECgwEZW9sZTELMAkGA1UECwwCY2kxETAPBgNVBAMM
CEFDRW9sZUNJggkAgVr+5bpwOAEwDgYDVR0PAQH/BAQDAgWgMA0GCSqGSIb3DQEB
CwUAA4GBAISIa2N/n2P1kT32aP9dy4Z5sXvwYEiTAaeylHmThJBFIb4ZTBR3uk88
XNcazfZdXp517eDwDUjuL6WmsnfgUVvP42kZ5HMuh4+XG8Z2WRTiG4rAeSEOVk7T
NgJbTBqA7HOMuh8xKjYQEW+mDyQUKOtJuOgZeX4If904803Rdt7t
-----END CERTIFICATE-----
