Certificate:
    Data:
        Version: 3 (0x2)
        Serial Number: 42 (0x2a)
    Signature Algorithm: sha256WithRSAEncryption
        Issuer: C=FR, ST=bourgogne, L=dijon, O=eole, OU=ci, CN=ACEoleCI
        Validity
            Not Before: Mar 17 14:35:39 2016 GMT
            Not After : Jun  3 14:35:39 2024 GMT
        Subject: CN=hapy-node.ac-test.lan
        Subject Public Key Info:
            Public Key Algorithm: rsaEncryption
                Public-Key: (1024 bit)
                Modulus:
                    00:d3:1f:2f:53:8c:e6:9a:4e:75:66:a1:b6:2a:65:
                    73:d1:87:97:14:b1:17:51:0f:4e:05:b0:79:25:db:
                    98:e2:a2:b2:fc:e3:d7:c7:49:f7:96:89:82:70:92:
                    b6:90:27:0c:33:66:c6:16:6e:8e:7f:bf:bd:c0:fd:
                    3c:0c:4a:bd:7d:48:7f:26:57:9e:81:a8:0e:9e:bf:
                    cb:ce:90:47:ed:b6:49:1b:f6:cb:7b:89:23:1b:37:
                    d3:42:cb:23:8a:5c:d4:83:ba:5c:a2:89:dc:3c:b6:
                    3d:d9:48:a8:b2:22:37:14:cc:88:08:c5:c5:f0:d2:
                    e4:44:69:7f:c5:d7:02:43:83
                Exponent: 65537 (0x10001)
        X509v3 extensions:
            X509v3 Basic Constraints: 
                CA:FALSE
            X509v3 Subject Key Identifier: 
                29:7F:53:D6:A6:60:25:D6:E7:65:39:94:0D:FE:FD:D8:17:BA:DB:A8
            X509v3 Authority Key Identifier: 
                keyid:38:DF:46:29:38:B2:13:8B:A5:7C:80:4B:5E:AA:24:DB:25:DC:EC:EE
                DirName:/C=FR/ST=bourgogne/L=dijon/O=eole/OU=ci/CN=ACEoleCI
                serial:81:5A:FE:E5:BA:70:38:01

            X509v3 Key Usage: critical
                Digital Signature, Key Encipherment
    Signature Algorithm: sha256WithRSAEncryption
         07:c5:d5:b0:d9:be:f1:40:86:df:1a:30:00:cd:3b:37:79:54:
         08:33:87:71:25:1a:3b:e7:5c:97:69:39:3d:70:bb:e9:12:b9:
         b3:1a:59:05:93:8d:24:8b:e3:f1:af:e5:18:31:94:f8:ae:f0:
         d0:37:c3:8b:60:26:6c:61:89:36:89:71:03:0a:6d:9a:ae:a3:
         93:10:86:60:96:89:28:7d:d2:ac:2f:fb:ab:0f:8a:f4:23:12:
         af:4e:a9:8e:8b:cb:0a:e6:83:b8:c4:69:16:a6:a6:4c:68:b2:
         29:10:15:06:45:45:69:a1:8f:1f:e2:67:00:84:98:67:15:4e:
         36:ad
-----BEGIN CERTIFICATE-----
MIICyTCCAjKgAwIBAgIBKjANBgkqhkiG9w0BAQsFADBgMQswCQYDVQQGEwJGUjES
MBAGA1UECAwJYm91cmdvZ25lMQ4wDAYDVQQHDAVkaWpvbjENMAsGA1UECgwEZW9s
ZTELMAkGA1UECwwCY2kxETAPBgNVBAMMCEFDRW9sZUNJMB4XDTE2MDMxNzE0MzUz
OVoXDTI0MDYwMzE0MzUzOVowIDEeMBwGA1UEAwwVaGFweS1ub2RlLmFjLXRlc3Qu
bGFuMIGfMA0GCSqGSIb3DQEBAQUAA4GNADCBiQKBgQDTHy9TjOaaTnVmobYqZXPR
h5cUsRdRD04FsHkl25jiorL849fHSfeWiYJwkraQJwwzZsYWbo5/v73A/TwMSr19
SH8mV56BqA6ev8vOkEfttkkb9st7iSMbN9NCyyOKXNSDulyiidw8tj3ZSKiyIjcU
zIgIxcXw0uREaX/F1wJDgwIDAQABo4HSMIHPMAkGA1UdEwQCMAAwHQYDVR0OBBYE
FCl/U9amYCXW52U5lA3+/dgXutuoMIGSBgNVHSMEgYowgYeAFDjfRik4shOLpXyA
S16qJNsl3OzuoWSkYjBgMQswCQYDVQQGEwJGUjESMBAGA1UECAwJYm91cmdvZ25l
MQ4wDAYDVQQHDAVkaWpvbjENMAsGA1UECgwEZW9sZTELMAkGA1UECwwCY2kxETAP
BgNVBAMMCEFDRW9sZUNJggkAgVr+5bpwOAEwDgYDVR0PAQH/BAQDAgWgMA0GCSqG
SIb3DQEBCwUAA4GBAAfF1bDZvvFAht8aMADNOzd5VAgzh3ElGjvnXJdpOT1wu+kS
ubMaWQWTjSSL4/Gv5RgxlPiu8NA3w4tgJmxhiTaJcQMKbZquo5MQhmCWiSh90qwv
+6sPivQjEq9OqY6Lywrmg7jEaRampkxosikQFQZFRWmhjx/iZwCEmGcVTjat
-----END CERTIFICATE-----
