-----BEGIN RSA PRIVATE KEY-----
MIICXAIBAAKBgQDTHy9TjOaaTnVmobYqZXPRh5cUsRdRD04FsHkl25jiorL849fH
SfeWiYJwkraQJwwzZsYWbo5/v73A/TwMSr19SH8mV56BqA6ev8vOkEfttkkb9st7
iSMbN9NCyyOKXNSDulyiidw8tj3ZSKiyIjcUzIgIxcXw0uREaX/F1wJDgwIDAQAB
AoGBALB9B1EvHq+sGxSa5u/2M6XbVX8ks7s9shmrdvsg4mPDYyFpTr74pJMhjPuS
ii9jlR17MukZruI4ZeZpS8Nyz4fguF/985Rhr/CbBWot5R4k+RuzScb8WhR7S/FT
uoQYpgoBPqEKNXnYt/ryjZobMPeDTftYDolnoEDzthCqS6WhAkEA9i/nIqo5yzBB
i2sEzl4IUd/cc+P+Dk2EffKou57++jkO10DUREzXSiyPgQtLoNdvYxsNXXtBpUCS
AZfx/DKayQJBANuJeZ+uaZzVAgafZaSSfOQVNevKbK0UcUD0XVETq8CczwI53AFw
UB0UoEddV/XLVJwZX+YcMXQAwZen9X8mResCQADth0p7J8KbSPP0kE0Sz6c3V8Zc
Cp4VLrWmz3n9jGp3ApZPGT20qG8QIe5Tk5JknXfbJz698y5jQumcn/3aVvkCQH8/
BbHaQ/jVNeFkzmM/TQheiuxqXedMLAC8IsJ1pl10BkCCDNUApk7Uv7ndjrg27Im1
43Ha8YcNUSh3/8F9C5UCQGOc1shqiNgmq9mI26VifYiIPsgKjY3HwVjtIucSUgS2
eo/lumrj50xsk7Vo+6Uaiz3bxBK95mZMs/n++BUqfmk=
-----END RSA PRIVATE KEY-----
Certificate:
    Data:
        Version: 3 (0x2)
        Serial Number: 40 (0x28)
    Signature Algorithm: sha256WithRSAEncryption
        Issuer: C=FR, ST=bourgogne, L=dijon, O=eole, OU=ci, CN=ACEoleCI
        Validity
            Not Before: Mar 17 14:35:39 2016 GMT
            Not After : Jun  3 14:35:39 2024 GMT
        Subject: CN=hapy-node.ac-test.lan
        Subject Public Key Info:
            Public Key Algorithm: rsaEncryption
                Public-Key: (1024 bit)
                Modulus:
                    00:d3:1f:2f:53:8c:e6:9a:4e:75:66:a1:b6:2a:65:
                    73:d1:87:97:14:b1:17:51:0f:4e:05:b0:79:25:db:
                    98:e2:a2:b2:fc:e3:d7:c7:49:f7:96:89:82:70:92:
                    b6:90:27:0c:33:66:c6:16:6e:8e:7f:bf:bd:c0:fd:
                    3c:0c:4a:bd:7d:48:7f:26:57:9e:81:a8:0e:9e:bf:
                    cb:ce:90:47:ed:b6:49:1b:f6:cb:7b:89:23:1b:37:
                    d3:42:cb:23:8a:5c:d4:83:ba:5c:a2:89:dc:3c:b6:
                    3d:d9:48:a8:b2:22:37:14:cc:88:08:c5:c5:f0:d2:
                    e4:44:69:7f:c5:d7:02:43:83
                Exponent: 65537 (0x10001)
        X509v3 extensions:
            X509v3 Basic Constraints: 
                CA:FALSE
            X509v3 Subject Key Identifier: 
                29:7F:53:D6:A6:60:25:D6:E7:65:39:94:0D:FE:FD:D8:17:BA:DB:A8
            X509v3 Authority Key Identifier: 
                keyid:38:DF:46:29:38:B2:13:8B:A5:7C:80:4B:5E:AA:24:DB:25:DC:EC:EE
                DirName:/C=FR/ST=bourgogne/L=dijon/O=eole/OU=ci/CN=ACEoleCI
                serial:81:5A:FE:E5:BA:70:38:01

            X509v3 Key Usage: critical
                Digital Signature, Key Encipherment
            X509v3 Extended Key Usage: 
                TLS Web Server Authentication
    Signature Algorithm: sha256WithRSAEncryption
         94:9d:8d:40:4a:2e:8a:d5:ce:6b:99:fa:61:1f:e0:74:0d:0d:
         ba:4b:cf:c3:79:02:3c:89:b6:c7:25:c9:19:92:76:29:e5:b3:
         ca:21:23:54:97:55:a1:ca:0a:2f:c7:c8:64:39:3f:39:3e:68:
         19:ac:a1:77:dd:8b:a6:86:51:0e:73:81:f5:00:20:f7:95:c0:
         53:ed:42:0b:b3:90:2d:0f:73:a5:23:15:f0:44:3e:02:8e:88:
         73:61:04:3e:27:06:6a:52:3e:54:71:70:61:bd:60:dc:0d:26:
         6d:18:c5:af:a4:9b:d3:64:76:00:64:16:f8:1d:ca:79:cb:73:
         86:04
-----BEGIN CERTIFICATE-----
MIIC3jCCAkegAwIBAgIBKDANBgkqhkiG9w0BAQsFADBgMQswCQYDVQQGEwJGUjES
MBAGA1UECAwJYm91cmdvZ25lMQ4wDAYDVQQHDAVkaWpvbjENMAsGA1UECgwEZW9s
ZTELMAkGA1UECwwCY2kxETAPBgNVBAMMCEFDRW9sZUNJMB4XDTE2MDMxNzE0MzUz
OVoXDTI0MDYwMzE0MzUzOVowIDEeMBwGA1UEAwwVaGFweS1ub2RlLmFjLXRlc3Qu
bGFuMIGfMA0GCSqGSIb3DQEBAQUAA4GNADCBiQKBgQDTHy9TjOaaTnVmobYqZXPR
h5cUsRdRD04FsHkl25jiorL849fHSfeWiYJwkraQJwwzZsYWbo5/v73A/TwMSr19
SH8mV56BqA6ev8vOkEfttkkb9st7iSMbN9NCyyOKXNSDulyiidw8tj3ZSKiyIjcU
zIgIxcXw0uREaX/F1wJDgwIDAQABo4HnMIHkMAkGA1UdEwQCMAAwHQYDVR0OBBYE
FCl/U9amYCXW52U5lA3+/dgXutuoMIGSBgNVHSMEgYowgYeAFDjfRik4shOLpXyA
S16qJNsl3OzuoWSkYjBgMQswCQYDVQQGEwJGUjESMBAGA1UECAwJYm91cmdvZ25l
MQ4wDAYDVQQHDAVkaWpvbjENMAsGA1UECgwEZW9sZTELMAkGA1UECwwCY2kxETAP
BgNVBAMMCEFDRW9sZUNJggkAgVr+5bpwOAEwDgYDVR0PAQH/BAQDAgWgMBMGA1Ud
JQQMMAoGCCsGAQUFBwMBMA0GCSqGSIb3DQEBCwUAA4GBAJSdjUBKLorVzmuZ+mEf
4HQNDbpLz8N5AjyJtsclyRmSdinls8ohI1SXVaHKCi/HyGQ5Pzk+aBmsoXfdi6aG
UQ5zgfUAIPeVwFPtQguzkC0Pc6UjFfBEPgKOiHNhBD4nBmpSPlRxcGG9YNwNJm0Y
xa+km9NkdgBkFvgdynnLc4YE
-----END CERTIFICATE-----
