Certificate:
    Data:
        Version: 3 (0x2)
        Serial Number: 149 (0x95)
    Signature Algorithm: sha256WithRSAEncryption
        Issuer: C=FR, ST=bourgogne, L=dijon, O=eole, OU=ci, CN=ACEoleCI
        Validity
            Not Before: Mar 17 14:36:09 2016 GMT
            Not After : Jun  3 14:36:09 2024 GMT
        Subject: CN=pcadmin.etb2.lan
        Subject Public Key Info:
            Public Key Algorithm: rsaEncryption
                Public-Key: (1024 bit)
                Modulus:
                    00:bb:8f:d3:68:e4:21:cf:72:c1:dd:1d:b8:b9:e1:
                    9d:92:3b:b0:38:8f:e0:35:0d:d7:0c:7d:78:19:db:
                    a6:dc:66:6f:03:c0:4b:28:f6:24:12:a0:69:51:19:
                    24:79:a0:aa:fe:c2:cc:f1:22:10:e0:ed:e1:1d:4d:
                    58:d8:f4:29:0f:04:50:4d:e1:18:bd:53:b0:3d:3a:
                    17:d9:88:1e:56:76:68:5b:5d:3e:e1:fa:46:97:3f:
                    1e:54:15:b9:62:e6:ee:e4:18:6a:e9:cc:be:ff:2f:
                    98:b0:45:e5:50:cf:7f:19:f7:43:41:7c:04:9a:b6:
                    73:2f:49:c6:24:0b:d7:6d:81
                Exponent: 65537 (0x10001)
        X509v3 extensions:
            X509v3 Basic Constraints: 
                CA:FALSE
            X509v3 Subject Key Identifier: 
                62:86:3B:89:4A:BA:6E:8F:E7:F0:17:BD:F0:AB:BD:42:54:D2:39:7A
            X509v3 Authority Key Identifier: 
                keyid:38:DF:46:29:38:B2:13:8B:A5:7C:80:4B:5E:AA:24:DB:25:DC:EC:EE

            X509v3 Key Usage: critical
                Digital Signature, Non Repudiation, Key Encipherment
            X509v3 Extended Key Usage: 
                TLS Web Client Authentication, E-mail Protection
    Signature Algorithm: sha256WithRSAEncryption
         10:b5:fc:e6:ca:2a:68:29:f7:22:e7:2a:e1:ce:12:17:0c:87:
         d3:14:ba:3c:4e:14:17:0e:17:35:2b:59:54:83:03:5a:81:5e:
         3b:28:7b:d7:fc:fa:5a:8c:76:d6:8a:1b:9c:0b:b2:11:f0:e4:
         92:09:57:73:c0:a2:82:09:e6:57:0b:e1:74:40:98:d4:ea:db:
         07:c6:ba:5c:83:55:10:f5:c5:0e:23:4a:71:04:d5:71:81:40:
         56:59:95:df:b9:eb:17:54:19:0f:ca:9f:eb:56:e5:4a:fa:ed:
         a8:1c:37:62:b5:6b:18:95:66:fc:59:4f:6e:a7:b1:8a:d3:90:
         f0:db
-----BEGIN CERTIFICATE-----
MIICbjCCAdegAwIBAgICAJUwDQYJKoZIhvcNAQELBQAwYDELMAkGA1UEBhMCRlIx
EjAQBgNVBAgMCWJvdXJnb2duZTEOMAwGA1UEBwwFZGlqb24xDTALBgNVBAoMBGVv
bGUxCzAJBgNVBAsMAmNpMREwDwYDVQQDDAhBQ0VvbGVDSTAeFw0xNjAzMTcxNDM2
MDlaFw0yNDA2MDMxNDM2MDlaMBsxGTAXBgNVBAMMEHBjYWRtaW4uZXRiMi5sYW4w
gZ8wDQYJKoZIhvcNAQEBBQADgY0AMIGJAoGBALuP02jkIc9ywd0duLnhnZI7sDiP
4DUN1wx9eBnbptxmbwPASyj2JBKgaVEZJHmgqv7CzPEiEODt4R1NWNj0KQ8EUE3h
GL1TsD06F9mIHlZ2aFtdPuH6Rpc/HlQVuWLm7uQYaunMvv8vmLBF5VDPfxn3Q0F8
BJq2cy9JxiQL122BAgMBAAGjfDB6MAkGA1UdEwQCMAAwHQYDVR0OBBYEFGKGO4lK
um6P5/AXvfCrvUJU0jl6MB8GA1UdIwQYMBaAFDjfRik4shOLpXyAS16qJNsl3Ozu
MA4GA1UdDwEB/wQEAwIF4DAdBgNVHSUEFjAUBggrBgEFBQcDAgYIKwYBBQUHAwQw
DQYJKoZIhvcNAQELBQADgYEAELX85soqaCn3Iucq4c4SFwyH0xS6PE4UFw4XNStZ
VIMDWoFeOyh71/z6Wox21oobnAuyEfDkkglXc8CiggnmVwvhdECY1OrbB8a6XINV
EPXFDiNKcQTVcYFAVlmV37nrF1QZD8qf61blSvrtqBw3YrVrGJVm/FlPbqexitOQ
8Ns=
-----END CERTIFICATE-----
