-----BEGIN RSA PRIVATE KEY-----
MIICXAIBAAKBgQC2LBVZ4SySNr4+sIFT/1vg5Glf01OME+kBCSrmBmbxUnV2Tk7T
fhvYL3JxwCsRmW9Q3VPlG4zJvt81poLFuU7Qohp1hQoxJl/tTV52HVs9wwX+oltG
ug061aw2XXlD1V9vLvvLKAqCKbNAnD+Ts/+HjlYxkdQErbaojjV6g9AgvwIDAQAB
AoGAA5di5F64DjneDkZUhl9mZEycdzMnVn+d/FM98UL3DJLflfF9RFYcHmrxCqUL
NFGeDC4Q1Vdxsxh8NgaOVW+Nyi6kJGPxMF2XSeYRTm0hhLu+3qHb4rehK1S3HCTI
a3SzgI7/wrV6TsTKRhN/TfmhhYPksCmcXahPyOzIxFgbVAECQQDYerKFYJD6H+tG
TWhCYYTVr6XMwk4nABWDn3rOx+sBJQqZ+R+wYoC05gsUMl27leg4Sdeqs6ae4OZz
hSgeBu0/AkEA124Fjs4F3Q/DJVd+tbxTOkuSjC6nCSqtROKOZvPgIuYhgrfUb4d2
JIumhJuU5LK1P2tyzz6hSsjVA152rsRsgQJBANEjwOLQh1/OhIuX7xjqg9254zFt
qvlMwHw4D/pD9EtX0OUuZCoREA00jhGGEz5ONlpjJKN7CodF+f4y764KvRsCQC5Y
cgOl2OcU5AOdjhnk2PbamT1lL/Qt5TbDkqUdZCO95ImtqJsRxl3YWUt/+Qk2VP2+
zOU+8Q4YpJLj+J5ijYECQGLUEG9ZwEi/7jvjOi/dk5Rzx6To9ecsw5arO3MasePZ
rvX8HnflXGfnV8ojwEiiEZ5zZA8zrOfoW1N740D8INU=
-----END RSA PRIVATE KEY-----
Certificate:
    Data:
        Version: 3 (0x2)
        Serial Number: 151 (0x97)
    Signature Algorithm: sha256WithRSAEncryption
        Issuer: C=FR, ST=bourgogne, L=dijon, O=eole, OU=ci, CN=ACEoleCI
        Validity
            Not Before: Mar 17 14:36:09 2016 GMT
            Not After : Jun  3 14:36:09 2024 GMT
        Subject: CN=pceleve.etb2.lan
        Subject Public Key Info:
            Public Key Algorithm: rsaEncryption
                Public-Key: (1024 bit)
                Modulus:
                    00:b6:2c:15:59:e1:2c:92:36:be:3e:b0:81:53:ff:
                    5b:e0:e4:69:5f:d3:53:8c:13:e9:01:09:2a:e6:06:
                    66:f1:52:75:76:4e:4e:d3:7e:1b:d8:2f:72:71:c0:
                    2b:11:99:6f:50:dd:53:e5:1b:8c:c9:be:df:35:a6:
                    82:c5:b9:4e:d0:a2:1a:75:85:0a:31:26:5f:ed:4d:
                    5e:76:1d:5b:3d:c3:05:fe:a2:5b:46:ba:0d:3a:d5:
                    ac:36:5d:79:43:d5:5f:6f:2e:fb:cb:28:0a:82:29:
                    b3:40:9c:3f:93:b3:ff:87:8e:56:31:91:d4:04:ad:
                    b6:a8:8e:35:7a:83:d0:20:bf
                Exponent: 65537 (0x10001)
        X509v3 extensions:
            X509v3 Basic Constraints: 
                CA:FALSE
            X509v3 Subject Key Identifier: 
                02:06:33:B8:14:F9:49:5F:94:2F:CE:10:F7:73:E6:7F:67:BA:57:D4
            X509v3 Authority Key Identifier: 
                keyid:38:DF:46:29:38:B2:13:8B:A5:7C:80:4B:5E:AA:24:DB:25:DC:EC:EE
                DirName:/C=FR/ST=bourgogne/L=dijon/O=eole/OU=ci/CN=ACEoleCI
                serial:81:5A:FE:E5:BA:70:38:01

            X509v3 Key Usage: critical
                Digital Signature, Key Encipherment
            X509v3 Extended Key Usage: 
                TLS Web Server Authentication
    Signature Algorithm: sha256WithRSAEncryption
         83:73:66:06:68:3b:e0:d0:b2:0d:6f:6b:e2:29:28:f6:26:2e:
         ad:8e:1c:24:49:46:54:41:7f:03:e9:86:25:d7:1e:e5:05:bd:
         a9:1e:16:60:8b:e0:49:ae:92:bd:62:a0:bb:52:ff:29:52:08:
         24:e8:2d:2c:83:d9:c1:c4:e0:fb:a6:47:3f:34:0a:cc:c3:78:
         af:31:89:0e:7f:36:2c:73:52:ca:b4:e2:4c:ad:6d:f7:dd:26:
         f1:96:3c:47:a2:09:de:d4:a3:4e:b2:d3:08:fb:37:40:ce:ee:
         ed:6b:74:61:1e:ab:d8:c7:e9:4c:19:98:9a:38:a5:97:1f:6d:
         d8:63
-----BEGIN CERTIFICATE-----
MIIC2jCCAkOgAwIBAgICAJcwDQYJKoZIhvcNAQELBQAwYDELMAkGA1UEBhMCRlIx
EjAQBgNVBAgMCWJvdXJnb2duZTEOMAwGA1UEBwwFZGlqb24xDTALBgNVBAoMBGVv
bGUxCzAJBgNVBAsMAmNpMREwDwYDVQQDDAhBQ0VvbGVDSTAeFw0xNjAzMTcxNDM2
MDlaFw0yNDA2MDMxNDM2MDlaMBsxGTAXBgNVBAMMEHBjZWxldmUuZXRiMi5sYW4w
gZ8wDQYJKoZIhvcNAQEBBQADgY0AMIGJAoGBALYsFVnhLJI2vj6wgVP/W+DkaV/T
U4wT6QEJKuYGZvFSdXZOTtN+G9gvcnHAKxGZb1DdU+UbjMm+3zWmgsW5TtCiGnWF
CjEmX+1NXnYdWz3DBf6iW0a6DTrVrDZdeUPVX28u+8soCoIps0CcP5Oz/4eOVjGR
1ASttqiONXqD0CC/AgMBAAGjgecwgeQwCQYDVR0TBAIwADAdBgNVHQ4EFgQUAgYz
uBT5SV+UL84Q93Pmf2e6V9QwgZIGA1UdIwSBijCBh4AUON9GKTiyE4ulfIBLXqok
2yXc7O6hZKRiMGAxCzAJBgNVBAYTAkZSMRIwEAYDVQQIDAlib3VyZ29nbmUxDjAM
BgNVBAcMBWRpam9uMQ0wCwYDVQQKDARlb2xlMQswCQYDVQQLDAJjaTERMA8GA1UE
AwwIQUNFb2xlQ0mCCQCBWv7lunA4ATAOBgNVHQ8BAf8EBAMCBaAwEwYDVR0lBAww
CgYIKwYBBQUHAwEwDQYJKoZIhvcNAQELBQADgYEAg3NmBmg74NCyDW9r4iko9iYu
rY4cJElGVEF/A+mGJdce5QW9qR4WYIvgSa6SvWKgu1L/KVIIJOgtLIPZwcTg+6ZH
PzQKzMN4rzGJDn82LHNSyrTiTK1t990m8ZY8R6IJ3tSjTrLTCPs3QM7u7Wt0YR6r
2MfpTBmYmjillx9t2GM=
-----END CERTIFICATE-----
