-----BEGIN RSA PRIVATE KEY-----
MIICXAIBAAKBgQC2LBVZ4SySNr4+sIFT/1vg5Glf01OME+kBCSrmBmbxUnV2Tk7T
fhvYL3JxwCsRmW9Q3VPlG4zJvt81poLFuU7Qohp1hQoxJl/tTV52HVs9wwX+oltG
ug061aw2XXlD1V9vLvvLKAqCKbNAnD+Ts/+HjlYxkdQErbaojjV6g9AgvwIDAQAB
AoGAA5di5F64DjneDkZUhl9mZEycdzMnVn+d/FM98UL3DJLflfF9RFYcHmrxCqUL
NFGeDC4Q1Vdxsxh8NgaOVW+Nyi6kJGPxMF2XSeYRTm0hhLu+3qHb4rehK1S3HCTI
a3SzgI7/wrV6TsTKRhN/TfmhhYPksCmcXahPyOzIxFgbVAECQQDYerKFYJD6H+tG
TWhCYYTVr6XMwk4nABWDn3rOx+sBJQqZ+R+wYoC05gsUMl27leg4Sdeqs6ae4OZz
hSgeBu0/AkEA124Fjs4F3Q/DJVd+tbxTOkuSjC6nCSqtROKOZvPgIuYhgrfUb4d2
JIumhJuU5LK1P2tyzz6hSsjVA152rsRsgQJBANEjwOLQh1/OhIuX7xjqg9254zFt
qvlMwHw4D/pD9EtX0OUuZCoREA00jhGGEz5ONlpjJKN7CodF+f4y764KvRsCQC5Y
cgOl2OcU5AOdjhnk2PbamT1lL/Qt5TbDkqUdZCO95ImtqJsRxl3YWUt/+Qk2VP2+
zOU+8Q4YpJLj+J5ijYECQGLUEG9ZwEi/7jvjOi/dk5Rzx6To9ecsw5arO3MasePZ
rvX8HnflXGfnV8ojwEiiEZ5zZA8zrOfoW1N740D8INU=
-----END RSA PRIVATE KEY-----
Certificate:
    Data:
        Version: 3 (0x2)
        Serial Number: 152 (0x98)
    Signature Algorithm: sha256WithRSAEncryption
        Issuer: C=FR, ST=bourgogne, L=dijon, O=eole, OU=ci, CN=ACEoleCI
        Validity
            Not Before: Mar 17 14:36:09 2016 GMT
            Not After : Jun  3 14:36:09 2024 GMT
        Subject: CN=pceleve.etb2.lan
        Subject Public Key Info:
            Public Key Algorithm: rsaEncryption
                Public-Key: (1024 bit)
                Modulus:
                    00:b6:2c:15:59:e1:2c:92:36:be:3e:b0:81:53:ff:
                    5b:e0:e4:69:5f:d3:53:8c:13:e9:01:09:2a:e6:06:
                    66:f1:52:75:76:4e:4e:d3:7e:1b:d8:2f:72:71:c0:
                    2b:11:99:6f:50:dd:53:e5:1b:8c:c9:be:df:35:a6:
                    82:c5:b9:4e:d0:a2:1a:75:85:0a:31:26:5f:ed:4d:
                    5e:76:1d:5b:3d:c3:05:fe:a2:5b:46:ba:0d:3a:d5:
                    ac:36:5d:79:43:d5:5f:6f:2e:fb:cb:28:0a:82:29:
                    b3:40:9c:3f:93:b3:ff:87:8e:56:31:91:d4:04:ad:
                    b6:a8:8e:35:7a:83:d0:20:bf
                Exponent: 65537 (0x10001)
        X509v3 extensions:
            X509v3 Basic Constraints: 
                CA:FALSE
            X509v3 Subject Key Identifier: 
                02:06:33:B8:14:F9:49:5F:94:2F:CE:10:F7:73:E6:7F:67:BA:57:D4
            X509v3 Authority Key Identifier: 
                keyid:38:DF:46:29:38:B2:13:8B:A5:7C:80:4B:5E:AA:24:DB:25:DC:EC:EE

            X509v3 Key Usage: critical
                Digital Signature, Non Repudiation, Key Encipherment
            X509v3 Extended Key Usage: 
                TLS Web Client Authentication, E-mail Protection
    Signature Algorithm: sha256WithRSAEncryption
         90:c6:6c:ea:a0:0b:df:39:09:31:c7:00:db:4a:b0:3a:ba:48:
         0b:ca:c7:79:b7:1b:f7:47:b7:93:25:6e:dd:f8:ed:70:95:a1:
         5c:4e:6b:e6:c7:12:77:a1:45:4a:4f:11:6c:93:a5:18:fa:4d:
         43:8d:52:8b:d6:f0:19:b2:d6:8c:32:e0:c7:76:52:12:f2:22:
         6d:29:31:f9:95:84:17:9b:c6:85:56:b8:a3:b0:c2:fa:2c:86:
         0a:f3:80:55:5a:22:8c:b4:60:35:22:98:80:e5:98:cd:35:d8:
         c8:93:ac:4b:04:bd:0f:3c:ab:31:c3:c5:38:9c:5b:9d:34:13:
         b8:3d
-----BEGIN CERTIFICATE-----
MIICbjCCAdegAwIBAgICAJgwDQYJKoZIhvcNAQELBQAwYDELMAkGA1UEBhMCRlIx
EjAQBgNVBAgMCWJvdXJnb2duZTEOMAwGA1UEBwwFZGlqb24xDTALBgNVBAoMBGVv
bGUxCzAJBgNVBAsMAmNpMREwDwYDVQQDDAhBQ0VvbGVDSTAeFw0xNjAzMTcxNDM2
MDlaFw0yNDA2MDMxNDM2MDlaMBsxGTAXBgNVBAMMEHBjZWxldmUuZXRiMi5sYW4w
gZ8wDQYJKoZIhvcNAQEBBQADgY0AMIGJAoGBALYsFVnhLJI2vj6wgVP/W+DkaV/T
U4wT6QEJKuYGZvFSdXZOTtN+G9gvcnHAKxGZb1DdU+UbjMm+3zWmgsW5TtCiGnWF
CjEmX+1NXnYdWz3DBf6iW0a6DTrVrDZdeUPVX28u+8soCoIps0CcP5Oz/4eOVjGR
1ASttqiONXqD0CC/AgMBAAGjfDB6MAkGA1UdEwQCMAAwHQYDVR0OBBYEFAIGM7gU
+UlflC/OEPdz5n9nulfUMB8GA1UdIwQYMBaAFDjfRik4shOLpXyAS16qJNsl3Ozu
MA4GA1UdDwEB/wQEAwIF4DAdBgNVHSUEFjAUBggrBgEFBQcDAgYIKwYBBQUHAwQw
DQYJKoZIhvcNAQELBQADgYEAkMZs6qAL3zkJMccA20qwOrpIC8rHebcb90e3kyVu
3fjtcJWhXE5r5scSd6FFSk8RbJOlGPpNQ41Si9bwGbLWjDLgx3ZSEvIibSkx+ZWE
F5vGhVa4o7DC+iyGCvOAVVoijLRgNSKYgOWYzTXYyJOsSwS9DzyrMcPFOJxbnTQT
uD0=
-----END CERTIFICATE-----
