Certificate:
    Data:
        Version: 3 (0x2)
        Serial Number: 202 (0xca)
    Signature Algorithm: sha256WithRSAEncryption
        Issuer: C=FR, ST=bourgogne, L=dijon, O=eole, OU=ci, CN=ACEoleCI
        Validity
            Not Before: Mar 17 14:36:21 2016 GMT
            Not After : Jun  3 14:36:21 2024 GMT
        Subject: CN=eolecitestspedago.etb6.lan
        Subject Public Key Info:
            Public Key Algorithm: rsaEncryption
                Public-Key: (1024 bit)
                Modulus:
                    00:cc:63:79:c8:ad:99:57:08:fc:35:13:87:23:0c:
                    79:3a:fd:25:59:eb:f6:88:91:1f:7c:8d:e8:80:1e:
                    27:35:36:34:ba:d1:3d:37:4b:ff:d9:97:fa:69:c0:
                    f4:91:28:b6:3b:d3:50:b0:10:32:80:f7:27:d6:e3:
                    29:15:48:76:fc:03:2d:0f:02:8c:8c:d9:b5:95:a0:
                    8d:98:83:ba:95:ce:00:ef:e8:97:7a:f5:e1:90:c8:
                    c3:55:e2:b6:a0:4c:d0:1d:e3:e9:69:e2:f0:88:0a:
                    e3:2e:98:22:e9:a3:20:2d:a0:65:cf:a5:a4:7e:0d:
                    c3:b3:4f:4b:d3:9f:ce:72:4d
                Exponent: 65537 (0x10001)
        X509v3 extensions:
            X509v3 Basic Constraints: 
                CA:FALSE
            X509v3 Subject Key Identifier: 
                F5:A7:DE:20:CD:9B:CC:8A:F1:F3:2E:64:F0:01:21:A5:FB:DE:B1:9E
            X509v3 Authority Key Identifier: 
                keyid:38:DF:46:29:38:B2:13:8B:A5:7C:80:4B:5E:AA:24:DB:25:DC:EC:EE
                DirName:/C=FR/ST=bourgogne/L=dijon/O=eole/OU=ci/CN=ACEoleCI
                serial:81:5A:FE:E5:BA:70:38:01

            X509v3 Key Usage: critical
                Digital Signature, Key Encipherment
            X509v3 Extended Key Usage: 
                TLS Web Server Authentication
    Signature Algorithm: sha256WithRSAEncryption
         4f:b5:33:39:0b:b5:bf:b7:2e:5a:9d:e4:7f:7a:5b:cd:75:d3:
         57:fb:3e:48:dd:c2:ca:5d:56:ca:fb:36:a4:4e:85:71:c7:b9:
         20:84:24:c0:83:f8:4b:9f:bc:f4:d4:a6:a3:42:1b:ef:e4:76:
         74:72:5f:b6:ad:10:e4:da:f4:ff:56:60:5a:4b:e9:8f:9e:e4:
         d7:75:ab:40:9a:72:e9:83:73:3d:51:14:47:d8:db:4a:02:d6:
         fb:8a:2a:be:5e:ec:24:63:97:6b:a1:56:03:d4:61:09:6b:87:
         2b:36:37:95:5b:f6:fe:05:21:b9:7b:d2:ba:63:b5:87:b2:49:
         9f:84
-----BEGIN CERTIFICATE-----
MIIC5DCCAk2gAwIBAgICAMowDQYJKoZIhvcNAQELBQAwYDELMAkGA1UEBhMCRlIx
EjAQBgNVBAgMCWJvdXJnb2duZTEOMAwGA1UEBwwFZGlqb24xDTALBgNVBAoMBGVv
bGUxCzAJBgNVBAsMAmNpMREwDwYDVQQDDAhBQ0VvbGVDSTAeFw0xNjAzMTcxNDM2
MjFaFw0yNDA2MDMxNDM2MjFaMCUxIzAhBgNVBAMMGmVvbGVjaXRlc3RzcGVkYWdv
LmV0YjYubGFuMIGfMA0GCSqGSIb3DQEBAQUAA4GNADCBiQKBgQDMY3nIrZlXCPw1
E4cjDHk6/SVZ6/aIkR98jeiAHic1NjS60T03S//Zl/ppwPSRKLY701CwEDKA9yfW
4ykVSHb8Ay0PAoyM2bWVoI2Yg7qVzgDv6Jd69eGQyMNV4ragTNAd4+lp4vCICuMu
mCLpoyAtoGXPpaR+DcOzT0vTn85yTQIDAQABo4HnMIHkMAkGA1UdEwQCMAAwHQYD
VR0OBBYEFPWn3iDNm8yK8fMuZPABIaX73rGeMIGSBgNVHSMEgYowgYeAFDjfRik4
shOLpXyAS16qJNsl3OzuoWSkYjBgMQswCQYDVQQGEwJGUjESMBAGA1UECAwJYm91
cmdvZ25lMQ4wDAYDVQQHDAVkaWpvbjENMAsGA1UECgwEZW9sZTELMAkGA1UECwwC
Y2kxETAPBgNVBAMMCEFDRW9sZUNJggkAgVr+5bpwOAEwDgYDVR0PAQH/BAQDAgWg
MBMGA1UdJQQMMAoGCCsGAQUFBwMBMA0GCSqGSIb3DQEBCwUAA4GBAE+1MzkLtb+3
Llqd5H96W81101f7PkjdwspdVsr7NqROhXHHuSCEJMCD+EufvPTUpqNCG+/kdnRy
X7atEOTa9P9WYFpL6Y+e5Nd1q0CacumDcz1RFEfY20oC1vuKKr5e7CRjl2uhVgPU
YQlrhys2N5Vb9v4FIbl70rpjtYeySZ+E
-----END CERTIFICATE-----
