-----BEGIN RSA PRIVATE KEY-----
MIICXgIBAAKBgQDMY3nIrZlXCPw1E4cjDHk6/SVZ6/aIkR98jeiAHic1NjS60T03
S//Zl/ppwPSRKLY701CwEDKA9yfW4ykVSHb8Ay0PAoyM2bWVoI2Yg7qVzgDv6Jd6
9eGQyMNV4ragTNAd4+lp4vCICuMumCLpoyAtoGXPpaR+DcOzT0vTn85yTQIDAQAB
AoGBAKdWtonoIAiTUbK+90Bp4QO76Q3TVHiBoO7gXMAwb9dwNwHReDZC4gmsFZjq
IxKJ65HVtFVCHadbM+ILAELtnoPD7wEwIfdvFITW+6LJIUwnA312PvnbC4eHGCIS
/j2Z/Cmz8a+2Fb8tOfmULMDS1CvaXTtgOwoO6tWIbIQhr9D9AkEA/ufgKV8aXmFP
x3+l5HPpBlFqHZqKnACPVzzJAp6tCqAgwB7iO8QqoC4EQNqKqPhm/rx1Wt9MlaeH
tDKx30xd4wJBAM1EFcfWvEoj0sDn7HHdZ7yarPgf8/3FpU6Lv/txyAqVAL3O5Gwd
d+zFOv2+LrSqRTH7AXBNV9ty0K2TgasJ5g8CQQCFZOKxw8sQyOvvAqXVv7KaU9Cs
XUtcCA77IBww+sijXtjEsWTC0g1cdbhUGAmoExYTCJyBSYnSZzFk44Kh0FzxAkEA
hbuYHSzQW9VfGAOCTuUbEwwLKVVYF7xPaQ8vs1h8JjjR1NgYhj/kxEPznSHtOBO/
JUMNuucJGJaDUrNJxe+bDQJAPUubpoQKqCc6HCCuL7krjqXGdWSyHAgkQDoZy29j
6tCNLyfQiE5BHZWueFEu00cAR03T21OwXDHCGAsKt43Qiw==
-----END RSA PRIVATE KEY-----
Certificate:
    Data:
        Version: 3 (0x2)
        Serial Number: 203 (0xcb)
    Signature Algorithm: sha256WithRSAEncryption
        Issuer: C=FR, ST=bourgogne, L=dijon, O=eole, OU=ci, CN=ACEoleCI
        Validity
            Not Before: Mar 17 14:36:21 2016 GMT
            Not After : Jun  3 14:36:21 2024 GMT
        Subject: CN=eolecitestspedago.etb6.lan
        Subject Public Key Info:
            Public Key Algorithm: rsaEncryption
                Public-Key: (1024 bit)
                Modulus:
                    00:cc:63:79:c8:ad:99:57:08:fc:35:13:87:23:0c:
                    79:3a:fd:25:59:eb:f6:88:91:1f:7c:8d:e8:80:1e:
                    27:35:36:34:ba:d1:3d:37:4b:ff:d9:97:fa:69:c0:
                    f4:91:28:b6:3b:d3:50:b0:10:32:80:f7:27:d6:e3:
                    29:15:48:76:fc:03:2d:0f:02:8c:8c:d9:b5:95:a0:
                    8d:98:83:ba:95:ce:00:ef:e8:97:7a:f5:e1:90:c8:
                    c3:55:e2:b6:a0:4c:d0:1d:e3:e9:69:e2:f0:88:0a:
                    e3:2e:98:22:e9:a3:20:2d:a0:65:cf:a5:a4:7e:0d:
                    c3:b3:4f:4b:d3:9f:ce:72:4d
                Exponent: 65537 (0x10001)
        X509v3 extensions:
            X509v3 Basic Constraints: 
                CA:FALSE
            X509v3 Subject Key Identifier: 
                F5:A7:DE:20:CD:9B:CC:8A:F1:F3:2E:64:F0:01:21:A5:FB:DE:B1:9E
            X509v3 Authority Key Identifier: 
                keyid:38:DF:46:29:38:B2:13:8B:A5:7C:80:4B:5E:AA:24:DB:25:DC:EC:EE

            X509v3 Key Usage: critical
                Digital Signature, Non Repudiation, Key Encipherment
            X509v3 Extended Key Usage: 
                TLS Web Client Authentication, E-mail Protection
    Signature Algorithm: sha256WithRSAEncryption
         2a:66:b2:cd:35:59:63:01:d1:e7:ad:27:87:e8:cd:9b:b9:f8:
         f6:d9:f4:df:05:18:5d:63:1e:dd:40:71:08:d7:af:44:35:84:
         5f:d7:9e:b5:03:55:84:4e:36:7a:e4:04:91:5c:2c:ee:36:b8:
         b3:ca:58:0a:ab:68:0c:2f:47:16:2b:33:f1:0f:79:e1:56:b6:
         a4:e1:a8:c0:68:a4:46:dc:2b:d7:aa:ac:34:5d:84:9e:ba:84:
         82:f0:90:bf:39:c5:af:a0:a3:22:8d:dc:4d:67:21:a3:71:48:
         b4:20:2d:8a:0f:ca:9a:48:69:41:1a:3a:64:74:ea:34:e5:a9:
         65:85
-----BEGIN CERTIFICATE-----
MIICeDCCAeGgAwIBAgICAMswDQYJKoZIhvcNAQELBQAwYDELMAkGA1UEBhMCRlIx
EjAQBgNVBAgMCWJvdXJnb2duZTEOMAwGA1UEBwwFZGlqb24xDTALBgNVBAoMBGVv
bGUxCzAJBgNVBAsMAmNpMREwDwYDVQQDDAhBQ0VvbGVDSTAeFw0xNjAzMTcxNDM2
MjFaFw0yNDA2MDMxNDM2MjFaMCUxIzAhBgNVBAMMGmVvbGVjaXRlc3RzcGVkYWdv
LmV0YjYubGFuMIGfMA0GCSqGSIb3DQEBAQUAA4GNADCBiQKBgQDMY3nIrZlXCPw1
E4cjDHk6/SVZ6/aIkR98jeiAHic1NjS60T03S//Zl/ppwPSRKLY701CwEDKA9yfW
4ykVSHb8Ay0PAoyM2bWVoI2Yg7qVzgDv6Jd69eGQyMNV4ragTNAd4+lp4vCICuMu
mCLpoyAtoGXPpaR+DcOzT0vTn85yTQIDAQABo3wwejAJBgNVHRMEAjAAMB0GA1Ud
DgQWBBT1p94gzZvMivHzLmTwASGl+96xnjAfBgNVHSMEGDAWgBQ430YpOLITi6V8
gEteqiTbJdzs7jAOBgNVHQ8BAf8EBAMCBeAwHQYDVR0lBBYwFAYIKwYBBQUHAwIG
CCsGAQUFBwMEMA0GCSqGSIb3DQEBCwUAA4GBACpmss01WWMB0eetJ4fozZu5+PbZ
9N8FGF1jHt1AcQjXr0Q1hF/XnrUDVYRONnrkBJFcLO42uLPKWAqraAwvRxYrM/EP
eeFWtqThqMBopEbcK9eqrDRdhJ66hILwkL85xa+goyKN3E1nIaNxSLQgLYoPyppI
aUEaOmR06jTlqWWF
-----END CERTIFICATE-----
