Certificate:
    Data:
        Version: 3 (0x2)
        Serial Number: 204 (0xcc)
    Signature Algorithm: sha256WithRSAEncryption
        Issuer: C=FR, ST=bourgogne, L=dijon, O=eole, OU=ci, CN=ACEoleCI
        Validity
            Not Before: Mar 17 14:36:21 2016 GMT
            Not After : Jun  3 14:36:21 2024 GMT
        Subject: CN=eolecitestspedago.etb6.lan
        Subject Public Key Info:
            Public Key Algorithm: rsaEncryption
                Public-Key: (1024 bit)
                Modulus:
                    00:cc:63:79:c8:ad:99:57:08:fc:35:13:87:23:0c:
                    79:3a:fd:25:59:eb:f6:88:91:1f:7c:8d:e8:80:1e:
                    27:35:36:34:ba:d1:3d:37:4b:ff:d9:97:fa:69:c0:
                    f4:91:28:b6:3b:d3:50:b0:10:32:80:f7:27:d6:e3:
                    29:15:48:76:fc:03:2d:0f:02:8c:8c:d9:b5:95:a0:
                    8d:98:83:ba:95:ce:00:ef:e8:97:7a:f5:e1:90:c8:
                    c3:55:e2:b6:a0:4c:d0:1d:e3:e9:69:e2:f0:88:0a:
                    e3:2e:98:22:e9:a3:20:2d:a0:65:cf:a5:a4:7e:0d:
                    c3:b3:4f:4b:d3:9f:ce:72:4d
                Exponent: 65537 (0x10001)
        X509v3 extensions:
            X509v3 Basic Constraints: 
                CA:FALSE
            X509v3 Subject Key Identifier: 
                F5:A7:DE:20:CD:9B:CC:8A:F1:F3:2E:64:F0:01:21:A5:FB:DE:B1:9E
            X509v3 Authority Key Identifier: 
                keyid:38:DF:46:29:38:B2:13:8B:A5:7C:80:4B:5E:AA:24:DB:25:DC:EC:EE
                DirName:/C=FR/ST=bourgogne/L=dijon/O=eole/OU=ci/CN=ACEoleCI
                serial:81:5A:FE:E5:BA:70:38:01

            X509v3 Key Usage: critical
                Digital Signature, Key Encipherment
    Signature Algorithm: sha256WithRSAEncryption
         8f:d6:a8:ee:4e:f5:d7:13:e6:c8:b6:9e:e1:b5:59:8a:f5:fe:
         64:77:93:cd:42:84:2b:65:46:b4:06:ec:cc:d1:90:f0:be:26:
         af:4e:2c:cb:d3:0b:22:6e:79:a6:fd:40:27:ce:bf:7b:32:75:
         56:72:3a:80:62:0e:d2:18:b0:a9:82:30:14:94:69:8d:85:3f:
         85:5a:e5:ed:51:c3:e0:b1:75:5c:eb:00:87:2c:c0:2b:93:3a:
         46:bd:04:30:5f:dc:52:90:20:cb:d6:e4:d9:9a:c4:f2:13:50:
         14:f8:d0:fa:21:0b:2e:06:65:78:73:93:05:2c:81:21:05:02:
         df:52
-----BEGIN CERTIFICATE-----
MIICzzCCAjigAwIBAgICAMwwDQYJKoZIhvcNAQELBQAwYDELMAkGA1UEBhMCRlIx
EjAQBgNVBAgMCWJvdXJnb2duZTEOMAwGA1UEBwwFZGlqb24xDTALBgNVBAoMBGVv
bGUxCzAJBgNVBAsMAmNpMREwDwYDVQQDDAhBQ0VvbGVDSTAeFw0xNjAzMTcxNDM2
MjFaFw0yNDA2MDMxNDM2MjFaMCUxIzAhBgNVBAMMGmVvbGVjaXRlc3RzcGVkYWdv
LmV0YjYubGFuMIGfMA0GCSqGSIb3DQEBAQUAA4GNADCBiQKBgQDMY3nIrZlXCPw1
E4cjDHk6/SVZ6/aIkR98jeiAHic1NjS60T03S//Zl/ppwPSRKLY701CwEDKA9yfW
4ykVSHb8Ay0PAoyM2bWVoI2Yg7qVzgDv6Jd69eGQyMNV4ragTNAd4+lp4vCICuMu
mCLpoyAtoGXPpaR+DcOzT0vTn85yTQIDAQABo4HSMIHPMAkGA1UdEwQCMAAwHQYD
VR0OBBYEFPWn3iDNm8yK8fMuZPABIaX73rGeMIGSBgNVHSMEgYowgYeAFDjfRik4
shOLpXyAS16qJNsl3OzuoWSkYjBgMQswCQYDVQQGEwJGUjESMBAGA1UECAwJYm91
cmdvZ25lMQ4wDAYDVQQHDAVkaWpvbjENMAsGA1UECgwEZW9sZTELMAkGA1UECwwC
Y2kxETAPBgNVBAMMCEFDRW9sZUNJggkAgVr+5bpwOAEwDgYDVR0PAQH/BAQDAgWg
MA0GCSqGSIb3DQEBCwUAA4GBAI/WqO5O9dcT5si2nuG1WYr1/mR3k81ChCtlRrQG
7MzRkPC+Jq9OLMvTCyJueab9QCfOv3sydVZyOoBiDtIYsKmCMBSUaY2FP4Va5e1R
w+CxdVzrAIcswCuTOka9BDBf3FKQIMvW5NmaxPITUBT40PohCy4GZXhzkwUsgSEF
At9S
-----END CERTIFICATE-----
